CPU Reset (CPU 0)
 pc       0000000000000000
 mhartid  0000000000000000
 mstatus  0000000000000000
 mip      0000000000000000
 mie      0000000000000000
 mideleg  0000000000000000
 medeleg  0000000000000000
 mtvec    0000000000000000
 stvec    0000000000000000
 mepc     0000000000000000
 sepc     0000000000000000
 mcause   0000000000000000
 scause   0000000000000000
 mtval    0000000000000000
 stval    0000000000000000
 mscratch 0000000000000000
 sscratch 0000000000000000
 satp     0000000000000000
 x0/zero  0000000000000000 x1/ra    0000000000000000 x2/sp    0000000000000000 x3/gp    0000000000000000
 x4/tp    0000000000000000 x5/t0    0000000000000000 x6/t1    0000000000000000 x7/t2    0000000000000000
 x8/s0    0000000000000000 x9/s1    0000000000000000 x10/a0   0000000000000000 x11/a1   0000000000000000
 x12/a2   0000000000000000 x13/a3   0000000000000000 x14/a4   0000000000000000 x15/a5   0000000000000000
 x16/a6   0000000000000000 x17/a7   0000000000000000 x18/s2   0000000000000000 x19/s3   0000000000000000
 x20/s4   0000000000000000 x21/s5   0000000000000000 x22/s6   0000000000000000 x23/s7   0000000000000000
 x24/s8   0000000000000000 x25/s9   0000000000000000 x26/s10  0000000000000000 x27/s11  0000000000000000
 x28/t3   0000000000000000 x29/t4   0000000000000000 x30/t5   0000000000000000 x31/t6   0000000000000000
CPU Reset (CPU 0)
 pc       0000000000001000
 mhartid  0000000000000000
 mstatus  0000000a00000000
 mip      0000000000000000
 mie      0000000000000000
 mideleg  0000000000000000
 medeleg  0000000000000000
 mtvec    0000000000000000
 stvec    0000000000000000
 mepc     0000000000000000
 sepc     0000000000000000
 mcause   0000000000000000
 scause   0000000000000000
 mtval    0000000000000000
 stval    0000000000000000
 mscratch 0000000000000000
 sscratch 0000000000000000
 satp     0000000000000000
 x0/zero  0000000000000000 x1/ra    0000000000000000 x2/sp    0000000000000000 x3/gp    0000000000000000
 x4/tp    0000000000000000 x5/t0    0000000000000000 x6/t1    0000000000000000 x7/t2    0000000000000000
 x8/s0    0000000000000000 x9/s1    0000000000000000 x10/a0   0000000000000000 x11/a1   0000000000000000
 x12/a2   0000000000000000 x13/a3   0000000000000000 x14/a4   0000000000000000 x15/a5   0000000000000000
 x16/a6   0000000000000000 x17/a7   0000000000000000 x18/s2   0000000000000000 x19/s3   0000000000000000
 x20/s4   0000000000000000 x21/s5   0000000000000000 x22/s6   0000000000000000 x23/s7   0000000000000000
 x24/s8   0000000000000000 x25/s9   0000000000000000 x26/s10  0000000000000000 x27/s11  0000000000000000
 x28/t3   0000000000000000 x29/t4   0000000000000000 x30/t5   0000000000000000 x31/t6   0000000000000000
----------------
IN: 
Priv: 3; Virt: 0
0x0000000000001000:  00000297          auipc           t0,0            # 0x1000
0x0000000000001004:  02828613          addi            a2,t0,40
0x0000000000001008:  f1402573          csrrs           a0,mhartid,zero

----------------
IN: 
Priv: 3; Virt: 0
0x000000000000100c:  0202b583          ld              a1,32(t0)
0x0000000000001010:  0182b283          ld              t0,24(t0)
0x0000000000001014:  00028067          jr              t0

----------------
IN: 
Priv: 3; Virt: 0
0x0000000080000000:  00050433          add             s0,a0,zero
0x0000000080000004:  000584b3          add             s1,a1,zero
0x0000000080000008:  00060933          add             s2,a2,zero
0x000000008000000c:  694000ef          jal             ra,1684         # 0x800006a0

----------------
IN: 
Priv: 3; Virt: 0
0x00000000800006a0:  494255b7          lui             a1,1229082624
0x00000000800006a4:  34f5859b          addiw           a1,a1,847
0x00000000800006a8:  6208              ld              a0,0(a2)
0x00000000800006aa:  feb517e3          bne             a0,a1,-18       # 0x80000698

----------------
IN: 
Priv: 3; Virt: 0
0x00000000800006ae:  4589              addi            a1,zero,2
0x00000000800006b0:  6608              ld              a0,8(a2)
0x00000000800006b2:  fea5c3e3          bgt             a0,a1,-26       # 0x80000698

----------------
IN: 
Priv: 3; Virt: 0
0x00000000800006b6:  4589              addi            a1,zero,2
0x00000000800006b8:  00b54463          bgt             a1,a0,8         # 0x800006c0

----------------
IN: 
Priv: 3; Virt: 0
0x00000000800006bc:  7608              ld              a0,40(a2)
0x00000000800006be:  8082              ret             

----------------
IN: 
Priv: 3; Virt: 0
0x0000000080000010:  00050833          add             a6,a0,zero
0x0000000080000014:  00040533          add             a0,s0,zero
0x0000000080000018:  000485b3          add             a1,s1,zero
0x000000008000001c:  00090633          add             a2,s2,zero
0x0000000080000020:  58fd              addi            a7,zero,-1
0x0000000080000022:  01180463          beq             a6,a7,8         # 0x8000002a

----------------
IN: 
Priv: 3; Virt: 0
0x0000000080000026:  13051d63          bne             a0,a6,314       # 0x80000160

----------------
IN: 
Priv: 3; Virt: 0
0x000000008000002a:  00012817          auipc           a6,73728        # 0x8001202a
0x000000008000002e:  52683803          ld              a6,1318(a6)
0x0000000080000032:  4885              addi            a7,zero,1
0x0000000080000034:  0118282f          amoadd.w        a6,a7,(a6)
0x0000000080000038:  12081463          bnez            a6,296          # 0x80000160

----------------
IN: 
Priv: 3; Virt: 0
0x000000008000003c:  00012297          auipc           t0,73728        # 0x8001203c
0x0000000080000040:  51c2b283          ld              t0,1308(t0)
0x0000000080000044:  00012317          auipc           t1,73728        # 0x80012044
0x0000000080000048:  5a433303          ld              t1,1444(t1)
0x000000008000004c:  0062b023          sd              t1,0(t0)
0x0000000080000050:  00012297          auipc           t0,73728        # 0x80012050
0x0000000080000054:  5182b283          ld              t0,1304(t0)
0x0000000080000058:  0002b283          ld              t0,0(t0)
0x000000008000005c:  00012317          auipc           t1,73728        # 0x8001205c
0x0000000080000060:  51433303          ld              t1,1300(t1)
0x0000000080000064:  00033303          ld              t1,0(t1)
0x0000000080000068:  00012397          auipc           t2,73728        # 0x80012068
0x000000008000006c:  4f03b383          ld              t2,1264(t2)
0x0000000080000070:  0003b383          ld              t2,0(t2)
0x0000000080000074:  40530e33          sub             t3,t1,t0
0x0000000080000078:  9e1e              add             t3,t3,t2
0x000000008000007a:  12728363          beq             t0,t2,294       # 0x800001a0

----------------
IN: 
Priv: 3; Virt: 0
0x00000000800001a0:  00012297          auipc           t0,73728        # 0x800121a0
0x00000000800001a4:  3e02b283          ld              t0,992(t0)
0x00000000800001a8:  00012317          auipc           t1,73728        # 0x800121a8
0x00000000800001ac:  3c033303          ld              t1,960(t1)
0x00000000800001b0:  00033303          ld              t1,0(t1)
0x00000000800001b4:  00012397          auipc           t2,73728        # 0x800121b4
0x00000000800001b8:  3a43b383          ld              t2,932(t2)
0x00000000800001bc:  0003b383          ld              t2,0(t2)
0x00000000800001c0:  406282b3          sub             t0,t0,t1
0x00000000800001c4:  929e              add             t0,t0,t2
0x00000000800001c6:  4305              addi            t1,zero,1
0x00000000800001c8:  0062b023          sd              t1,0(t0)
0x00000000800001cc:  0330000f          fence           rw,rw
0x00000000800001d0:  4081              mv              ra,zero
0x00000000800001d2:  486000ef          jal             ra,1158         # 0x80000658

----------------
IN: 
Priv: 3; Virt: 0
0x0000000080000658:  0000100f          fence.i         

----------------
IN: 
Priv: 3; Virt: 0
0x000000008000065c:  4101              mv              sp,zero
0x000000008000065e:  4181              mv              gp,zero
0x0000000080000660:  4201              mv              tp,zero
0x0000000080000662:  4281              mv              t0,zero
0x0000000080000664:  4301              mv              t1,zero
0x0000000080000666:  4381              mv              t2,zero
0x0000000080000668:  4401              mv              s0,zero
0x000000008000066a:  4481              mv              s1,zero
0x000000008000066c:  4681              mv              a3,zero
0x000000008000066e:  4701              mv              a4,zero
0x0000000080000670:  4781              mv              a5,zero
0x0000000080000672:  4801              mv              a6,zero
0x0000000080000674:  4881              mv              a7,zero
0x0000000080000676:  4901              mv              s2,zero
0x0000000080000678:  4981              mv              s3,zero
0x000000008000067a:  4a01              mv              s4,zero
0x000000008000067c:  4a81              mv              s5,zero
0x000000008000067e:  4b01              mv              s6,zero
0x0000000080000680:  4b81              mv              s7,zero
0x0000000080000682:  4c01              mv              s8,zero
0x0000000080000684:  4c81              mv              s9,zero
0x0000000080000686:  4d01              mv              s10,zero
0x0000000080000688:  4d81              mv              s11,zero
0x000000008000068a:  4e01              mv              t3,zero
0x000000008000068c:  4e81              mv              t4,zero
0x000000008000068e:  4f01              mv              t5,zero
0x0000000080000690:  4f81              mv              t6,zero
0x0000000080000692:  34005073          csrrwi          zero,mscratch,0

----------------
IN: 
Priv: 3; Virt: 0
0x0000000080000696:  8082              ret             

----------------
IN: 
Priv: 3; Virt: 0
0x00000000800001d6:  00012a17          auipc           s4,73728        # 0x800121d6
0x00000000800001da:  3faa3a03          ld              s4,1018(s4)
0x00000000800001de:  00012a97          auipc           s5,73728        # 0x800121de
0x00000000800001e2:  3faaba83          ld              s5,1018(s5)
0x00000000800001e6:  000a3023          sd              zero,0(s4)
0x00000000800001ea:  0a21              addi            s4,s4,8
0x00000000800001ec:  ff5a4de3          bgt             s5,s4,-6        # 0x800001e6

----------------
IN: 
Priv: 3; Virt: 0
0x00000000800001e6:  000a3023          sd              zero,0(s4)
0x00000000800001ea:  0a21              addi            s4,s4,8
0x00000000800001ec:  ff5a4de3          bgt             s5,s4,-6        # 0x800001e6

----------------
IN: 
Priv: 3; Virt: 0
0x00000000800001f0:  00012a17          auipc           s4,73728        # 0x800121f0
0x00000000800001f4:  3f0a3a03          ld              s4,1008(s4)
0x00000000800001f8:  305a1073          csrrw           zero,mtvec,s4

----------------
IN: 
Priv: 3; Virt: 0
0x00000000800001fc:  00012a17          auipc           s4,73728        # 0x800121fc
0x0000000080000200:  3f4a3a03          ld              s4,1012(s4)
0x0000000080000204:  6a89              lui             s5,8192
0x0000000080000206:  015a0133          add             sp,s4,s5
0x000000008000020a:  00050433          add             s0,a0,zero
0x000000008000020e:  000584b3          add             s1,a1,zero
0x0000000080000212:  00060933          add             s2,a2,zero
0x0000000080000216:  000689b3          add             s3,a3,zero
0x000000008000021a:  00070a33          add             s4,a4,zero
0x000000008000021e:  4aa000ef          jal             ra,1194         # 0x800006c8

----------------
IN: 
Priv: 3; Virt: 0
0x00000000800006c8:  00012717          auipc           a4,73728        # 0x800126c8
0x00000000800006cc:  ec873703          ld              a4,-312(a4)
0x00000000800006d0:  e30c              sd              a1,0(a4)
0x00000000800006d2:  49425737          lui             a4,1229082624
0x00000000800006d6:  34f7071b          addiw           a4,a4,847
0x00000000800006da:  6214              ld              a3,0(a2)
0x00000000800006dc:  fae69ee3          bne             a3,a4,-68       # 0x80000698

----------------
IN: 
Priv: 3; Virt: 0
0x00000000800006e0:  4709              addi            a4,zero,2
0x00000000800006e2:  6614              ld              a3,8(a2)
0x00000000800006e4:  fad74ae3          bgt             a3,a4,-76       # 0x80000698

----------------
IN: 
Priv: 3; Virt: 0
0x00000000800006e8:  00012717          auipc           a4,73728        # 0x800126e8
0x00000000800006ec:  eb073703          ld              a4,-336(a4)
0x00000000800006f0:  6a14              ld              a3,16(a2)
0x00000000800006f2:  e314              sd              a3,0(a4)
0x00000000800006f4:  00012717          auipc           a4,73728        # 0x800126f4
0x00000000800006f8:  eac73703          ld              a4,-340(a4)
0x00000000800006fc:  6e14              ld              a3,24(a2)
0x00000000800006fe:  e314              sd              a3,0(a4)
0x0000000080000700:  00012717          auipc           a4,73728        # 0x80012700
0x0000000080000704:  ea873703          ld              a4,-344(a4)
0x0000000080000708:  7214              ld              a3,32(a2)
0x000000008000070a:  e314              sd              a3,0(a4)
0x000000008000070c:  4709              addi            a4,zero,2
0x000000008000070e:  6614              ld              a3,8(a2)
0x0000000080000710:  00e6c863          bgt             a4,a3,16        # 0x80000720

----------------
IN: 
Priv: 3; Virt: 0
0x0000000080000714:  00012717          auipc           a4,73728        # 0x80012714
0x0000000080000718:  e9c73703          ld              a4,-356(a4)
0x000000008000071c:  7614              ld              a3,40(a2)
0x000000008000071e:  e314              sd              a3,0(a4)
0x0000000080000720:  8082              ret             

----------------
IN: 
Priv: 3; Virt: 0
0x0000000080000222:  00040533          add             a0,s0,zero
0x0000000080000226:  000485b3          add             a1,s1,zero
0x000000008000022a:  00090633          add             a2,s2,zero
0x000000008000022e:  000986b3          add             a3,s3,zero
0x0000000080000232:  000a0733          add             a4,s4,zero
0x0000000080000236:  00050433          add             s0,a0,zero
0x000000008000023a:  000584b3          add             s1,a1,zero
0x000000008000023e:  00060933          add             s2,a2,zero
0x0000000080000242:  000689b3          add             s3,a3,zero
0x0000000080000246:  00070a33          add             s4,a4,zero
0x000000008000024a:  5c8020ef          jal             ra,9672         # 0x80002812

----------------
IN: 
Priv: 3; Virt: 0
0x0000000080002812:  715d              addi            sp,sp,-80
0x0000000080002814:  e0a2              sd              s0,64(sp)
0x0000000080002816:  f84a              sd              s2,48(sp)
0x0000000080002818:  e486              sd              ra,72(sp)
0x000000008000281a:  fc26              sd              s1,56(sp)
0x000000008000281c:  f44e              sd              s3,40(sp)
0x000000008000281e:  f052              sd              s4,32(sp)
0x0000000080002820:  ec56              sd              s5,24(sp)
0x0000000080002822:  e85a              sd              s6,16(sp)
0x0000000080002824:  0880              addi            s0,sp,80
0x0000000080002826:  892e              mv              s2,a1
0x0000000080002828:  0000e597          auipc           a1,57344        # 0x80010828
0x000000008000282c:  08058593          addi            a1,a1,128
0x0000000080002830:  854a              mv              a0,s2
0x0000000080002832:  665070ef          jal             ra,32356        # 0x8000a696

----------------
IN: 
Priv: 3; Virt: 0
0x000000008000a696:  1101              addi            sp,sp,-32
0x000000008000a698:  ec06              sd              ra,24(sp)
0x000000008000a69a:  e822              sd              s0,16(sp)
0x000000008000a69c:  e426              sd              s1,8(sp)
0x000000008000a69e:  e04a              sd              s2,0(sp)
0x000000008000a6a0:  1000              addi            s0,sp,32
0x000000008000a6a2:  892a              mv              s2,a0
0x000000008000a6a4:  852e              mv              a0,a1
0x000000008000a6a6:  84ae              mv              s1,a1
0x000000008000a6a8:  e89f60ef          jal             ra,-37240       # 0x80001530

----------------
IN: 
Priv: 3; Virt: 0
0x0000000080001530:  1141              addi            sp,sp,-16
0x0000000080001532:  e422              sd              s0,8(sp)
0x0000000080001534:  0800              addi            s0,sp,16
0x0000000080001536:  00054783          lbu             a5,0(a0)
0x000000008000153a:  cf81              beqz            a5,24           # 0x80001552

----------------
IN: 
Priv: 3; Virt: 0
0x000000008000153c:  872a              mv              a4,a0
0x000000008000153e:  4501              mv              a0,zero
0x0000000080001540:  0505              addi            a0,a0,1
0x0000000080001542:  00a707b3          add             a5,a4,a0
0x0000000080001546:  0007c783          lbu             a5,0(a5)
0x000000008000154a:  fbfd              bnez            a5,-10          # 0x80001540

----------------
IN: 
Priv: 3; Virt: 0
0x000000008000154c:  6422              ld              s0,8(sp)
0x000000008000154e:  0141              addi            sp,sp,16
0x0000000080001550:  8082              ret             

----------------
IN: 
Priv: 3; Virt: 0
0x000000008000a6ac:  0005061b          sext.w          a2,a0
0x000000008000a6b0:  85a6              mv              a1,s1
0x000000008000a6b2:  854a              mv              a0,s2
0x000000008000a6b4:  ee1ff0ef          jal             ra,-288         # 0x8000a594

----------------
IN: 
Priv: 3; Virt: 0
0x000000008000a594:  715d              addi            sp,sp,-80
0x000000008000a596:  e0a2              sd              s0,64(sp)
0x000000008000a598:  fc26              sd              s1,56(sp)
0x000000008000a59a:  f44e              sd              s3,40(sp)
0x000000008000a59c:  f052              sd              s4,32(sp)
0x000000008000a59e:  ec56              sd              s5,24(sp)
0x000000008000a5a0:  e486              sd              ra,72(sp)
0x000000008000a5a2:  f84a              sd              s2,48(sp)
0x000000008000a5a4:  e85a              sd              s6,16(sp)
0x000000008000a5a6:  e45e              sd              s7,8(sp)
0x000000008000a5a8:  0880              addi            s0,sp,80
0x000000008000a5aa:  8aaa              mv              s5,a0
0x000000008000a5ac:  84ae              mv              s1,a1
0x000000008000a5ae:  89b2              mv              s3,a2
0x000000008000a5b0:  e77fe0ef          jal             ra,-4490        # 0x80009426

----------------
IN: 
Priv: 3; Virt: 0
0x0000000080009426:  1141              addi            sp,sp,-16
0x0000000080009428:  e422              sd              s0,8(sp)
0x000000008000942a:  0800              addi            s0,sp,16
0x000000008000942c:  00054703          lbu             a4,0(a0)
0x0000000080009430:  00154803          lbu             a6,1(a0)
0x0000000080009434:  00454783          lbu             a5,4(a0)
0x0000000080009438:  00554583          lbu             a1,5(a0)
0x000000008000943c:  00354303          lbu             t1,3(a0)
0x0000000080009440:  00254603          lbu             a2,2(a0)
0x0000000080009444:  00754883          lbu             a7,7(a0)
0x0000000080009448:  00654683          lbu             a3,6(a0)
0x000000008000944c:  0187171b          slliw           a4,a4,24
0x0000000080009450:  0108181b          slliw           a6,a6,16
0x0000000080009454:  0187979b          slliw           a5,a5,24
0x0000000080009458:  0105959b          slliw           a1,a1,16
0x000000008000945c:  01076733          or              a4,a4,a6
0x0000000080009460:  8fcd              or              a5,a5,a1
0x0000000080009462:  0086969b          slliw           a3,a3,8
0x0000000080009466:  00676733          or              a4,a4,t1
0x000000008000946a:  0086161b          slliw           a2,a2,8
0x000000008000946e:  0117e7b3          or              a5,a5,a7
0x0000000080009472:  8fd5              or              a5,a5,a3
0x0000000080009474:  8f51              or              a4,a4,a2
0x0000000080009476:  d00e06b7          lui             a3,-804388864
0x000000008000947a:  2701              sext.w          a4,a4
0x000000008000947c:  eed68693          addi            a3,a3,-275
0x0000000080009480:  2781              sext.w          a5,a5
0x0000000080009482:  04d70663          beq             a4,a3,76        # 0x800094ce

----------------
IN: 
Priv: 3; Virt: 0
0x00000000800094ce:  01454703          lbu             a4,20(a0)
0x00000000800094d2:  01554603          lbu             a2,21(a0)
0x00000000800094d6:  01754583          lbu             a1,23(a0)
0x00000000800094da:  01654683          lbu             a3,22(a0)
0x00000000800094de:  0187171b          slliw           a4,a4,24
0x00000000800094e2:  0106161b          slliw           a2,a2,16
0x00000000800094e6:  8f51              or              a4,a4,a2
0x00000000800094e8:  0086969b          slliw           a3,a3,8
0x00000000800094ec:  8f4d              or              a4,a4,a1
0x00000000800094ee:  8f55              or              a4,a4,a3
0x00000000800094f0:  2701              sext.w          a4,a4
0x00000000800094f2:  4685              addi            a3,zero,1
0x00000000800094f4:  02e6f763          bleu            a4,a3,46        # 0x80009522

----------------
IN: 
Priv: 3; Virt: 0
0x00000000800094f8:  01854703          lbu             a4,24(a0)
0x00000000800094fc:  01954603          lbu             a2,25(a0)
0x0000000080009500:  01b54583          lbu             a1,27(a0)
0x0000000080009504:  01a54683          lbu             a3,26(a0)
0x0000000080009508:  0187171b          slliw           a4,a4,24
0x000000008000950c:  0106161b          slliw           a2,a2,16
0x0000000080009510:  8f51              or              a4,a4,a2
0x0000000080009512:  0086969b          slliw           a3,a3,8
0x0000000080009516:  8f4d              or              a4,a4,a1
0x0000000080009518:  8f55              or              a4,a4,a3
0x000000008000951a:  2701              sext.w          a4,a4
0x000000008000951c:  46c5              addi            a3,zero,17
0x000000008000951e:  f8e6fde3          bleu            a4,a3,-102      # 0x800094b8

----------------
IN: 
Priv: 3; Virt: 0
0x00000000800094b8:  80000737          lui             a4,-2147483648
0x00000000800094bc:  ffe74713          xori            a4,a4,-2
0x00000000800094c0:  06f76363          bgtu            a5,a4,102       # 0x80009526

----------------
IN: 
Priv: 3; Virt: 0
0x00000000800094c4:  0007851b          sext.w          a0,a5
0x00000000800094c8:  6422              ld              s0,8(sp)
0x00000000800094ca:  0141              addi            sp,sp,16
0x00000000800094cc:  8082              ret             

----------------
IN: 
Priv: 3; Virt: 0
0x000000008000a5b4:  8a2a              mv              s4,a0
0x000000008000a5b6:  06054063          bltz            a0,96           # 0x8000a616

----------------
IN: 
Priv: 3; Virt: 0
0x000000008000a5ba:  0004c703          lbu             a4,0(s1)
0x000000008000a5be:  02f00793          addi            a5,zero,47
0x000000008000a5c2:  01348933          add             s2,s1,s3
0x000000008000a5c6:  4a01              mv              s4,zero
0x000000008000a5c8:  06f71363          bne             a4,a5,102       # 0x8000a62e

----------------
IN: 
Priv: 3; Virt: 0
0x000000008000a5cc:  02f00993          addi            s3,zero,47
0x000000008000a5d0:  0124e663          bgtu            s2,s1,12        # 0x8000a5dc

----------------
IN: 
Priv: 3; Virt: 0
0x000000008000a5dc:  0004c783          lbu             a5,0(s1)
0x000000008000a5e0:  ff378be3          beq             a5,s3,-10       # 0x8000a5d6

----------------
IN: 
Priv: 3; Virt: 0
0x000000008000a5d6:  0485              addi            s1,s1,1
0x000000008000a5d8:  02990f63          beq             s2,s1,62        # 0x8000a616

----------------
IN: 
Priv: 3; Virt: 0
0x000000008000a616:  60a6              ld              ra,72(sp)
0x000000008000a618:  6406              ld              s0,64(sp)
0x000000008000a61a:  74e2              ld              s1,56(sp)
0x000000008000a61c:  7942              ld              s2,48(sp)
0x000000008000a61e:  79a2              ld              s3,40(sp)
0x000000008000a620:  6ae2              ld              s5,24(sp)
0x000000008000a622:  6b42              ld              s6,16(sp)
0x000000008000a624:  6ba2              ld              s7,8(sp)
0x000000008000a626:  8552              mv              a0,s4
0x000000008000a628:  7a02              ld              s4,32(sp)
0x000000008000a62a:  6161              addi            sp,sp,80
0x000000008000a62c:  8082              ret             

----------------
IN: 
Priv: 3; Virt: 0
0x000000008000a6b8:  60e2              ld              ra,24(sp)
0x000000008000a6ba:  6442              ld              s0,16(sp)
0x000000008000a6bc:  64a2              ld              s1,8(sp)
0x000000008000a6be:  6902              ld              s2,0(sp)
0x000000008000a6c0:  6105              addi            sp,sp,32
0x000000008000a6c2:  8082              ret             

----------------
IN: 
Priv: 3; Virt: 0
0x0000000080002836:  10054463          bltz            a0,264          # 0x8000293e

----------------
IN: 
Priv: 3; Virt: 0
0x000000008000283a:  0000e997          auipc           s3,57344        # 0x8001083a
0x000000008000283e:  1c698993          addi            s3,s3,454
0x0000000080002842:  0009b603          ld              a2,0(s3)
0x0000000080002846:  84aa              mv              s1,a0
0x0000000080002848:  fb840a13          addi            s4,s0,-72
0x000000008000284c:  00011a97          auipc           s5,69632        # 0x8001384c
0x0000000080002850:  81ca8a93          addi            s5,s5,-2020
0x0000000080002854:  c605              beqz            a2,40           # 0x8000287c

----------------
IN: 
Priv: 3; Virt: 0
0x0000000080002856:  86d2              mv              a3,s4
0x0000000080002858:  55fd              addi            a1,zero,-1
0x000000008000285a:  854a              mv              a0,s2
0x000000008000285c:  1bb090ef          jal             ra,39354        # 0x8000c216

----------------
IN: 
Priv: 3; Virt: 0
0x000000008000c216:  c125              beqz            a0,96           # 0x8000c276

----------------
IN: 
Priv: 3; Virt: 0
0x000000008000c218:  7179              addi            sp,sp,-48
0x000000008000c21a:  f022              sd              s0,32(sp)
0x000000008000c21c:  ec26              sd              s1,24(sp)
0x000000008000c21e:  f406              sd              ra,40(sp)
0x000000008000c220:  e84a              sd              s2,16(sp)
0x000000008000c222:  e44e              sd              s3,8(sp)
0x000000008000c224:  e052              sd              s4,0(sp)
0x000000008000c226:  1800              addi            s0,sp,48
0x000000008000c228:  84b2              mv              s1,a2
0x000000008000c22a:  ce05              beqz            a2,56           # 0x8000c262

----------------
IN: 
Priv: 3; Virt: 0
0x000000008000c22c:  6210              ld              a2,0(a2)
0x000000008000c22e:  892a              mv              s2,a0
0x000000008000c230:  89ae              mv              s3,a1
0x000000008000c232:  8a36              mv              s4,a3
0x000000008000c234:  e609              bnez            a2,10           # 0x8000c23e

----------------
IN: 
Priv: 3; Virt: 0
0x000000008000c23e:  85ce              mv              a1,s3
0x000000008000c240:  854a              mv              a0,s2
0x000000008000c242:  dc7fe0ef          jal             ra,-4666        # 0x8000b008

----------------
IN: 
Priv: 3; Virt: 0
0x000000008000b008:  715d              addi            sp,sp,-80
0x000000008000b00a:  e0a2              sd              s0,64(sp)
0x000000008000b00c:  fc26              sd              s1,56(sp)
0x000000008000b00e:  f84a              sd              s2,48(sp)
0x000000008000b010:  f052              sd              s4,32(sp)
0x000000008000b012:  e486              sd              ra,72(sp)
0x000000008000b014:  f44e              sd              s3,40(sp)
0x000000008000b016:  ec56              sd              s5,24(sp)
0x000000008000b018:  0880              addi            s0,sp,80
0x000000008000b01a:  892a              mv              s2,a0
0x000000008000b01c:  84ae              mv              s1,a1
0x000000008000b01e:  8a32              mv              s4,a2
0x000000008000b020:  c06fe0ef          jal             ra,-7162        # 0x80009426

----------------
IN: 
Priv: 3; Virt: 0
0x000000008000b024:  06054163          bltz            a0,98           # 0x8000b086

----------------
IN: 
Priv: 3; Virt: 0
0x000000008000b028:  85a6              mv              a1,s1
0x000000008000b02a:  4601              mv              a2,zero
0x000000008000b02c:  854a              mv              a0,s2
0x000000008000b02e:  a29fe0ef          jal             ra,-5592        # 0x80009a56

----------------
IN: 
Priv: 3; Virt: 0
0x0000000080009a56:  715d              addi            sp,sp,-80
0x0000000080009a58:  e0a2              sd              s0,64(sp)
0x0000000080009a5a:  f84a              sd              s2,48(sp)
0x0000000080009a5c:  f44e              sd              s3,40(sp)
0x0000000080009a5e:  0880              addi            s0,sp,80
0x0000000080009a60:  e486              sd              ra,72(sp)
0x0000000080009a62:  fc26              sd              s1,56(sp)
0x0000000080009a64:  f052              sd              s4,32(sp)
0x0000000080009a66:  ec56              sd              s5,24(sp)
0x0000000080009a68:  e85a              sd              s6,16(sp)
0x0000000080009a6a:  fa042c23          sw              zero,-72(s0)
0x0000000080009a6e:  89aa              mv              s3,a0
0x0000000080009a70:  8932              mv              s2,a2
0x0000000080009a72:  0805d863          bgez            a1,144          # 0x80009b02

----------------
IN: 
Priv: 3; Virt: 0
0x0000000080009a76:  4481              mv              s1,zero
0x0000000080009a78:  85a6              mv              a1,s1
0x0000000080009a7a:  fb840613          addi            a2,s0,-72
0x0000000080009a7e:  854e              mv              a0,s3
0x0000000080009a80:  e25ff0ef          jal             ra,-476         # 0x800098a4

----------------
IN: 
Priv: 3; Virt: 0
0x00000000800098a4:  7139              addi            sp,sp,-64
0x00000000800098a6:  f822              sd              s0,48(sp)
0x00000000800098a8:  ec4e              sd              s3,24(sp)
0x00000000800098aa:  e852              sd              s4,16(sp)
0x00000000800098ac:  e456              sd              s5,8(sp)
0x00000000800098ae:  fc06              sd              ra,56(sp)
0x00000000800098b0:  f426              sd              s1,40(sp)
0x00000000800098b2:  f04a              sd              s2,32(sp)
0x00000000800098b4:  e05a              sd              s6,0(sp)
0x00000000800098b6:  0080              addi            s0,sp,64
0x00000000800098b8:  57e1              addi            a5,zero,-8
0x00000000800098ba:  89b2              mv              s3,a2
0x00000000800098bc:  c21c              sw              a5,0(a2)
0x00000000800098be:  4611              addi            a2,zero,4
0x00000000800098c0:  8a2a              mv              s4,a0
0x00000000800098c2:  8aae              mv              s5,a1
0x00000000800098c4:  efbff0ef          jal             ra,-262         # 0x800097be

----------------
IN: 
Priv: 3; Virt: 0
0x00000000800097be:  1141              addi            sp,sp,-16
0x00000000800097c0:  e422              sd              s0,8(sp)
0x00000000800097c2:  0800              addi            s0,sp,16
0x00000000800097c4:  00954783          lbu             a5,9(a0)
0x00000000800097c8:  00854683          lbu             a3,8(a0)
0x00000000800097cc:  00b54803          lbu             a6,11(a0)
0x00000000800097d0:  00a54703          lbu             a4,10(a0)
0x00000000800097d4:  0107979b          slliw           a5,a5,16
0x00000000800097d8:  0186969b          slliw           a3,a3,24
0x00000000800097dc:  8fd5              or              a5,a5,a3
0x00000000800097de:  0107e7b3          or              a5,a5,a6
0x00000000800097e2:  0087171b          slliw           a4,a4,8
0x00000000800097e6:  8fd9              or              a5,a5,a4
0x00000000800097e8:  00b7883b          addw            a6,a5,a1
0x00000000800097ec:  0ab86863          bgtu            a1,a6,176       # 0x8000989c

----------------
IN: 
Priv: 3; Virt: 0
0x00000000800097f0:  00c806bb          addw            a3,a6,a2
0x00000000800097f4:  0b06e463          bgtu            a6,a3,168       # 0x8000989c

----------------
IN: 
Priv: 3; Virt: 0
0x00000000800097f8:  00454703          lbu             a4,4(a0)
0x00000000800097fc:  00554883          lbu             a7,5(a0)
0x0000000080009800:  00754e03          lbu             t3,7(a0)
0x0000000080009804:  00654803          lbu             a6,6(a0)
0x0000000080009808:  0187171b          slliw           a4,a4,24
0x000000008000980c:  0108989b          slliw           a7,a7,16
0x0000000080009810:  01176733          or              a4,a4,a7
0x0000000080009814:  01c76733          or              a4,a4,t3
0x0000000080009818:  0088181b          slliw           a6,a6,8
0x000000008000981c:  01076733          or              a4,a4,a6
0x0000000080009820:  2701              sext.w          a4,a4
0x0000000080009822:  06d76d63          bgtu            a3,a4,122       # 0x8000989c

----------------
IN: 
Priv: 3; Virt: 0
0x0000000080009826:  01454703          lbu             a4,20(a0)
0x000000008000982a:  01554803          lbu             a6,21(a0)
0x000000008000982e:  01754883          lbu             a7,23(a0)
0x0000000080009832:  01654683          lbu             a3,22(a0)
0x0000000080009836:  0187171b          slliw           a4,a4,24
0x000000008000983a:  0108181b          slliw           a6,a6,16
0x000000008000983e:  01076733          or              a4,a4,a6
0x0000000080009842:  0086969b          slliw           a3,a3,8
0x0000000080009846:  01176733          or              a4,a4,a7
0x000000008000984a:  8f55              or              a4,a4,a3
0x000000008000984c:  2701              sext.w          a4,a4
0x000000008000984e:  46c1              addi            a3,zero,16
0x0000000080009850:  2781              sext.w          a5,a5
0x0000000080009852:  02e6fe63          bleu            a4,a3,60        # 0x8000988e

----------------
IN: 
Priv: 3; Virt: 0
0x0000000080009856:  0005831b          sext.w          t1,a1
0x000000008000985a:  00c3063b          addw            a2,t1,a2
0x000000008000985e:  02666f63          bgtu            t1,a2,62        # 0x8000989c

----------------
IN: 
Priv: 3; Virt: 0
0x0000000080009862:  02454703          lbu             a4,36(a0)
0x0000000080009866:  02554803          lbu             a6,37(a0)
0x000000008000986a:  02754883          lbu             a7,39(a0)
0x000000008000986e:  02654683          lbu             a3,38(a0)
0x0000000080009872:  0187171b          slliw           a4,a4,24
0x0000000080009876:  0108181b          slliw           a6,a6,16
0x000000008000987a:  01076733          or              a4,a4,a6
0x000000008000987e:  01176733          or              a4,a4,a7
0x0000000080009882:  0086969b          slliw           a3,a3,8
0x0000000080009886:  8f55              or              a4,a4,a3
0x0000000080009888:  2701              sext.w          a4,a4
0x000000008000988a:  00c76963          bgtu            a2,a4,18        # 0x8000989c

----------------
IN: 
Priv: 3; Virt: 0
0x000000008000988e:  6422              ld              s0,8(sp)
0x0000000080009890:  1782              slli            a5,a5,32
0x0000000080009892:  9381              srli            a5,a5,32
0x0000000080009894:  95be              add             a1,a1,a5
0x0000000080009896:  952e              add             a0,a0,a1
0x0000000080009898:  0141              addi            sp,sp,16
0x000000008000989a:  8082              ret             

----------------
IN: 
Priv: 3; Virt: 0
0x00000000800098c8:  c525              beqz            a0,104          # 0x80009930

----------------
IN: 
Priv: 3; Virt: 0
0x00000000800098ca:  411c              lw              a5,0(a0)
0x00000000800098cc:  5755              addi            a4,zero,-11
0x00000000800098ce:  00e9a023          sw              a4,0(s3)
0x00000000800098d2:  0087d493          srli            s1,a5,8
0x00000000800098d6:  0ff4f493          andi            s1,s1,255
0x00000000800098da:  0187969b          slliw           a3,a5,24
0x00000000800098de:  0107d713          srli            a4,a5,16
0x00000000800098e2:  0104949b          slliw           s1,s1,16
0x00000000800098e6:  0187d79b          srliw           a5,a5,24
0x00000000800098ea:  8cd5              or              s1,s1,a3
0x00000000800098ec:  0ff77713          andi            a4,a4,255
0x00000000800098f0:  8cdd              or              s1,s1,a5
0x00000000800098f2:  0087179b          slliw           a5,a4,8
0x00000000800098f6:  8cdd              or              s1,s1,a5
0x00000000800098f8:  2481              sext.w          s1,s1
0x00000000800098fa:  47a5              addi            a5,zero,9
0x00000000800098fc:  000a8b1b          sext.w          s6,s5
0x0000000080009900:  004a891b          addiw           s2,s5,4
0x0000000080009904:  0297e663          bgtu            s1,a5,44        # 0x80009930

----------------
IN: 
Priv: 3; Virt: 0
0x0000000080009908:  00008717          auipc           a4,32768        # 0x80011908
0x000000008000990c:  e4870713          addi            a4,a4,-440
0x0000000080009910:  00249793          slli            a5,s1,2
0x0000000080009914:  97ba              add             a5,a5,a4
0x0000000080009916:  439c              lw              a5,0(a5)
0x0000000080009918:  97ba              add             a5,a5,a4
0x000000008000991a:  8782              jr              a5

----------------
IN: 
Priv: 3; Virt: 0
0x0000000080009922:  85ca              mv              a1,s2
0x0000000080009924:  4605              addi            a2,zero,1
0x0000000080009926:  8552              mv              a0,s4
0x0000000080009928:  e97ff0ef          jal             ra,-362         # 0x800097be

----------------
IN: 
Priv: 3; Virt: 0
0x000000008000992c:  2905              addiw           s2,s2,1
0x000000008000992e:  f57d              bnez            a0,-18          # 0x8000991c

----------------
IN: 
Priv: 3; Virt: 0
0x000000008000991c:  00054783          lbu             a5,0(a0)
0x0000000080009920:  c3f1              beqz            a5,196          # 0x800099e4

----------------
IN: 
Priv: 3; Virt: 0
0x00000000800099e4:  4159063b          subw            a2,s2,s5
0x00000000800099e8:  b78d              j               -158            # 0x8000994a

----------------
IN: 
Priv: 3; Virt: 0
0x000000008000994a:  85d6              mv              a1,s5
0x000000008000994c:  8552              mv              a0,s4
0x000000008000994e:  e71ff0ef          jal             ra,-400         # 0x800097be

----------------
IN: 
Priv: 3; Virt: 0
0x0000000080009952:  dd79              beqz            a0,-34          # 0x80009930

----------------
IN: 
Priv: 3; Virt: 0
0x0000000080009954:  290d              addiw           s2,s2,3
0x0000000080009956:  ffc97913          andi            s2,s2,-4
0x000000008000995a:  0129a023          sw              s2,0(s3)
0x000000008000995e:  bfd1              j               -44             # 0x80009932

----------------
IN: 
Priv: 3; Virt: 0
0x0000000080009932:  70e2              ld              ra,56(sp)
0x0000000080009934:  7442              ld              s0,48(sp)
0x0000000080009936:  7902              ld              s2,32(sp)
0x0000000080009938:  69e2              ld              s3,24(sp)
0x000000008000993a:  6a42              ld              s4,16(sp)
0x000000008000993c:  6aa2              ld              s5,8(sp)
0x000000008000993e:  6b02              ld              s6,0(sp)
0x0000000080009940:  8526              mv              a0,s1
0x0000000080009942:  74a2              ld              s1,40(sp)
0x0000000080009944:  6121              addi            sp,sp,64
0x0000000080009946:  8082              ret             

----------------
IN: 
Priv: 3; Virt: 0
0x0000000080009a84:  4b09              addi            s6,zero,2
0x0000000080009a86:  2501              sext.w          a0,a0
0x0000000080009a88:  4aa5              addi            s5,zero,9
0x0000000080009a8a:  4a05              addi            s4,zero,1
0x0000000080009a8c:  03650163          beq             a0,s6,34        # 0x80009aae

----------------
IN: 
Priv: 3; Virt: 0
0x0000000080009a90:  05550e63          beq             a0,s5,92        # 0x80009aec

----------------
IN: 
Priv: 3; Virt: 0
0x0000000080009a94:  03450a63          beq             a0,s4,52        # 0x80009ac8

----------------
IN: 
Priv: 3; Virt: 0
0x0000000080009ac8:  00090763          beqz            s2,14           # 0x80009ad6

----------------
IN: 
Priv: 3; Virt: 0
0x0000000080009ad6:  60a6              ld              ra,72(sp)
0x0000000080009ad8:  6406              ld              s0,64(sp)
0x0000000080009ada:  7942              ld              s2,48(sp)
0x0000000080009adc:  79a2              ld              s3,40(sp)
0x0000000080009ade:  7a02              ld              s4,32(sp)
0x0000000080009ae0:  6ae2              ld              s5,24(sp)
0x0000000080009ae2:  6b42              ld              s6,16(sp)
0x0000000080009ae4:  8526              mv              a0,s1
0x0000000080009ae6:  74e2              ld              s1,56(sp)
0x0000000080009ae8:  6161              addi            sp,sp,80
0x0000000080009aea:  8082              ret             

----------------
IN: 
Priv: 3; Virt: 0
0x000000008000b032:  84aa              mv              s1,a0
0x000000008000b034:  04054963          bltz            a0,82           # 0x8000b086

----------------
IN: 
Priv: 3; Virt: 0
0x000000008000b038:  00006997          auipc           s3,24576        # 0x80011038
0x000000008000b03c:  76898993          addi            s3,s3,1896
0x000000008000b040:  5afd              addi            s5,zero,-1
0x000000008000b042:  a831              j               28              # 0x8000b05e

----------------
IN: 
Priv: 3; Virt: 0
0x000000008000b05e:  854e              mv              a0,s3
0x000000008000b060:  cd0f60ef          jal             ra,-39728       # 0x80001530

----------------
IN: 
Priv: 3; Virt: 0
0x0000000080001540:  0505              addi            a0,a0,1
0x0000000080001542:  00a707b3          add             a5,a4,a0
0x0000000080001546:  0007c783          lbu             a5,0(a5)
0x000000008000154a:  fbfd              bnez            a5,-10          # 0x80001540

----------------
IN: 
Priv: 3; Virt: 0
0x000000008000b064:  0005069b          sext.w          a3,a0
0x000000008000b068:  864e              mv              a2,s3
0x000000008000b06a:  fbc40713          addi            a4,s0,-68
0x000000008000b06e:  85a6              mv              a1,s1
0x000000008000b070:  854a              mv              a0,s2
0x000000008000b072:  c9eff0ef          jal             ra,-2914        # 0x8000a510

----------------
IN: 
Priv: 3; Virt: 0
0x000000008000a510:  7179              addi            sp,sp,-48
0x000000008000a512:  f022              sd              s0,32(sp)
0x000000008000a514:  ec26              sd              s1,24(sp)
0x000000008000a516:  1800              addi            s0,sp,48
0x000000008000a518:  f406              sd              ra,40(sp)
0x000000008000a51a:  fdc40793          addi            a5,s0,-36
0x000000008000a51e:  84aa              mv              s1,a0
0x000000008000a520:  9d7ff0ef          jal             ra,-1578        # 0x80009ef6

----------------
IN: 
Priv: 3; Virt: 0
0x0000000080009ef6:  7159              addi            sp,sp,-112
0x0000000080009ef8:  f0a2              sd              s0,96(sp)
0x0000000080009efa:  eca6              sd              s1,88(sp)
0x0000000080009efc:  e8ca              sd              s2,80(sp)
0x0000000080009efe:  e4ce              sd              s3,72(sp)
0x0000000080009f00:  f85a              sd              s6,48(sp)
0x0000000080009f02:  f45e              sd              s7,40(sp)
0x0000000080009f04:  ec66              sd              s9,24(sp)
0x0000000080009f06:  f486              sd              ra,104(sp)
0x0000000080009f08:  e0d2              sd              s4,64(sp)
0x0000000080009f0a:  fc56              sd              s5,56(sp)
0x0000000080009f0c:  f062              sd              s8,32(sp)
0x0000000080009f0e:  e86a              sd              s10,16(sp)
0x0000000080009f10:  1880              addi            s0,sp,112
0x0000000080009f12:  84aa              mv              s1,a0
0x0000000080009f14:  8b32              mv              s6,a2
0x0000000080009f16:  89b6              mv              s3,a3
0x0000000080009f18:  893a              mv              s2,a4
0x0000000080009f1a:  8bbe              mv              s7,a5
0x0000000080009f1c:  acfff0ef          jal             ra,-1330        # 0x800099ea

----------------
IN: 
Priv: 3; Virt: 0
0x00000000800099ea:  1101              addi            sp,sp,-32
0x00000000800099ec:  e822              sd              s0,16(sp)
0x00000000800099ee:  ec06              sd              ra,24(sp)
0x00000000800099f0:  1000              addi            s0,sp,32
0x00000000800099f2:  feb42623          sw              a1,-20(s0)
0x00000000800099f6:  0205c363          bltz            a1,38           # 0x80009a1c

----------------
IN: 
Priv: 3; Virt: 0
0x00000000800099fa:  0035f793          andi            a5,a1,3
0x00000000800099fe:  ef99              bnez            a5,30           # 0x80009a1c

----------------
IN: 
Priv: 3; Virt: 0
0x0000000080009a00:  fec40613          addi            a2,s0,-20
0x0000000080009a04:  ea1ff0ef          jal             ra,-352         # 0x800098a4

----------------
IN: 
Priv: 3; Virt: 0
0x0000000080009a08:  2501              sext.w          a0,a0
0x0000000080009a0a:  4785              addi            a5,zero,1
0x0000000080009a0c:  00f51863          bne             a0,a5,16        # 0x80009a1c

----------------
IN: 
Priv: 3; Virt: 0
0x0000000080009a10:  fec42503          lw              a0,-20(s0)
0x0000000080009a14:  60e2              ld              ra,24(sp)
0x0000000080009a16:  6442              ld              s0,16(sp)
0x0000000080009a18:  6105              addi            sp,sp,32
0x0000000080009a1a:  8082              ret             

----------------
IN: 
Priv: 3; Virt: 0
0x0000000080009f20:  8caa              mv              s9,a0
0x0000000080009f22:  02054563          bltz            a0,42           # 0x80009f4c

----------------
IN: 
Priv: 3; Virt: 0
0x0000000080009f26:  4a8d              addi            s5,zero,3
0x0000000080009f28:  4a25              addi            s4,zero,9
0x0000000080009f2a:  4c11              addi            s8,zero,4
0x0000000080009f2c:  85e6              mv              a1,s9
0x0000000080009f2e:  f9c40613          addi            a2,s0,-100
0x0000000080009f32:  8526              mv              a0,s1
0x0000000080009f34:  971ff0ef          jal             ra,-1680        # 0x800098a4

----------------
IN: 
Priv: 3; Virt: 0
0x0000000080009960:  4611              addi            a2,zero,4
0x0000000080009962:  85ca              mv              a1,s2
0x0000000080009964:  8552              mv              a0,s4
0x0000000080009966:  e59ff0ef          jal             ra,-424         # 0x800097be

----------------
IN: 
Priv: 3; Virt: 0
0x000000008000996a:  d179              beqz            a0,-58          # 0x80009930

----------------
IN: 
Priv: 3; Virt: 0
0x000000008000996c:  4114              lw              a3,0(a0)
0x000000008000996e:  014a4783          lbu             a5,20(s4)
0x0000000080009972:  015a4803          lbu             a6,21(s4)
0x0000000080009976:  0086d593          srli            a1,a3,8
0x000000008000997a:  017a4883          lbu             a7,23(s4)
0x000000008000997e:  016a4503          lbu             a0,22(s4)
0x0000000080009982:  0ff5f593          andi            a1,a1,255
0x0000000080009986:  0186971b          slliw           a4,a3,24
0x000000008000998a:  0106d613          srli            a2,a3,16
0x000000008000998e:  0105959b          slliw           a1,a1,16
0x0000000080009992:  0187979b          slliw           a5,a5,24
0x0000000080009996:  0108181b          slliw           a6,a6,16
0x000000008000999a:  0186d69b          srliw           a3,a3,24
0x000000008000999e:  0ff67613          andi            a2,a2,255
0x00000000800099a2:  8f4d              or              a4,a4,a1
0x00000000800099a4:  0107e7b3          or              a5,a5,a6
0x00000000800099a8:  8f55              or              a4,a4,a3
0x00000000800099aa:  0117e7b3          or              a5,a5,a7
0x00000000800099ae:  0086169b          slliw           a3,a2,8
0x00000000800099b2:  0085161b          slliw           a2,a0,8
0x00000000800099b6:  8f55              or              a4,a4,a3
0x00000000800099b8:  8fd1              or              a5,a5,a2
0x00000000800099ba:  2b31              addiw           s6,s6,12
0x00000000800099bc:  00eb093b          addw            s2,s6,a4
0x00000000800099c0:  2781              sext.w          a5,a5
0x00000000800099c2:  46bd              addi            a3,zero,15
0x00000000800099c4:  864a              mv              a2,s2
0x00000000800099c6:  2701              sext.w          a4,a4
0x00000000800099c8:  00f6eb63          bgtu            a5,a3,22        # 0x800099de

----------------
IN: 
Priv: 3; Virt: 0
0x00000000800099de:  4156063b          subw            a2,a2,s5
0x00000000800099e2:  b7a5              j               -152            # 0x8000994a

----------------
IN: 
Priv: 3; Virt: 0
0x0000000080009f38:  2501              sext.w          a0,a0
0x0000000080009f3a:  01550963          beq             a0,s5,18        # 0x80009f4c

----------------
IN: 
Priv: 3; Virt: 0
0x0000000080009f4c:  4a8d              addi            s5,zero,3
0x0000000080009f4e:  4a25              addi            s4,zero,9
0x0000000080009f50:  4c11              addi            s8,zero,4
0x0000000080009f52:  060ccb63          bltz            s9,118          # 0x80009fc8

----------------
IN: 
Priv: 3; Virt: 0
0x0000000080009f56:  864a              mv              a2,s2
0x0000000080009f58:  85e6              mv              a1,s9
0x0000000080009f5a:  8526              mv              a0,s1
0x0000000080009f5c:  d89ff0ef          jal             ra,-632         # 0x80009ce4

----------------
IN: 
Priv: 3; Virt: 0
0x0000000080009ce4:  7179              addi            sp,sp,-48
0x0000000080009ce6:  f022              sd              s0,32(sp)
0x0000000080009ce8:  ec26              sd              s1,24(sp)
0x0000000080009cea:  e84a              sd              s2,16(sp)
0x0000000080009cec:  e44e              sd              s3,8(sp)
0x0000000080009cee:  f406              sd              ra,40(sp)
0x0000000080009cf0:  1800              addi            s0,sp,48
0x0000000080009cf2:  84aa              mv              s1,a0
0x0000000080009cf4:  89ae              mv              s3,a1
0x0000000080009cf6:  8932              mv              s2,a2
0x0000000080009cf8:  d29ff0ef          jal             ra,-728         # 0x80009a20

----------------
IN: 
Priv: 3; Virt: 0
0x0000000080009a20:  1101              addi            sp,sp,-32
0x0000000080009a22:  e822              sd              s0,16(sp)
0x0000000080009a24:  ec06              sd              ra,24(sp)
0x0000000080009a26:  1000              addi            s0,sp,32
0x0000000080009a28:  feb42623          sw              a1,-20(s0)
0x0000000080009a2c:  0205c363          bltz            a1,38           # 0x80009a52

----------------
IN: 
Priv: 3; Virt: 0
0x0000000080009a30:  0035f793          andi            a5,a1,3
0x0000000080009a34:  ef99              bnez            a5,30           # 0x80009a52

----------------
IN: 
Priv: 3; Virt: 0
0x0000000080009a36:  fec40613          addi            a2,s0,-20
0x0000000080009a3a:  e6bff0ef          jal             ra,-406         # 0x800098a4

----------------
IN: 
Priv: 3; Virt: 0
0x0000000080009a3e:  2501              sext.w          a0,a0
0x0000000080009a40:  478d              addi            a5,zero,3
0x0000000080009a42:  00f51863          bne             a0,a5,16        # 0x80009a52

----------------
IN: 
Priv: 3; Virt: 0
0x0000000080009a46:  fec42503          lw              a0,-20(s0)
0x0000000080009a4a:  60e2              ld              ra,24(sp)
0x0000000080009a4c:  6442              ld              s0,16(sp)
0x0000000080009a4e:  6105              addi            sp,sp,32
0x0000000080009a50:  8082              ret             

----------------
IN: 
Priv: 3; Virt: 0
0x0000000080009cfc:  06054563          bltz            a0,106          # 0x80009d66

----------------
IN: 
Priv: 3; Virt: 0
0x0000000080009d00:  0084c783          lbu             a5,8(s1)
0x0000000080009d04:  0094c683          lbu             a3,9(s1)
0x0000000080009d08:  00b4c603          lbu             a2,11(s1)
0x0000000080009d0c:  00a4c703          lbu             a4,10(s1)
0x0000000080009d10:  0187979b          slliw           a5,a5,24
0x0000000080009d14:  0106969b          slliw           a3,a3,16
0x0000000080009d18:  8fd5              or              a5,a5,a3
0x0000000080009d1a:  8fd1              or              a5,a5,a2
0x0000000080009d1c:  0087171b          slliw           a4,a4,8
0x0000000080009d20:  8fd9              or              a5,a5,a4
0x0000000080009d22:  1782              slli            a5,a5,32
0x0000000080009d24:  9381              srli            a5,a5,32
0x0000000080009d26:  013785b3          add             a1,a5,s3
0x0000000080009d2a:  00b48533          add             a0,s1,a1
0x0000000080009d2e:  02090563          beqz            s2,42           # 0x80009d58

----------------
IN: 
Priv: 3; Virt: 0
0x0000000080009d32:  00454783          lbu             a5,4(a0)
0x0000000080009d36:  00554683          lbu             a3,5(a0)
0x0000000080009d3a:  00754603          lbu             a2,7(a0)
0x0000000080009d3e:  00654703          lbu             a4,6(a0)
0x0000000080009d42:  0187979b          slliw           a5,a5,24
0x0000000080009d46:  0106969b          slliw           a3,a3,16
0x0000000080009d4a:  8fd5              or              a5,a5,a3
0x0000000080009d4c:  8fd1              or              a5,a5,a2
0x0000000080009d4e:  0087171b          slliw           a4,a4,8
0x0000000080009d52:  8fd9              or              a5,a5,a4
0x0000000080009d54:  00f92023          sw              a5,0(s2)
0x0000000080009d58:  70a2              ld              ra,40(sp)
0x0000000080009d5a:  7402              ld              s0,32(sp)
0x0000000080009d5c:  64e2              ld              s1,24(sp)
0x0000000080009d5e:  6942              ld              s2,16(sp)
0x0000000080009d60:  69a2              ld              s3,8(sp)
0x0000000080009d62:  6145              addi            sp,sp,48
0x0000000080009d64:  8082              ret             

----------------
IN: 
Priv: 3; Virt: 0
0x0000000080009f60:  8d2a              mv              s10,a0
0x0000000080009f62:  c94d              beqz            a0,178          # 0x8000a014

----------------
IN: 
Priv: 3; Virt: 0
0x0000000080009f64:  00854583          lbu             a1,8(a0)
0x0000000080009f68:  00954703          lbu             a4,9(a0)
0x0000000080009f6c:  00b54683          lbu             a3,11(a0)
0x0000000080009f70:  00a54783          lbu             a5,10(a0)
0x0000000080009f74:  0185959b          slliw           a1,a1,24
0x0000000080009f78:  0107171b          slliw           a4,a4,16
0x0000000080009f7c:  8dd9              or              a1,a1,a4
0x0000000080009f7e:  8dd5              or              a1,a1,a3
0x0000000080009f80:  0087979b          slliw           a5,a5,8
0x0000000080009f84:  8ddd              or              a1,a1,a5
0x0000000080009f86:  f9c40613          addi            a2,s0,-100
0x0000000080009f8a:  2581              sext.w          a1,a1
0x0000000080009f8c:  8526              mv              a0,s1
0x0000000080009f8e:  de3ff0ef          jal             ra,-542         # 0x80009d70

----------------
IN: 
Priv: 3; Virt: 0
0x0000000080009d70:  7179              addi            sp,sp,-48
0x0000000080009d72:  f022              sd              s0,32(sp)
0x0000000080009d74:  ec26              sd              s1,24(sp)
0x0000000080009d76:  e84a              sd              s2,16(sp)
0x0000000080009d78:  e44e              sd              s3,8(sp)
0x0000000080009d7a:  f406              sd              ra,40(sp)
0x0000000080009d7c:  1800              addi            s0,sp,48
0x0000000080009d7e:  84aa              mv              s1,a0
0x0000000080009d80:  89ae              mv              s3,a1
0x0000000080009d82:  8932              mv              s2,a2
0x0000000080009d84:  ea2ff0ef          jal             ra,-2398        # 0x80009426

----------------
IN: 
Priv: 3; Virt: 0
0x0000000080009d88:  12054b63          bltz            a0,310          # 0x80009ebe

----------------
IN: 
Priv: 3; Virt: 0
0x0000000080009d8c:  00c4c783          lbu             a5,12(s1)
0x0000000080009d90:  00d4c683          lbu             a3,13(s1)
0x0000000080009d94:  00f4c603          lbu             a2,15(s1)
0x0000000080009d98:  00e4c703          lbu             a4,14(s1)
0x0000000080009d9c:  0187979b          slliw           a5,a5,24
0x0000000080009da0:  0106969b          slliw           a3,a3,16
0x0000000080009da4:  8fd5              or              a5,a5,a3
0x0000000080009da6:  0087171b          slliw           a4,a4,8
0x0000000080009daa:  8fd1              or              a5,a5,a2
0x0000000080009dac:  8fd9              or              a5,a5,a4
0x0000000080009dae:  013787bb          addw            a5,a5,s3
0x0000000080009db2:  0007871b          sext.w          a4,a5
0x0000000080009db6:  2501              sext.w          a0,a0
0x0000000080009db8:  0009859b          sext.w          a1,s3
0x0000000080009dbc:  10a77063          bleu            a0,a4,256       # 0x80009ebc

----------------
IN: 
Priv: 3; Virt: 0
0x0000000080009dc0:  0004c703          lbu             a4,0(s1)
0x0000000080009dc4:  0014c603          lbu             a2,1(s1)
0x0000000080009dc8:  0034c803          lbu             a6,3(s1)
0x0000000080009dcc:  0024c683          lbu             a3,2(s1)
0x0000000080009dd0:  0106161b          slliw           a2,a2,16
0x0000000080009dd4:  0187171b          slliw           a4,a4,24
0x0000000080009dd8:  8f51              or              a4,a4,a2
0x0000000080009dda:  0086969b          slliw           a3,a3,8
0x0000000080009dde:  01076733          or              a4,a4,a6
0x0000000080009de2:  8f55              or              a4,a4,a3
0x0000000080009de4:  9d1d              subw            a0,a0,a5
0x0000000080009de6:  d00e06b7          lui             a3,-804388864
0x0000000080009dea:  0005061b          sext.w          a2,a0
0x0000000080009dee:  2701              sext.w          a4,a4
0x0000000080009df0:  1502              slli            a0,a0,32
0x0000000080009df2:  eed68693          addi            a3,a3,-275
0x0000000080009df6:  9101              srli            a0,a0,32
0x0000000080009df8:  06d70363          beq             a4,a3,102       # 0x80009e5e

----------------
IN: 
Priv: 3; Virt: 0
0x0000000080009e5e:  0409cf63          bltz            s3,94           # 0x80009ebc

----------------
IN: 
Priv: 3; Virt: 0
0x0000000080009e62:  0144c703          lbu             a4,20(s1)
0x0000000080009e66:  0154c803          lbu             a6,21(s1)
0x0000000080009e6a:  0174c883          lbu             a7,23(s1)
0x0000000080009e6e:  0164c683          lbu             a3,22(s1)
0x0000000080009e72:  0187171b          slliw           a4,a4,24
0x0000000080009e76:  0108181b          slliw           a6,a6,16
0x0000000080009e7a:  01076733          or              a4,a4,a6
0x0000000080009e7e:  0086969b          slliw           a3,a3,8
0x0000000080009e82:  01176733          or              a4,a4,a7
0x0000000080009e86:  8f55              or              a4,a4,a3
0x0000000080009e88:  2701              sext.w          a4,a4
0x0000000080009e8a:  46c1              addi            a3,zero,16
0x0000000080009e8c:  fae6fae3          bleu            a4,a3,-76       # 0x80009e40

----------------
IN: 
Priv: 3; Virt: 0
0x0000000080009e90:  0204c703          lbu             a4,32(s1)
0x0000000080009e94:  0214c803          lbu             a6,33(s1)
0x0000000080009e98:  0234c883          lbu             a7,35(s1)
0x0000000080009e9c:  0224c683          lbu             a3,34(s1)
0x0000000080009ea0:  0187171b          slliw           a4,a4,24
0x0000000080009ea4:  0108181b          slliw           a6,a6,16
0x0000000080009ea8:  01076733          or              a4,a4,a6
0x0000000080009eac:  01176733          or              a4,a4,a7
0x0000000080009eb0:  0086969b          slliw           a3,a3,8
0x0000000080009eb4:  8f55              or              a4,a4,a3
0x0000000080009eb6:  2701              sext.w          a4,a4
0x0000000080009eb8:  02e5e263          bgtu            a4,a1,36        # 0x80009edc

----------------
IN: 
Priv: 3; Virt: 0
0x0000000080009edc:  9f0d              subw            a4,a4,a1
0x0000000080009ede:  0007069b          sext.w          a3,a4
0x0000000080009ee2:  f4c6ffe3          bleu            a2,a3,-162      # 0x80009e40

----------------
IN: 
Priv: 3; Virt: 0
0x0000000080009e40:  1782              slli            a5,a5,32
0x0000000080009e42:  9381              srli            a5,a5,32
0x0000000080009e44:  94be              add             s1,s1,a5
0x0000000080009e46:  862a              mv              a2,a0
0x0000000080009e48:  4581              mv              a1,zero
0x0000000080009e4a:  8526              mv              a0,s1
0x0000000080009e4c:  8cff70ef          jal             ra,-34610       # 0x8000171a

----------------
IN: 
Priv: 3; Virt: 0
0x000000008000171a:  1141              addi            sp,sp,-16
0x000000008000171c:  e422              sd              s0,8(sp)
0x000000008000171e:  0800              addi            s0,sp,16
0x0000000080001720:  c20d              beqz            a2,34           # 0x80001742

----------------
IN: 
Priv: 3; Virt: 0
0x0000000080001722:  87aa              mv              a5,a0
0x0000000080001724:  0ff5f593          andi            a1,a1,255
0x0000000080001728:  962a              add             a2,a2,a0
0x000000008000172a:  a019              j               6               # 0x80001730

----------------
IN: 
Priv: 3; Virt: 0
0x0000000080001730:  0007c703          lbu             a4,0(a5)
0x0000000080001734:  853e              mv              a0,a5
0x0000000080001736:  0785              addi            a5,a5,1
0x0000000080001738:  feb71ae3          bne             a4,a1,-12       # 0x8000172c

----------------
IN: 
Priv: 3; Virt: 0
0x000000008000172c:  00f60b63          beq             a2,a5,22        # 0x80001742

----------------
IN: 
Priv: 3; Virt: 0
0x000000008000173c:  6422              ld              s0,8(sp)
0x000000008000173e:  0141              addi            sp,sp,16
0x0000000080001740:  8082              ret             

----------------
IN: 
Priv: 3; Virt: 0
0x0000000080009e50:  c14d              beqz            a0,162          # 0x80009ef2

----------------
IN: 
Priv: 3; Virt: 0
0x0000000080009e52:  06090b63          beqz            s2,118          # 0x80009ec8

----------------
IN: 
Priv: 3; Virt: 0
0x0000000080009e56:  8d05              sub             a0,a0,s1
0x0000000080009e58:  00a92023          sw              a0,0(s2)
0x0000000080009e5c:  a0b5              j               108             # 0x80009ec8

----------------
IN: 
Priv: 3; Virt: 0
0x0000000080009ec8:  70a2              ld              ra,40(sp)
0x0000000080009eca:  7402              ld              s0,32(sp)
0x0000000080009ecc:  6942              ld              s2,16(sp)
0x0000000080009ece:  69a2              ld              s3,8(sp)
0x0000000080009ed0:  8526              mv              a0,s1
0x0000000080009ed2:  64e2              ld              s1,24(sp)
0x0000000080009ed4:  6145              addi            sp,sp,48
0x0000000080009ed6:  8082              ret             

----------------
IN: 
Priv: 3; Virt: 0
0x0000000080009f92:  c509              beqz            a0,10           # 0x80009f9c

----------------
IN: 
Priv: 3; Virt: 0
0x0000000080009f94:  f9c42783          lw              a5,-100(s0)
0x0000000080009f98:  07378063          beq             a5,s3,96        # 0x80009ff8

----------------
IN: 
Priv: 3; Virt: 0
0x0000000080009f9c:  85e6              mv              a1,s9
0x0000000080009f9e:  8526              mv              a0,s1
0x0000000080009fa0:  a81ff0ef          jal             ra,-1408        # 0x80009a20

----------------
IN: 
Priv: 3; Virt: 0
0x0000000080009fa4:  8caa              mv              s9,a0
0x0000000080009fa6:  02054163          bltz            a0,34           # 0x80009fc8

----------------
IN: 
Priv: 3; Virt: 0
0x0000000080009faa:  85e6              mv              a1,s9
0x0000000080009fac:  f9c40613          addi            a2,s0,-100
0x0000000080009fb0:  8526              mv              a0,s1
0x0000000080009fb2:  8f3ff0ef          jal             ra,-1806        # 0x800098a4

----------------
IN: 
Priv: 3; Virt: 0
0x0000000080009fb6:  2501              sext.w          a0,a0
0x0000000080009fb8:  f9550de3          beq             a0,s5,-102      # 0x80009f52

----------------
IN: 
Priv: 3; Virt: 0
0x0000000080009f52:  060ccb63          bltz            s9,118          # 0x80009fc8

----------------
IN: 
Priv: 3; Virt: 0
0x0000000080009ff8:  864e              mv              a2,s3
0x0000000080009ffa:  85da              mv              a1,s6
0x0000000080009ffc:  eecf70ef          jal             ra,-35092       # 0x800016e8

----------------
IN: 
Priv: 3; Virt: 0
0x00000000800016e8:  1141              addi            sp,sp,-16
0x00000000800016ea:  e422              sd              s0,8(sp)
0x00000000800016ec:  0800              addi            s0,sp,16
0x00000000800016ee:  c215              beqz            a2,36           # 0x80001712

----------------
IN: 
Priv: 3; Virt: 0
0x00000000800016f0:  962e              add             a2,a2,a1
0x00000000800016f2:  a019              j               6               # 0x800016f8

----------------
IN: 
Priv: 3; Virt: 0
0x00000000800016f8:  00054783          lbu             a5,0(a0)
0x00000000800016fc:  0005c703          lbu             a4,0(a1)
0x0000000080001700:  0505              addi            a0,a0,1
0x0000000080001702:  0585              addi            a1,a1,1
0x0000000080001704:  fee788e3          beq             a5,a4,-16       # 0x800016f4

----------------
IN: 
Priv: 3; Virt: 0
0x00000000800016f4:  00c58f63          beq             a1,a2,30        # 0x80001712

----------------
IN: 
Priv: 3; Virt: 0
0x0000000080001712:  6422              ld              s0,8(sp)
0x0000000080001714:  4501              mv              a0,zero
0x0000000080001716:  0141              addi            sp,sp,16
0x0000000080001718:  8082              ret             

----------------
IN: 
Priv: 3; Virt: 0
0x000000008000a000:  fd51              bnez            a0,-100         # 0x80009f9c

----------------
IN: 
Priv: 3; Virt: 0
0x000000008000a002:  fc0b88e3          beqz            s7,-48          # 0x80009fd2

----------------
IN: 
Priv: 3; Virt: 0
0x000000008000a006:  019ba023          sw              s9,0(s7)
0x000000008000a00a:  b7e1              j               -56             # 0x80009fd2

----------------
IN: 
Priv: 3; Virt: 0
0x0000000080009fd2:  70a6              ld              ra,104(sp)
0x0000000080009fd4:  7406              ld              s0,96(sp)
0x0000000080009fd6:  64e6              ld              s1,88(sp)
0x0000000080009fd8:  6946              ld              s2,80(sp)
0x0000000080009fda:  69a6              ld              s3,72(sp)
0x0000000080009fdc:  6a06              ld              s4,64(sp)
0x0000000080009fde:  7ae2              ld              s5,56(sp)
0x0000000080009fe0:  7b42              ld              s6,48(sp)
0x0000000080009fe2:  7ba2              ld              s7,40(sp)
0x0000000080009fe4:  7c02              ld              s8,32(sp)
0x0000000080009fe6:  6ce2              ld              s9,24(sp)
0x0000000080009fe8:  856a              mv              a0,s10
0x0000000080009fea:  6d42              ld              s10,16(sp)
0x0000000080009fec:  6165              addi            sp,sp,112
0x0000000080009fee:  8082              ret             

----------------
IN: 
Priv: 3; Virt: 0
0x000000008000a524:  c12d              beqz            a0,98           # 0x8000a586

----------------
IN: 
Priv: 3; Virt: 0
0x000000008000a526:  0144c783          lbu             a5,20(s1)
0x000000008000a52a:  0154c683          lbu             a3,21(s1)
0x000000008000a52e:  0174c603          lbu             a2,23(s1)
0x000000008000a532:  0164c703          lbu             a4,22(s1)
0x000000008000a536:  0187979b          slliw           a5,a5,24
0x000000008000a53a:  0106969b          slliw           a3,a3,16
0x000000008000a53e:  8fd5              or              a5,a5,a3
0x000000008000a540:  0087171b          slliw           a4,a4,8
0x000000008000a544:  8fd1              or              a5,a5,a2
0x000000008000a546:  8fd9              or              a5,a5,a4
0x000000008000a548:  2781              sext.w          a5,a5
0x000000008000a54a:  473d              addi            a4,zero,15
0x000000008000a54c:  02f76c63          bgtu            a5,a4,56        # 0x8000a584

----------------
IN: 
Priv: 3; Virt: 0
0x000000008000a584:  0531              addi            a0,a0,12
0x000000008000a586:  70a2              ld              ra,40(sp)
0x000000008000a588:  7402              ld              s0,32(sp)
0x000000008000a58a:  64e2              ld              s1,24(sp)
0x000000008000a58c:  6145              addi            sp,sp,48
0x000000008000a58e:  8082              ret             

----------------
IN: 
Priv: 3; Virt: 0
0x000000008000b076:  8652              mv              a2,s4
0x000000008000b078:  f571              bnez            a0,-52          # 0x8000b044

----------------
IN: 
Priv: 3; Virt: 0
0x000000008000b044:  fbc42583          lw              a1,-68(s0)
0x000000008000b048:  d0bff0ef          jal             ra,-758         # 0x8000ad52

----------------
IN: 
Priv: 3; Virt: 0
0x000000008000ad52:  7139              addi            sp,sp,-64
0x000000008000ad54:  f822              sd              s0,48(sp)
0x000000008000ad56:  f426              sd              s1,40(sp)
0x000000008000ad58:  f04a              sd              s2,32(sp)
0x000000008000ad5a:  ec4e              sd              s3,24(sp)
0x000000008000ad5c:  e852              sd              s4,16(sp)
0x000000008000ad5e:  e456              sd              s5,8(sp)
0x000000008000ad60:  fc06              sd              ra,56(sp)
0x000000008000ad62:  0080              addi            s0,sp,64
0x000000008000ad64:  892a              mv              s2,a0
0x000000008000ad66:  8532              mv              a0,a2
0x000000008000ad68:  8a32              mv              s4,a2
0x000000008000ad6a:  84ae              mv              s1,a1
0x000000008000ad6c:  fc4f60ef          jal             ra,-38972       # 0x80001530

----------------
IN: 
Priv: 3; Virt: 0
0x000000008000ad70:  00050a9b          sext.w          s5,a0
0x000000008000ad74:  0015099b          addiw           s3,a0,1
0x000000008000ad78:  0154df63          ble             s5,s1,30        # 0x8000ad96

----------------
IN: 
Priv: 3; Virt: 0
0x000000008000ad96:  85ca              mv              a1,s2
0x000000008000ad98:  864e              mv              a2,s3
0x000000008000ad9a:  8552              mv              a0,s4
0x000000008000ad9c:  94df60ef          jal             ra,-38580       # 0x800016e8

----------------
IN: 
Priv: 3; Virt: 0
0x0000000080001708:  6422              ld              s0,8(sp)
0x000000008000170a:  40e7853b          subw            a0,a5,a4
0x000000008000170e:  0141              addi            sp,sp,16
0x0000000080001710:  8082              ret             

----------------
IN: 
Priv: 3; Virt: 0
0x000000008000ada0:  87aa              mv              a5,a0
0x000000008000ada2:  8626              mv              a2,s1
0x000000008000ada4:  854a              mv              a0,s2
0x000000008000ada6:  4581              mv              a1,zero
0x000000008000ada8:  fbf9              bnez            a5,-42          # 0x8000ad7e

----------------
IN: 
Priv: 3; Virt: 0
0x000000008000ad7e:  99df60ef          jal             ra,-38500       # 0x8000171a

----------------
IN: 
Priv: 3; Virt: 0
0x000000008000ad82:  34fd              addiw           s1,s1,-1
0x000000008000ad84:  41250933          sub             s2,a0,s2
0x000000008000ad88:  412484bb          subw            s1,s1,s2
0x000000008000ad8c:  c10d              beqz            a0,34           # 0x8000adae

----------------
IN: 
Priv: 3; Virt: 0
0x000000008000ad8e:  00150913          addi            s2,a0,1
0x000000008000ad92:  0154ce63          bgt             s5,s1,28        # 0x8000adae

----------------
IN: 
Priv: 3; Virt: 0
0x000000008000adae:  4501              mv              a0,zero
0x000000008000adb0:  70e2              ld              ra,56(sp)
0x000000008000adb2:  7442              ld              s0,48(sp)
0x000000008000adb4:  74a2              ld              s1,40(sp)
0x000000008000adb6:  7902              ld              s2,32(sp)
0x000000008000adb8:  69e2              ld              s3,24(sp)
0x000000008000adba:  6a42              ld              s4,16(sp)
0x000000008000adbc:  6aa2              ld              s5,8(sp)
0x000000008000adbe:  6121              addi            sp,sp,64
0x000000008000adc0:  8082              ret             

----------------
IN: 
Priv: 3; Virt: 0
0x000000008000b04c:  ed05              bnez            a0,56           # 0x8000b084

----------------
IN: 
Priv: 3; Virt: 0
0x000000008000b04e:  85a6              mv              a1,s1
0x000000008000b050:  4601              mv              a2,zero
0x000000008000b052:  854a              mv              a0,s2
0x000000008000b054:  a03fe0ef          jal             ra,-5630        # 0x80009a56

----------------
IN: 
Priv: 3; Virt: 0
0x0000000080009b02:  fab42e23          sw              a1,-68(s0)
0x0000000080009b06:  0035f793          andi            a5,a1,3
0x0000000080009b0a:  e385              bnez            a5,32           # 0x80009b2a

----------------
IN: 
Priv: 3; Virt: 0
0x0000000080009b0c:  fbc40613          addi            a2,s0,-68
0x0000000080009b10:  d95ff0ef          jal             ra,-620         # 0x800098a4

----------------
IN: 
Priv: 3; Virt: 0
0x0000000080009b14:  2501              sext.w          a0,a0
0x0000000080009b16:  4785              addi            a5,zero,1
0x0000000080009b18:  00f51963          bne             a0,a5,18        # 0x80009b2a

----------------
IN: 
Priv: 3; Virt: 0
0x0000000080009b1c:  fbc42483          lw              s1,-68(s0)
0x0000000080009b20:  fa942c23          sw              s1,-72(s0)
0x0000000080009b24:  f404dae3          bgez            s1,-172         # 0x80009a78

----------------
IN: 
Priv: 3; Virt: 0
0x0000000080009a78:  85a6              mv              a1,s1
0x0000000080009a7a:  fb840613          addi            a2,s0,-72
0x0000000080009a7e:  854e              mv              a0,s3
0x0000000080009a80:  e25ff0ef          jal             ra,-476         # 0x800098a4

----------------
IN: 
Priv: 3; Virt: 0
0x0000000080009a98:  fb842483          lw              s1,-72(s0)
0x0000000080009a9c:  fb840613          addi            a2,s0,-72
0x0000000080009aa0:  854e              mv              a0,s3
0x0000000080009aa2:  85a6              mv              a1,s1
0x0000000080009aa4:  e01ff0ef          jal             ra,-512         # 0x800098a4

----------------
IN: 
Priv: 3; Virt: 0
0x0000000080009aa8:  2501              sext.w          a0,a0
0x0000000080009aaa:  ff6513e3          bne             a0,s6,-26       # 0x80009a90

----------------
IN: 
Priv: 3; Virt: 0
0x000000008000b058:  84aa              mv              s1,a0
0x000000008000b05a:  02054563          bltz            a0,42           # 0x8000b084

----------------
IN: 
Priv: 3; Virt: 0
0x0000000080009948:  4611              addi            a2,zero,4
0x000000008000994a:  85d6              mv              a1,s5
0x000000008000994c:  8552              mv              a0,s4
0x000000008000994e:  e71ff0ef          jal             ra,-400         # 0x800097be

----------------
IN: 
Priv: 3; Virt: 0
0x0000000080009aae:  fe0905e3          beqz            s2,-22          # 0x80009a98

----------------
IN: 
Priv: 3; Virt: 0
0x000000008000ad7c:  a80d              j               50              # 0x8000adae

----------------
IN: 
Priv: 3; Virt: 0
0x0000000080009fbc:  f9c42c83          lw              s9,-100(s0)
0x0000000080009fc0:  03451863          bne             a0,s4,48        # 0x80009ff0

----------------
IN: 
Priv: 3; Virt: 0
0x0000000080009ff0:  fb850de3          beq             a0,s8,-70       # 0x80009faa

----------------
IN: 
Priv: 3; Virt: 0
0x0000000080009ff4:  5cfd              addi            s9,zero,-1
0x0000000080009ff6:  bfc9              j               -46             # 0x80009fc8

----------------
IN: 
Priv: 3; Virt: 0
0x0000000080009fc8:  4d01              mv              s10,zero
0x0000000080009fca:  00090463          beqz            s2,8            # 0x80009fd2

----------------
IN: 
Priv: 3; Virt: 0
0x0000000080009fce:  01992023          sw              s9,0(s2)
0x0000000080009fd2:  70a6              ld              ra,104(sp)
0x0000000080009fd4:  7406              ld              s0,96(sp)
0x0000000080009fd6:  64e6              ld              s1,88(sp)
0x0000000080009fd8:  6946              ld              s2,80(sp)
0x0000000080009fda:  69a6              ld              s3,72(sp)
0x0000000080009fdc:  6a06              ld              s4,64(sp)
0x0000000080009fde:  7ae2              ld              s5,56(sp)
0x0000000080009fe0:  7b42              ld              s6,48(sp)
0x0000000080009fe2:  7ba2              ld              s7,40(sp)
0x0000000080009fe4:  7c02              ld              s8,32(sp)
0x0000000080009fe6:  6ce2              ld              s9,24(sp)
0x0000000080009fe8:  856a              mv              a0,s10
0x0000000080009fea:  6d42              ld              s10,16(sp)
0x0000000080009fec:  6165              addi            sp,sp,112
0x0000000080009fee:  8082              ret             

----------------
IN: 
Priv: 3; Virt: 0
0x000000008000a586:  70a2              ld              ra,40(sp)
0x000000008000a588:  7402              ld              s0,32(sp)
0x000000008000a58a:  64e2              ld              s1,24(sp)
0x000000008000a58c:  6145              addi            sp,sp,48
0x000000008000a58e:  8082              ret             

----------------
IN: 
Priv: 3; Virt: 0
0x000000008000b07a:  fbc42503          lw              a0,-68(s0)
0x000000008000b07e:  01554463          bgt             s5,a0,8         # 0x8000b086

----------------
IN: 
Priv: 3; Virt: 0
0x000000008000b082:  f571              bnez            a0,-52          # 0x8000b04e

----------------
IN: 
Priv: 3; Virt: 0
0x0000000080009f3e:  f9c42c83          lw              s9,-100(s0)
0x0000000080009f42:  0d450563          beq             a0,s4,202       # 0x8000a00c

----------------
IN: 
Priv: 3; Virt: 0
0x0000000080009f46:  ff8503e3          beq             a0,s8,-26       # 0x80009f2c

----------------
IN: 
Priv: 3; Virt: 0
0x0000000080009f4a:  5cfd              addi            s9,zero,-1
0x0000000080009f4c:  4a8d              addi            s5,zero,3
0x0000000080009f4e:  4a25              addi            s4,zero,9
0x0000000080009f50:  4c11              addi            s8,zero,4
0x0000000080009f52:  060ccb63          bltz            s9,118          # 0x80009fc8

----------------
IN: 
Priv: 3; Virt: 0
0x0000000080009aec:  fb842483          lw              s1,-72(s0)
0x0000000080009af0:  0004d763          bgez            s1,14           # 0x80009afe

----------------
IN: 
Priv: 3; Virt: 0
0x0000000080009afe:  54fd              addi            s1,zero,-1
0x0000000080009b00:  bfd9              j               -42             # 0x80009ad6

----------------
IN: 
Priv: 3; Virt: 0
0x000000008000b084:  8526              mv              a0,s1
0x000000008000b086:  60a6              ld              ra,72(sp)
0x000000008000b088:  6406              ld              s0,64(sp)
0x000000008000b08a:  74e2              ld              s1,56(sp)
0x000000008000b08c:  7942              ld              s2,48(sp)
0x000000008000b08e:  79a2              ld              s3,40(sp)
0x000000008000b090:  7a02              ld              s4,32(sp)
0x000000008000b092:  6ae2              ld              s5,24(sp)
0x000000008000b094:  6161              addi            sp,sp,80
0x000000008000b096:  8082              ret             

----------------
IN: 
Priv: 3; Virt: 0
0x000000008000c246:  fe0549e3          bltz            a0,-14          # 0x8000c238

----------------
IN: 
Priv: 3; Virt: 0
0x000000008000c238:  6890              ld              a2,16(s1)
0x000000008000c23a:  04c1              addi            s1,s1,16
0x000000008000c23c:  c21d              beqz            a2,38           # 0x8000c262

----------------
IN: 
Priv: 3; Virt: 0
0x000000008000c262:  c1800513          addi            a0,zero,-1000
0x000000008000c266:  70a2              ld              ra,40(sp)
0x000000008000c268:  7402              ld              s0,32(sp)
0x000000008000c26a:  64e2              ld              s1,24(sp)
0x000000008000c26c:  6942              ld              s2,16(sp)
0x000000008000c26e:  69a2              ld              s3,8(sp)
0x000000008000c270:  6a02              ld              s4,0(sp)
0x000000008000c272:  6145              addi            sp,sp,48
0x000000008000c274:  8082              ret             

----------------
IN: 
Priv: 3; Virt: 0
0x0000000080002860:  00011a97          auipc           s5,69632        # 0x80013860
0x0000000080002864:  808a8a93          addi            s5,s5,-2040
0x0000000080002868:  00054a63          bltz            a0,20           # 0x8000287c

----------------
IN: 
Priv: 3; Virt: 0
0x000000008000287c:  85a6              mv              a1,s1
0x000000008000287e:  86d2              mv              a3,s4
0x0000000080002880:  0000e617          auipc           a2,57344        # 0x80010880
0x0000000080002884:  03060613          addi            a2,a2,48
0x0000000080002888:  854a              mv              a0,s2
0x000000008000288a:  71f070ef          jal             ra,32542        # 0x8000a7a8

----------------
IN: 
Priv: 3; Virt: 0
0x000000008000a7a8:  7179              addi            sp,sp,-48
0x000000008000a7aa:  f406              sd              ra,40(sp)
0x000000008000a7ac:  f022              sd              s0,32(sp)
0x000000008000a7ae:  ec26              sd              s1,24(sp)
0x000000008000a7b0:  e84a              sd              s2,16(sp)
0x000000008000a7b2:  e44e              sd              s3,8(sp)
0x000000008000a7b4:  e052              sd              s4,0(sp)
0x000000008000a7b6:  1800              addi            s0,sp,48
0x000000008000a7b8:  892a              mv              s2,a0
0x000000008000a7ba:  8532              mv              a0,a2
0x000000008000a7bc:  8a36              mv              s4,a3
0x000000008000a7be:  84b2              mv              s1,a2
0x000000008000a7c0:  89ae              mv              s3,a1
0x000000008000a7c2:  d6ff60ef          jal             ra,-37522       # 0x80001530

----------------
IN: 
Priv: 3; Virt: 0
0x000000008000a7c6:  8752              mv              a4,s4
0x000000008000a7c8:  0005069b          sext.w          a3,a0
0x000000008000a7cc:  8626              mv              a2,s1
0x000000008000a7ce:  85ce              mv              a1,s3
0x000000008000a7d0:  854a              mv              a0,s2
0x000000008000a7d2:  d3fff0ef          jal             ra,-706         # 0x8000a510

----------------
IN: 
Priv: 3; Virt: 0
0x000000008000a7d6:  70a2              ld              ra,40(sp)
0x000000008000a7d8:  7402              ld              s0,32(sp)
0x000000008000a7da:  64e2              ld              s1,24(sp)
0x000000008000a7dc:  6942              ld              s2,16(sp)
0x000000008000a7de:  69a2              ld              s3,8(sp)
0x000000008000a7e0:  6a02              ld              s4,0(sp)
0x000000008000a7e2:  6145              addi            sp,sp,48
0x000000008000a7e4:  8082              ret             

----------------
IN: 
Priv: 3; Virt: 0
0x000000008000288e:  85aa              mv              a1,a0
0x0000000080002890:  c909              beqz            a0,18           # 0x800028a2

----------------
IN: 
Priv: 3; Virt: 0
0x0000000080002892:  04000613          addi            a2,zero,64
0x0000000080002896:  00010517          auipc           a0,65536        # 0x80012896
0x000000008000289a:  85a50513          addi            a0,a0,-1958
0x000000008000289e:  d15fe0ef          jal             ra,-4844        # 0x800015b2

----------------
IN: 
Priv: 3; Virt: 0
0x00000000800015b2:  1141              addi            sp,sp,-16
0x00000000800015b4:  e422              sd              s0,8(sp)
0x00000000800015b6:  0800              addi            s0,sp,16
0x00000000800015b8:  ce09              beqz            a2,26           # 0x800015d2

----------------
IN: 
Priv: 3; Virt: 0
0x00000000800015ba:  962a              add             a2,a2,a0
0x00000000800015bc:  87aa              mv              a5,a0
0x00000000800015be:  a029              j               10              # 0x800015c8

----------------
IN: 
Priv: 3; Virt: 0
0x00000000800015c8:  0005c703          lbu             a4,0(a1)
0x00000000800015cc:  0785              addi            a5,a5,1
0x00000000800015ce:  0585              addi            a1,a1,1
0x00000000800015d0:  fb65              bnez            a4,-16          # 0x800015c0

----------------
IN: 
Priv: 3; Virt: 0
0x00000000800015c0:  fee78fa3          sb              a4,-1(a5)
0x00000000800015c4:  00c78763          beq             a5,a2,14        # 0x800015d2

----------------
IN: 
Priv: 3; Virt: 0
0x00000000800015d2:  6422              ld              s0,8(sp)
0x00000000800015d4:  0141              addi            sp,sp,16
0x00000000800015d6:  8082              ret             

----------------
IN: 
Priv: 3; Virt: 0
0x00000000800028a2:  000ab783          ld              a5,0(s5)
0x00000000800028a6:  00010a97          auipc           s5,65536        # 0x800128a6
0x00000000800028aa:  842a8a93          addi            s5,s5,-1982
0x00000000800028ae:  cb91              beqz            a5,20           # 0x800028c2

----------------
IN: 
Priv: 3; Virt: 0
0x00000000800028c2:  0000e597          auipc           a1,57344        # 0x800108c2
0x00000000800028c6:  ff658593          addi            a1,a1,-10
0x00000000800028ca:  854a              mv              a0,s2
0x00000000800028cc:  5cb070ef          jal             ra,32202        # 0x8000a696

----------------
IN: 
Priv: 3; Virt: 0
0x000000008000a5e4:  40990bb3          sub             s7,s2,s1
0x000000008000a5e8:  865e              mv              a2,s7
0x000000008000a5ea:  02f00593          addi            a1,zero,47
0x000000008000a5ee:  8526              mv              a0,s1
0x000000008000a5f0:  92af70ef          jal             ra,-36566       # 0x8000171a

----------------
IN: 
Priv: 3; Virt: 0
0x0000000080001742:  6422              ld              s0,8(sp)
0x0000000080001744:  4501              mv              a0,zero
0x0000000080001746:  0141              addi            sp,sp,16
0x0000000080001748:  8082              ret             

----------------
IN: 
Priv: 3; Virt: 0
0x000000008000a5f4:  8b2a              mv              s6,a0
0x000000008000a5f6:  cd41              beqz            a0,152          # 0x8000a68e

----------------
IN: 
Priv: 3; Virt: 0
0x000000008000a68e:  8b4a              mv              s6,s2
0x000000008000a690:  b7b5              j               -148            # 0x8000a5fc

----------------
IN: 
Priv: 3; Virt: 0
0x000000008000a5fc:  85d2              mv              a1,s4
0x000000008000a5fe:  000b869b          sext.w          a3,s7
0x000000008000a602:  8626              mv              a2,s1
0x000000008000a604:  8556              mv              a0,s5
0x000000008000a606:  c39ff0ef          jal             ra,-968         # 0x8000a23e

----------------
IN: 
Priv: 3; Virt: 0
0x000000008000a23e:  715d              addi            sp,sp,-80
0x000000008000a240:  e0a2              sd              s0,64(sp)
0x000000008000a242:  fc26              sd              s1,56(sp)
0x000000008000a244:  f44e              sd              s3,40(sp)
0x000000008000a246:  f052              sd              s4,32(sp)
0x000000008000a248:  e85a              sd              s6,16(sp)
0x000000008000a24a:  e486              sd              ra,72(sp)
0x000000008000a24c:  f84a              sd              s2,48(sp)
0x000000008000a24e:  ec56              sd              s5,24(sp)
0x000000008000a250:  0880              addi            s0,sp,80
0x000000008000a252:  89aa              mv              s3,a0
0x000000008000a254:  84ae              mv              s1,a1
0x000000008000a256:  8b32              mv              s6,a2
0x000000008000a258:  8a36              mv              s4,a3
0x000000008000a25a:  9ccff0ef          jal             ra,-3636        # 0x80009426

----------------
IN: 
Priv: 3; Virt: 0
0x000000008000a25e:  08054863          bltz            a0,144          # 0x8000a2ee

----------------
IN: 
Priv: 3; Virt: 0
0x000000008000a262:  fa042c23          sw              zero,-72(s0)
0x000000008000a266:  4a85              addi            s5,zero,1
0x000000008000a268:  0404ca63          bltz            s1,84           # 0x8000a2bc

----------------
IN: 
Priv: 3; Virt: 0
0x000000008000a26c:  85a6              mv              a1,s1
0x000000008000a26e:  fb840613          addi            a2,s0,-72
0x000000008000a272:  854e              mv              a0,s3
0x000000008000a274:  fe2ff0ef          jal             ra,-2078        # 0x80009a56

----------------
IN: 
Priv: 3; Virt: 0
0x0000000080009acc:  00092783          lw              a5,0(s2)
0x0000000080009ad0:  2785              addiw           a5,a5,1
0x0000000080009ad2:  00f92023          sw              a5,0(s2)
0x0000000080009ad6:  60a6              ld              ra,72(sp)
0x0000000080009ad8:  6406              ld              s0,64(sp)
0x0000000080009ada:  7942              ld              s2,48(sp)
0x0000000080009adc:  79a2              ld              s3,40(sp)
0x0000000080009ade:  7a02              ld              s4,32(sp)
0x0000000080009ae0:  6ae2              ld              s5,24(sp)
0x0000000080009ae2:  6b42              ld              s6,16(sp)
0x0000000080009ae4:  8526              mv              a0,s1
0x0000000080009ae6:  74e2              ld              s1,56(sp)
0x0000000080009ae8:  6161              addi            sp,sp,80
0x0000000080009aea:  8082              ret             

----------------
IN: 
Priv: 3; Virt: 0
0x000000008000a278:  fb842783          lw              a5,-72(s0)
0x000000008000a27c:  84aa              mv              s1,a0
0x000000008000a27e:  04054a63          bltz            a0,84           # 0x8000a2d2

----------------
IN: 
Priv: 3; Virt: 0
0x000000008000a282:  0407ca63          bltz            a5,84           # 0x8000a2d6

----------------
IN: 
Priv: 3; Virt: 0
0x000000008000a286:  ff5793e3          bne             a5,s5,-26       # 0x8000a26c

----------------
IN: 
Priv: 3; Virt: 0
0x000000008000a28a:  fbc40613          addi            a2,s0,-68
0x000000008000a28e:  85a6              mv              a1,s1
0x000000008000a290:  854e              mv              a0,s3
0x000000008000a292:  ed7ff0ef          jal             ra,-298         # 0x8000a168

----------------
IN: 
Priv: 3; Virt: 0
0x000000008000a168:  715d              addi            sp,sp,-80
0x000000008000a16a:  e0a2              sd              s0,64(sp)
0x000000008000a16c:  fc26              sd              s1,56(sp)
0x000000008000a16e:  f44e              sd              s3,40(sp)
0x000000008000a170:  f052              sd              s4,32(sp)
0x000000008000a172:  e486              sd              ra,72(sp)
0x000000008000a174:  f84a              sd              s2,48(sp)
0x000000008000a176:  ec56              sd              s5,24(sp)
0x000000008000a178:  e85a              sd              s6,16(sp)
0x000000008000a17a:  e45e              sd              s7,8(sp)
0x000000008000a17c:  0880              addi            s0,sp,80
0x000000008000a17e:  00854903          lbu             s2,8(a0)
0x000000008000a182:  00954b83          lbu             s7,9(a0)
0x000000008000a186:  00a54a83          lbu             s5,10(a0)
0x000000008000a18a:  00b54b03          lbu             s6,11(a0)
0x000000008000a18e:  84aa              mv              s1,a0
0x000000008000a190:  8a2e              mv              s4,a1
0x000000008000a192:  89b2              mv              s3,a2
0x000000008000a194:  a92ff0ef          jal             ra,-3438        # 0x80009426

----------------
IN: 
Priv: 3; Virt: 0
0x000000008000a198:  08054463          bltz            a0,136          # 0x8000a220

----------------
IN: 
Priv: 3; Virt: 0
0x000000008000a19c:  85d2              mv              a1,s4
0x000000008000a19e:  8526              mv              a0,s1
0x000000008000a1a0:  84bff0ef          jal             ra,-1974        # 0x800099ea

----------------
IN: 
Priv: 3; Virt: 0
0x000000008000a1a4:  06054e63          bltz            a0,124          # 0x8000a220

----------------
IN: 
Priv: 3; Virt: 0
0x000000008000a1a8:  0144c703          lbu             a4,20(s1)
0x000000008000a1ac:  0154c603          lbu             a2,21(s1)
0x000000008000a1b0:  0189179b          slliw           a5,s2,24
0x000000008000a1b4:  010b9b9b          slliw           s7,s7,16
0x000000008000a1b8:  0177e7b3          or              a5,a5,s7
0x000000008000a1bc:  0174c583          lbu             a1,23(s1)
0x000000008000a1c0:  0164c683          lbu             a3,22(s1)
0x000000008000a1c4:  0167e7b3          or              a5,a5,s6
0x000000008000a1c8:  008a9a9b          slliw           s5,s5,8
0x000000008000a1cc:  0187171b          slliw           a4,a4,24
0x000000008000a1d0:  0106161b          slliw           a2,a2,16
0x000000008000a1d4:  0157e7b3          or              a5,a5,s5
0x000000008000a1d8:  8f51              or              a4,a4,a2
0x000000008000a1da:  1782              slli            a5,a5,32
0x000000008000a1dc:  8f4d              or              a4,a4,a1
0x000000008000a1de:  9381              srli            a5,a5,32
0x000000008000a1e0:  0086969b          slliw           a3,a3,8
0x000000008000a1e4:  014785b3          add             a1,a5,s4
0x000000008000a1e8:  00d767b3          or              a5,a4,a3
0x000000008000a1ec:  94ae              add             s1,s1,a1
0x000000008000a1ee:  2781              sext.w          a5,a5
0x000000008000a1f0:  473d              addi            a4,zero,15
0x000000008000a1f2:  0491              addi            s1,s1,4
0x000000008000a1f4:  02f77c63          bleu            a5,a4,56        # 0x8000a22c

----------------
IN: 
Priv: 3; Virt: 0
0x000000008000a1f8:  00098763          beqz            s3,14           # 0x8000a206

----------------
IN: 
Priv: 3; Virt: 0
0x000000008000a1fc:  8526              mv              a0,s1
0x000000008000a1fe:  b32f70ef          jal             ra,-36046       # 0x80001530

----------------
IN: 
Priv: 3; Virt: 0
0x000000008000a202:  00a9a023          sw              a0,0(s3)
0x000000008000a206:  60a6              ld              ra,72(sp)
0x000000008000a208:  6406              ld              s0,64(sp)
0x000000008000a20a:  7942              ld              s2,48(sp)
0x000000008000a20c:  79a2              ld              s3,40(sp)
0x000000008000a20e:  7a02              ld              s4,32(sp)
0x000000008000a210:  6ae2              ld              s5,24(sp)
0x000000008000a212:  6b42              ld              s6,16(sp)
0x000000008000a214:  6ba2              ld              s7,8(sp)
0x000000008000a216:  8526              mv              a0,s1
0x000000008000a218:  74e2              ld              s1,56(sp)
0x000000008000a21a:  6161              addi            sp,sp,80
0x000000008000a21c:  8082              ret             

----------------
IN: 
Priv: 3; Virt: 0
0x000000008000a296:  8652              mv              a2,s4
0x000000008000a298:  85da              mv              a1,s6
0x000000008000a29a:  d969              beqz            a0,-46          # 0x8000a26c

----------------
IN: 
Priv: 3; Virt: 0
0x000000008000a29c:  fbc42703          lw              a4,-68(s0)
0x000000008000a2a0:  fd4746e3          bgt             s4,a4,-52       # 0x8000a26c

----------------
IN: 
Priv: 3; Virt: 0
0x000000008000a2a4:  01450933          add             s2,a0,s4
0x000000008000a2a8:  c40f70ef          jal             ra,-35776       # 0x800016e8

----------------
IN: 
Priv: 3; Virt: 0
0x000000008000a2ac:  f161              bnez            a0,-64          # 0x8000a26c

----------------
IN: 
Priv: 3; Virt: 0
0x0000000080009ab2:  00092783          lw              a5,0(s2)
0x0000000080009ab6:  fff7871b          addiw           a4,a5,-1
0x0000000080009aba:  00e92023          sw              a4,0(s2)
0x0000000080009abe:  fc075de3          bgez            a4,-38          # 0x80009a98

----------------
IN: 
Priv: 3; Virt: 0
0x000000008000a2ae:  00094783          lbu             a5,0(s2)
0x000000008000a2b2:  8652              mv              a2,s4
0x000000008000a2b4:  04000593          addi            a1,zero,64
0x000000008000a2b8:  855a              mv              a0,s6
0x000000008000a2ba:  e385              bnez            a5,32           # 0x8000a2da

----------------
IN: 
Priv: 3; Virt: 0
0x000000008000a2bc:  60a6              ld              ra,72(sp)
0x000000008000a2be:  6406              ld              s0,64(sp)
0x000000008000a2c0:  7942              ld              s2,48(sp)
0x000000008000a2c2:  79a2              ld              s3,40(sp)
0x000000008000a2c4:  7a02              ld              s4,32(sp)
0x000000008000a2c6:  6ae2              ld              s5,24(sp)
0x000000008000a2c8:  6b42              ld              s6,16(sp)
0x000000008000a2ca:  8526              mv              a0,s1
0x000000008000a2cc:  74e2              ld              s1,56(sp)
0x000000008000a2ce:  6161              addi            sp,sp,80
0x000000008000a2d0:  8082              ret             

----------------
IN: 
Priv: 3; Virt: 0
0x000000008000a60a:  8a2a              mv              s4,a0
0x000000008000a60c:  00054563          bltz            a0,10           # 0x8000a616

----------------
IN: 
Priv: 3; Virt: 0
0x000000008000a610:  84da              mv              s1,s6
0x000000008000a612:  bf7d              j               -66             # 0x8000a5d0

----------------
IN: 
Priv: 3; Virt: 0
0x000000008000a5d0:  0124e663          bgtu            s2,s1,12        # 0x8000a5dc

----------------
IN: 
Priv: 3; Virt: 0
0x000000008000a5d4:  a089              j               66              # 0x8000a616

----------------
IN: 
Priv: 3; Virt: 0
0x00000000800028d0:  85aa              mv              a1,a0
0x00000000800028d2:  06054663          bltz            a0,108          # 0x8000293e

----------------
IN: 
Priv: 3; Virt: 0
0x00000000800028d6:  854a              mv              a0,s2
0x00000000800028d8:  256070ef          jal             ra,29270        # 0x80009b2e

----------------
IN: 
Priv: 3; Virt: 0
0x0000000080009b2e:  1101              addi            sp,sp,-32
0x0000000080009b30:  e822              sd              s0,16(sp)
0x0000000080009b32:  ec06              sd              ra,24(sp)
0x0000000080009b34:  1000              addi            s0,sp,32
0x0000000080009b36:  fec40613          addi            a2,s0,-20
0x0000000080009b3a:  fe042623          sw              zero,-20(s0)
0x0000000080009b3e:  f19ff0ef          jal             ra,-232         # 0x80009a56

----------------
IN: 
Priv: 3; Virt: 0
0x0000000080009b42:  00054b63          bltz            a0,22           # 0x80009b58

----------------
IN: 
Priv: 3; Virt: 0
0x0000000080009b46:  fec42703          lw              a4,-20(s0)
0x0000000080009b4a:  4785              addi            a5,zero,1
0x0000000080009b4c:  00f71663          bne             a4,a5,12        # 0x80009b58

----------------
IN: 
Priv: 3; Virt: 0
0x0000000080009b50:  60e2              ld              ra,24(sp)
0x0000000080009b52:  6442              ld              s0,16(sp)
0x0000000080009b54:  6105              addi            sp,sp,32
0x0000000080009b56:  8082              ret             

----------------
IN: 
Priv: 3; Virt: 0
0x00000000800028dc:  84aa              mv              s1,a0
0x00000000800028de:  4981              mv              s3,zero
0x00000000800028e0:  04054263          bltz            a0,68           # 0x80002924

----------------
IN: 
Priv: 3; Virt: 0
0x00000000800028e4:  07f00b13          addi            s6,zero,127
0x00000000800028e8:  00011a17          auipc           s4,69632        # 0x800138e8
0x00000000800028ec:  e28a0a13          addi            s4,s4,-472
0x00000000800028f0:  85a6              mv              a1,s1
0x00000000800028f2:  fb440613          addi            a2,s0,-76
0x00000000800028f6:  854a              mv              a0,s2
0x00000000800028f8:  3e5090ef          jal             ra,39908        # 0x8000c4dc

----------------
IN: 
Priv: 3; Virt: 0
0x000000008000c4dc:  7139              addi            sp,sp,-64
0x000000008000c4de:  f822              sd              s0,48(sp)
0x000000008000c4e0:  fc06              sd              ra,56(sp)
0x000000008000c4e2:  f426              sd              s1,40(sp)
0x000000008000c4e4:  f04a              sd              s2,32(sp)
0x000000008000c4e6:  ec4e              sd              s3,24(sp)
0x000000008000c4e8:  e852              sd              s4,16(sp)
0x000000008000c4ea:  0080              addi            s0,sp,64
0x000000008000c4ec:  c945              beqz            a0,176          # 0x8000c59c

----------------
IN: 
Priv: 3; Virt: 0
0x000000008000c4ee:  892e              mv              s2,a1
0x000000008000c4f0:  0a05c663          bltz            a1,172          # 0x8000c59c

----------------
IN: 
Priv: 3; Virt: 0
0x000000008000c4f4:  8a32              mv              s4,a2
0x000000008000c4f6:  fcc40693          addi            a3,s0,-52
0x000000008000c4fa:  00005617          auipc           a2,20480        # 0x800114fa
0x000000008000c4fe:  47e60613          addi            a2,a2,1150
0x000000008000c502:  84aa              mv              s1,a0
0x000000008000c504:  aa4fe0ef          jal             ra,-7516        # 0x8000a7a8

----------------
IN: 
Priv: 3; Virt: 0
0x000000008000c508:  89aa              mv              s3,a0
0x000000008000c50a:  c949              beqz            a0,146          # 0x8000c59c

----------------
IN: 
Priv: 3; Virt: 0
0x000000008000c50c:  fcc42783          lw              a5,-52(s0)
0x000000008000c510:  c7d1              beqz            a5,140          # 0x8000c59c

----------------
IN: 
Priv: 3; Virt: 0
0x000000008000c512:  00005517          auipc           a0,20480        # 0x80011512
0x000000008000c516:  47650513          addi            a0,a0,1142
0x000000008000c51a:  816f50ef          jal             ra,-45034       # 0x80001530

----------------
IN: 
Priv: 3; Virt: 0
0x000000008000c51e:  862a              mv              a2,a0
0x000000008000c520:  00005597          auipc           a1,20480        # 0x80011520
0x000000008000c524:  46858593          addi            a1,a1,1128
0x000000008000c528:  854e              mv              a0,s3
0x000000008000c52a:  fb5f40ef          jal             ra,-45132       # 0x800014de

----------------
IN: 
Priv: 3; Virt: 0
0x00000000800014de:  1141              addi            sp,sp,-16
0x00000000800014e0:  e422              sd              s0,8(sp)
0x00000000800014e2:  0800              addi            s0,sp,16
0x00000000800014e4:  00c50833          add             a6,a0,a2
0x00000000800014e8:  e619              bnez            a2,14           # 0x800014f6

----------------
IN: 
Priv: 3; Virt: 0
0x00000000800014f6:  00054783          lbu             a5,0(a0)
0x00000000800014fa:  0005c683          lbu             a3,0(a1)
0x00000000800014fe:  00150713          addi            a4,a0,1
0x0000000080001502:  00158613          addi            a2,a1,1
0x0000000080001506:  fed783e3          beq             a5,a3,-26       # 0x800014ec

----------------
IN: 
Priv: 3; Virt: 0
0x00000000800014ec:  cf99              beqz            a5,30           # 0x8000150a

----------------
IN: 
Priv: 3; Virt: 0
0x00000000800014ee:  03070363          beq             a4,a6,38        # 0x80001514

----------------
IN: 
Priv: 3; Virt: 0
0x00000000800014f2:  85b2              mv              a1,a2
0x00000000800014f4:  853a              mv              a0,a4
0x00000000800014f6:  00054783          lbu             a5,0(a0)
0x00000000800014fa:  0005c683          lbu             a3,0(a1)
0x00000000800014fe:  00150713          addi            a4,a0,1
0x0000000080001502:  00158613          addi            a2,a1,1
0x0000000080001506:  fed783e3          beq             a5,a3,-26       # 0x800014ec

----------------
IN: 
Priv: 3; Virt: 0
0x0000000080001514:  00154783          lbu             a5,1(a0)
0x0000000080001518:  0015c683          lbu             a3,1(a1)
0x000000008000151c:  6422              ld              s0,8(sp)
0x000000008000151e:  40d7853b          subw            a0,a5,a3
0x0000000080001522:  0141              addi            sp,sp,16
0x0000000080001524:  8082              ret             

----------------
IN: 
Priv: 3; Virt: 0
0x000000008000c52e:  89aa              mv              s3,a0
0x000000008000c530:  e535              bnez            a0,108          # 0x8000c59c

----------------
IN: 
Priv: 3; Virt: 0
0x000000008000c532:  fcc40693          addi            a3,s0,-52
0x000000008000c536:  00005617          auipc           a2,20480        # 0x80011536
0x000000008000c53a:  41260613          addi            a2,a2,1042
0x000000008000c53e:  85ca              mv              a1,s2
0x000000008000c540:  8526              mv              a0,s1
0x000000008000c542:  a66fe0ef          jal             ra,-7578        # 0x8000a7a8

----------------
IN: 
Priv: 3; Virt: 0
0x000000008000c546:  c939              beqz            a0,86           # 0x8000c59c

----------------
IN: 
Priv: 3; Virt: 0
0x000000008000c548:  fcc42783          lw              a5,-52(s0)
0x000000008000c54c:  470d              addi            a4,zero,3
0x000000008000c54e:  04f77763          bleu            a5,a4,78        # 0x8000c59c

----------------
IN: 
Priv: 3; Virt: 0
0x000000008000c552:  4711              addi            a4,zero,4
0x000000008000c554:  00e78363          beq             a5,a4,6         # 0x8000c55a

----------------
IN: 
Priv: 3; Virt: 0
0x000000008000c55a:  020a0863          beqz            s4,48           # 0x8000c58a

----------------
IN: 
Priv: 3; Virt: 0
0x000000008000c55e:  4118              lw              a4,0(a0)
0x000000008000c560:  00875613          srli            a2,a4,8
0x000000008000c564:  0ff67613          andi            a2,a2,255
0x000000008000c568:  0187179b          slliw           a5,a4,24
0x000000008000c56c:  01075693          srli            a3,a4,16
0x000000008000c570:  0106161b          slliw           a2,a2,16
0x000000008000c574:  0187571b          srliw           a4,a4,24
0x000000008000c578:  8fd1              or              a5,a5,a2
0x000000008000c57a:  0ff6f693          andi            a3,a3,255
0x000000008000c57e:  8fd9              or              a5,a5,a4
0x000000008000c580:  0086971b          slliw           a4,a3,8
0x000000008000c584:  8fd9              or              a5,a5,a4
0x000000008000c586:  00fa2023          sw              a5,0(s4)
0x000000008000c58a:  70e2              ld              ra,56(sp)
0x000000008000c58c:  7442              ld              s0,48(sp)
0x000000008000c58e:  74a2              ld              s1,40(sp)
0x000000008000c590:  7902              ld              s2,32(sp)
0x000000008000c592:  6a42              ld              s4,16(sp)
0x000000008000c594:  854e              mv              a0,s3
0x000000008000c596:  69e2              ld              s3,24(sp)
0x000000008000c598:  6121              addi            sp,sp,64
0x000000008000c59a:  8082              ret             

----------------
IN: 
Priv: 3; Virt: 0
0x00000000800028fc:  02099693          slli            a3,s3,32
0x0000000080002900:  872a              mv              a4,a0
0x0000000080002902:  01e6d793          srli            a5,a3,30
0x0000000080002906:  85a6              mv              a1,s1
0x0000000080002908:  854a              mv              a0,s2
0x000000008000290a:  97d2              add             a5,a5,s4
0x000000008000290c:  e719              bnez            a4,14           # 0x8000291a

----------------
IN: 
Priv: 3; Virt: 0
0x000000008000290e:  fb442703          lw              a4,-76(s0)
0x0000000080002912:  00eb6463          bgtu            a4,s6,8         # 0x8000291a

----------------
IN: 
Priv: 3; Virt: 0
0x0000000080002916:  c398              sw              a4,0(a5)
0x0000000080002918:  2985              addiw           s3,s3,1
0x000000008000291a:  242070ef          jal             ra,29250        # 0x80009b5c

----------------
IN: 
Priv: 3; Virt: 0
0x0000000080009b5c:  7179              addi            sp,sp,-48
0x0000000080009b5e:  f022              sd              s0,32(sp)
0x0000000080009b60:  ec26              sd              s1,24(sp)
0x0000000080009b62:  e84a              sd              s2,16(sp)
0x0000000080009b64:  1800              addi            s0,sp,48
0x0000000080009b66:  f406              sd              ra,40(sp)
0x0000000080009b68:  4785              addi            a5,zero,1
0x0000000080009b6a:  84aa              mv              s1,a0
0x0000000080009b6c:  fcf42e23          sw              a5,-36(s0)
0x0000000080009b70:  4905              addi            s2,zero,1
0x0000000080009b72:  a039              j               14              # 0x80009b80

----------------
IN: 
Priv: 3; Virt: 0
0x0000000080009b80:  fdc40613          addi            a2,s0,-36
0x0000000080009b84:  8526              mv              a0,s1
0x0000000080009b86:  ed1ff0ef          jal             ra,-304         # 0x80009a56

----------------
IN: 
Priv: 3; Virt: 0
0x0000000080009b8a:  85aa              mv              a1,a0
0x0000000080009b8c:  fe0554e3          bgez            a0,-24          # 0x80009b74

----------------
IN: 
Priv: 3; Virt: 0
0x0000000080009b74:  fdc42783          lw              a5,-36(s0)
0x0000000080009b78:  00f05c63          blez            a5,24           # 0x80009b90

----------------
IN: 
Priv: 3; Virt: 0
0x0000000080009b7c:  01278b63          beq             a5,s2,22        # 0x80009b92

----------------
IN: 
Priv: 3; Virt: 0
0x0000000080009b92:  70a2              ld              ra,40(sp)
0x0000000080009b94:  7402              ld              s0,32(sp)
0x0000000080009b96:  64e2              ld              s1,24(sp)
0x0000000080009b98:  6942              ld              s2,16(sp)
0x0000000080009b9a:  6145              addi            sp,sp,48
0x0000000080009b9c:  8082              ret             

----------------
IN: 
Priv: 3; Virt: 0
0x000000008000291e:  84aa              mv              s1,a0
0x0000000080002920:  fc0558e3          bgez            a0,-48          # 0x800028f0

----------------
IN: 
Priv: 3; Virt: 0
0x00000000800028f0:  85a6              mv              a1,s1
0x00000000800028f2:  fb440613          addi            a2,s0,-76
0x00000000800028f6:  854a              mv              a0,s2
0x00000000800028f8:  3e5090ef          jal             ra,39908        # 0x8000c4dc

----------------
IN: 
Priv: 3; Virt: 0
0x000000008000c59c:  59f5              addi            s3,zero,-3
0x000000008000c59e:  b7f5              j               -20             # 0x8000c58a

----------------
IN: 
Priv: 3; Virt: 0
0x000000008000c58a:  70e2              ld              ra,56(sp)
0x000000008000c58c:  7442              ld              s0,48(sp)
0x000000008000c58e:  74a2              ld              s1,40(sp)
0x000000008000c590:  7902              ld              s2,32(sp)
0x000000008000c592:  6a42              ld              s4,16(sp)
0x000000008000c594:  854e              mv              a0,s3
0x000000008000c596:  69e2              ld              s3,24(sp)
0x000000008000c598:  6121              addi            sp,sp,64
0x000000008000c59a:  8082              ret             

----------------
IN: 
Priv: 3; Virt: 0
0x000000008000291a:  242070ef          jal             ra,29250        # 0x80009b5c

----------------
IN: 
Priv: 3; Virt: 0
0x0000000080009ac2:  fb842483          lw              s1,-72(s0)
0x0000000080009ac6:  a801              j               16              # 0x80009ad6

----------------
IN: 
Priv: 3; Virt: 0
0x0000000080009b90:  557d              addi            a0,zero,-1
0x0000000080009b92:  70a2              ld              ra,40(sp)
0x0000000080009b94:  7402              ld              s0,32(sp)
0x0000000080009b96:  64e2              ld              s1,24(sp)
0x0000000080009b98:  6942              ld              s2,16(sp)
0x0000000080009b9a:  6145              addi            sp,sp,48
0x0000000080009b9c:  8082              ret             

----------------
IN: 
Priv: 3; Virt: 0
0x0000000080002924:  053aa823          sw              s3,80(s5)
0x0000000080002928:  60a6              ld              ra,72(sp)
0x000000008000292a:  6406              ld              s0,64(sp)
0x000000008000292c:  74e2              ld              s1,56(sp)
0x000000008000292e:  79a2              ld              s3,40(sp)
0x0000000080002930:  7a02              ld              s4,32(sp)
0x0000000080002932:  6ae2              ld              s5,24(sp)
0x0000000080002934:  6b42              ld              s6,16(sp)
0x0000000080002936:  854a              mv              a0,s2
0x0000000080002938:  7942              ld              s2,48(sp)
0x000000008000293a:  6161              addi            sp,sp,80
0x000000008000293c:  8082              ret             

----------------
IN: 
Priv: 3; Virt: 0
0x000000008000024e:  000502b3          add             t0,a0,zero
0x0000000080000252:  00040533          add             a0,s0,zero
0x0000000080000256:  000485b3          add             a1,s1,zero
0x000000008000025a:  00090633          add             a2,s2,zero
0x000000008000025e:  000986b3          add             a3,s3,zero
0x0000000080000262:  000a0733          add             a4,s4,zero
0x0000000080000266:  000285b3          add             a1,t0,zero
0x000000008000026a:  00012717          auipc           a4,73728        # 0x8001226a
0x000000008000026e:  34e73703          ld              a4,846(a4)
0x0000000080000272:  05076b83          lwu             s7,80(a4)
0x0000000080000276:  05476c03          lwu             s8,84(a4)
0x000000008000027a:  00012217          auipc           tp,73728        # 0x8001227a
0x000000008000027e:  37623203          ld              tp,886(tp)
0x0000000080000282:  038b87b3          mul             a5,s7,s8
0x0000000080000286:  923e              add             tp,tp,a5
0x0000000080000288:  00020e33          add             t3,tp,zero
0x000000008000028c:  4385              addi            t2,zero,1
0x000000008000028e:  4301              mv              t1,zero
0x0000000080000290:  000e0233          add             tp,t3,zero
0x0000000080000294:  026c07b3          mul             a5,s8,t1
0x0000000080000298:  40f20233          sub             tp,tp,a5
0x000000008000029c:  6785              lui             a5,4096
0x000000008000029e:  40f20233          sub             tp,tp,a5
0x00000000800002a2:  00012717          auipc           a4,73728        # 0x800122a2
0x00000000800002a6:  31e73703          ld              a4,798(a4)
0x00000000800002aa:  00012797          auipc           a5,73728        # 0x800122aa
0x00000000800002ae:  3467b783          ld              a5,838(a5)
0x00000000800002b2:  038b82b3          mul             t0,s7,s8
0x00000000800002b6:  9796              add             a5,a5,t0
0x00000000800002b8:  8f99              sub             a5,a5,a4
0x00000000800002ba:  00e23023          sd              a4,0(tp)
0x00000000800002be:  00f23423          sd              a5,8(tp)
0x00000000800002c2:  00050433          add             s0,a0,zero
0x00000000800002c6:  000584b3          add             s1,a1,zero
0x00000000800002ca:  00060933          add             s2,a2,zero
0x00000000800002ce:  45a000ef          jal             ra,1114         # 0x80000728

----------------
IN: 
Priv: 3; Virt: 0
0x0000000080000728:  00012517          auipc           a0,73728        # 0x80012728
0x000000008000072c:  e6853503          ld              a0,-408(a0)
0x0000000080000730:  6108              ld              a0,0(a0)
0x0000000080000732:  8082              ret             

----------------
IN: 
Priv: 3; Virt: 0
0x00000000800002d2:  00a23823          sd              a0,16(tp)
0x00000000800002d6:  00040533          add             a0,s0,zero
0x00000000800002da:  000485b3          add             a1,s1,zero
0x00000000800002de:  00090633          add             a2,s2,zero
0x00000000800002e2:  00050433          add             s0,a0,zero
0x00000000800002e6:  000584b3          add             s1,a1,zero
0x00000000800002ea:  00060933          add             s2,a2,zero
0x00000000800002ee:  44a000ef          jal             ra,1098         # 0x80000738

----------------
IN: 
Priv: 3; Virt: 0
0x0000000080000738:  00012517          auipc           a0,73728        # 0x80012738
0x000000008000073c:  e6053503          ld              a0,-416(a0)
0x0000000080000740:  6108              ld              a0,0(a0)
0x0000000080000742:  8082              ret             

----------------
IN: 
Priv: 3; Virt: 0
0x00000000800002f2:  00a23c23          sd              a0,24(tp)
0x00000000800002f6:  00040533          add             a0,s0,zero
0x00000000800002fa:  000485b3          add             a1,s1,zero
0x00000000800002fe:  00090633          add             a2,s2,zero
0x0000000080000302:  00050433          add             s0,a0,zero
0x0000000080000306:  000584b3          add             s1,a1,zero
0x000000008000030a:  00060933          add             s2,a2,zero
0x000000008000030e:  43a000ef          jal             ra,1082         # 0x80000748

----------------
IN: 
Priv: 3; Virt: 0
0x0000000080000748:  00012517          auipc           a0,73728        # 0x80012748
0x000000008000074c:  e5853503          ld              a0,-424(a0)
0x0000000080000750:  6108              ld              a0,0(a0)
0x0000000080000752:  8082              ret             

----------------
IN: 
Priv: 3; Virt: 0
0x0000000080000312:  02a23023          sd              a0,32(tp)
0x0000000080000316:  00040533          add             a0,s0,zero
0x000000008000031a:  000485b3          add             a1,s1,zero
0x000000008000031e:  00090633          add             a2,s2,zero
0x0000000080000322:  00012717          auipc           a4,73728        # 0x80012322
0x0000000080000326:  2e673703          ld              a4,742(a4)
0x000000008000032a:  02e23423          sd              a4,40(tp)
0x000000008000032e:  00012717          auipc           a4,73728        # 0x8001232e
0x0000000080000332:  28a73703          ld              a4,650(a4)
0x0000000080000336:  02e23823          sd              a4,48(tp)
0x000000008000033a:  00012717          auipc           a4,73728        # 0x8001233a
0x000000008000033e:  28e73703          ld              a4,654(a4)
0x0000000080000342:  02e23c23          sd              a4,56(tp)
0x0000000080000346:  00012717          auipc           a4,73728        # 0x80012346
0x000000008000034a:  2ba73703          ld              a4,698(a4)
0x000000008000034e:  04e23023          sd              a4,64(tp)
0x0000000080000352:  04023423          sd              zero,72(tp)
0x0000000080000356:  00050433          add             s0,a0,zero
0x000000008000035a:  000584b3          add             s1,a1,zero
0x000000008000035e:  00060933          add             s2,a2,zero
0x0000000080000362:  3f6000ef          jal             ra,1014         # 0x80000758

----------------
IN: 
Priv: 3; Virt: 0
0x0000000080000758:  00012517          auipc           a0,73728        # 0x80012758
0x000000008000075c:  e5053503          ld              a0,-432(a0)
0x0000000080000760:  6108              ld              a0,0(a0)
0x0000000080000762:  8082              ret             

----------------
IN: 
Priv: 3; Virt: 0
0x0000000080000366:  04a23823          sd              a0,80(tp)
0x000000008000036a:  00040533          add             a0,s0,zero
0x000000008000036e:  000485b3          add             a1,s1,zero
0x0000000080000372:  00090633          add             a2,s2,zero
0x0000000080000376:  931e              add             t1,t1,t2
0x0000000080000378:  f1734ce3          bgt             s7,t1,-232      # 0x80000290

----------------
IN: 
Priv: 3; Virt: 0
0x000000008000037c:  c9c1              beqz            a1,144          # 0x8000040c

----------------
IN: 
Priv: 3; Virt: 0
0x000000008000037e:  56e1              addi            a3,zero,-8
0x0000000080000380:  0ff00713          addi            a4,zero,255
0x0000000080000384:  00050433          add             s0,a0,zero
0x0000000080000388:  000584b3          add             s1,a1,zero
0x000000008000038c:  00060933          add             s2,a2,zero
0x0000000080000390:  398000ef          jal             ra,920          # 0x80000728

----------------
IN: 
Priv: 3; Virt: 0
0x0000000080000394:  00050333          add             t1,a0,zero
0x0000000080000398:  00040533          add             a0,s0,zero
0x000000008000039c:  000485b3          add             a1,s1,zero
0x00000000800003a0:  00090633          add             a2,s2,zero
0x00000000800003a4:  06030463          beqz            t1,104          # 0x8000040c

----------------
IN: 
Priv: 3; Virt: 0
0x00000000800003a8:  06b30263          beq             t1,a1,100       # 0x8000040c

----------------
IN: 
Priv: 3; Virt: 0
0x000000008000040c:  4289              addi            t0,zero,2
0x000000008000040e:  00012317          auipc           t1,73728        # 0x8001240e
0x0000000080000412:  17233303          ld              t1,370(t1)
0x0000000080000416:  00533023          sd              t0,0(t1)
0x000000008000041a:  0330000f          fence           rw,rw
0x000000008000041e:  a829              j               26              # 0x80000438

----------------
IN: 
Priv: 3; Virt: 0
0x0000000080000438:  4081              mv              ra,zero
0x000000008000043a:  21e000ef          jal             ra,542          # 0x80000658

----------------
IN: 
Priv: 3; Virt: 0
0x000000008000043e:  30401073          csrrw           zero,mie,zero

----------------
IN: 
Priv: 3; Virt: 0
0x0000000080000442:  34401073          csrrw           zero,mip,zero

----------------
IN: 
Priv: 3; Virt: 0
0x0000000080000446:  00012717          auipc           a4,73728        # 0x80012446
0x000000008000044a:  17273703          ld              a4,370(a4)
0x000000008000044e:  05076b83          lwu             s7,80(a4)
0x0000000080000452:  05476c03          lwu             s8,84(a4)
0x0000000080000456:  06873c83          ld              s9,104(a4)
0x000000008000045a:  f1402b73          csrrs           s6,mhartid,zero

----------------
IN: 
Priv: 3; Virt: 0
0x000000008000045e:  000c8e63          beqz            s9,28           # 0x8000047a

----------------
IN: 
Priv: 3; Virt: 0
0x0000000080000462:  4701              mv              a4,zero
0x0000000080000464:  000ce783          lwu             a5,0(s9)
0x0000000080000468:  01678763          beq             a5,s6,14        # 0x80000476

----------------
IN: 
Priv: 3; Virt: 0
0x0000000080000476:  00070b33          add             s6,a4,zero
0x000000008000047a:  097b5b63          ble             s7,s6,150       # 0x80000510

----------------
IN: 
Priv: 3; Virt: 0
0x000000008000047e:  00012217          auipc           tp,73728        # 0x8001247e
0x0000000080000482:  17223203          ld              tp,370(tp)
0x0000000080000486:  038b87b3          mul             a5,s7,s8
0x000000008000048a:  923e              add             tp,tp,a5
0x000000008000048c:  036c07b3          mul             a5,s8,s6
0x0000000080000490:  40f20233          sub             tp,tp,a5
0x0000000080000494:  6785              lui             a5,4096
0x0000000080000496:  40f20233          sub             tp,tp,a5
0x000000008000049a:  34021073          csrrw           zero,mscratch,tp

----------------
IN: 
Priv: 3; Virt: 0
0x000000008000049e:  00020133          add             sp,tp,zero
0x00000000800004a2:  00012717          auipc           a4,73728        # 0x800124a2
0x00000000800004a6:  15673703          ld              a4,342(a4)
0x00000000800004aa:  30571073          csrrw           zero,mtvec,a4

----------------
IN: 
Priv: 3; Virt: 0
0x00000000800004ae:  34002573          csrrs           a0,mscratch,zero

----------------
IN: 
Priv: 3; Virt: 0
0x00000000800004b2:  2de000ef          jal             ra,734          # 0x80000790

----------------
IN: 
Priv: 3; Virt: 0
0x0000000080000790:  7115              addi            sp,sp,-224
0x0000000080000792:  e9a2              sd              s0,208(sp)
0x0000000080000794:  e5a6              sd              s1,200(sp)
0x0000000080000796:  ed86              sd              ra,216(sp)
0x0000000080000798:  e1ca              sd              s2,192(sp)
0x000000008000079a:  fd4e              sd              s3,184(sp)
0x000000008000079c:  f952              sd              s4,176(sp)
0x000000008000079e:  f556              sd              s5,168(sp)
0x00000000800007a0:  f15a              sd              s6,160(sp)
0x00000000800007a2:  ed5e              sd              s7,152(sp)
0x00000000800007a4:  e962              sd              s8,144(sp)
0x00000000800007a6:  e566              sd              s9,136(sp)
0x00000000800007a8:  1180              addi            s0,sp,224
0x00000000800007aa:  84aa              mv              s1,a0
0x00000000800007ac:  f14029f3          csrrs           s3,mhartid,zero

----------------
IN: 
Priv: 3; Virt: 0
0x00000000800007b0:  07f00793          addi            a5,zero,127
0x00000000800007b4:  0009891b          sext.w          s2,s3
0x00000000800007b8:  7908              ld              a0,48(a0)
0x00000000800007ba:  0327e363          bgtu            s2,a5,38        # 0x800007e0

----------------
IN: 
Priv: 3; Virt: 0
0x00000000800007be:  c10d              beqz            a0,34           # 0x800007e0

----------------
IN: 
Priv: 3; Virt: 0
0x00000000800007c0:  05052a03          lw              s4,80(a0)
0x00000000800007c4:  85ca              mv              a1,s2
0x00000000800007c6:  35f000ef          jal             ra,2910         # 0x80001324

----------------
IN: 
Priv: 3; Virt: 0
0x0000000080001324:  1141              addi            sp,sp,-16
0x0000000080001326:  e422              sd              s0,8(sp)
0x0000000080001328:  0800              addi            s0,sp,16
0x000000008000132a:  c11d              beqz            a0,38           # 0x80001350

----------------
IN: 
Priv: 3; Virt: 0
0x000000008000132c:  753c              ld              a5,104(a0)
0x000000008000132e:  872a              mv              a4,a0
0x0000000080001330:  852e              mv              a0,a1
0x0000000080001332:  cf81              beqz            a5,24           # 0x8000134a

----------------
IN: 
Priv: 3; Virt: 0
0x0000000080001334:  4b34              lw              a3,80(a4)
0x0000000080001336:  ce89              beqz            a3,26           # 0x80001350

----------------
IN: 
Priv: 3; Virt: 0
0x0000000080001338:  4501              mv              a0,zero
0x000000008000133a:  a021              j               8               # 0x80001342

----------------
IN: 
Priv: 3; Virt: 0
0x0000000080001342:  4398              lw              a4,0(a5)
0x0000000080001344:  0791              addi            a5,a5,4
0x0000000080001346:  feb71be3          bne             a4,a1,-10       # 0x8000133c

----------------
IN: 
Priv: 3; Virt: 0
0x000000008000134a:  6422              ld              s0,8(sp)
0x000000008000134c:  0141              addi            sp,sp,16
0x000000008000134e:  8082              ret             

----------------
IN: 
Priv: 3; Virt: 0
0x00000000800007ca:  2501              sext.w          a0,a0
0x00000000800007cc:  01457a63          bleu            s4,a0,20        # 0x800007e0

----------------
IN: 
Priv: 3; Virt: 0
0x00000000800007d0:  709c              ld              a5,32(s1)
0x00000000800007d2:  4705              addi            a4,zero,1
0x00000000800007d4:  16e78663          beq             a5,a4,364       # 0x80000940

----------------
IN: 
Priv: 3; Virt: 0
0x0000000080000940:  05300513          addi            a0,zero,83
0x0000000080000944:  028020ef          jal             ra,8232         # 0x8000296c

----------------
IN: 
Priv: 3; Virt: 0
0x000000008000296c:  301027f3          csrrs           a5,misa,zero

----------------
IN: 
Priv: 3; Virt: 0
0x0000000080002970:  cf85              beqz            a5,56           # 0x800029a8

----------------
IN: 
Priv: 3; Virt: 0
0x0000000080002972:  fbf5061b          addiw           a2,a0,-65
0x0000000080002976:  0ff67593          andi            a1,a2,255
0x000000008000297a:  46e5              addi            a3,zero,25
0x000000008000297c:  00b6ff63          bleu            a1,a3,30        # 0x8000299a

----------------
IN: 
Priv: 3; Virt: 0
0x000000008000299a:  4705              addi            a4,zero,1
0x000000008000299c:  00c7173b          sllw            a4,a4,a2
0x00000000800029a0:  00e7f533          and             a0,a5,a4
0x00000000800029a4:  2501              sext.w          a0,a0
0x00000000800029a6:  8082              ret             

----------------
IN: 
Priv: 3; Virt: 0
0x0000000080000948:  ea0504e3          beqz            a0,-344         # 0x800007f0

----------------
IN: 
Priv: 3; Virt: 0
0x000000008000094c:  4585              addi            a1,zero,1
0x000000008000094e:  00012517          auipc           a0,73728        # 0x8001294e
0x0000000080000952:  6b250513          addi            a0,a0,1714
0x0000000080000956:  057020ef          jal             ra,10326        # 0x800031ac

----------------
IN: 
Priv: 3; Virt: 0
0x00000000800031ac:  7179              addi            sp,sp,-48
0x00000000800031ae:  f422              sd              s0,40(sp)
0x00000000800031b0:  1800              addi            s0,sp,48
0x00000000800031b2:  fcb43c23          sd              a1,-40(s0)
0x00000000800031b6:  fd843783          ld              a5,-40(s0)
0x00000000800031ba:  fef43023          sd              a5,-32(s0)
0x00000000800031be:  fe043783          ld              a5,-32(s0)
0x00000000800031c2:  0ef537af          amoswap.d.aq.rl a5,a5,(a0)
0x00000000800031c6:  fef43423          sd              a5,-24(s0)
0x00000000800031ca:  fe843503          ld              a0,-24(s0)
0x00000000800031ce:  7422              ld              s0,40(sp)
0x00000000800031d0:  6145              addi            sp,sp,48
0x00000000800031d2:  8082              ret             

----------------
IN: 
Priv: 3; Virt: 0
0x000000008000095a:  e8051be3          bnez            a0,-362         # 0x800007f0

----------------
IN: 
Priv: 3; Virt: 0
0x000000008000095e:  8526              mv              a0,s1
0x0000000080000960:  0304ba83          ld              s5,48(s1)
0x0000000080000964:  1f5000ef          jal             ra,2548         # 0x80001358

----------------
IN: 
Priv: 3; Virt: 0
0x0000000080001358:  715d              addi            sp,sp,-80
0x000000008000135a:  e0a2              sd              s0,64(sp)
0x000000008000135c:  fc26              sd              s1,56(sp)
0x000000008000135e:  f052              sd              s4,32(sp)
0x0000000080001360:  ec56              sd              s5,24(sp)
0x0000000080001362:  e85a              sd              s6,16(sp)
0x0000000080001364:  e45e              sd              s7,8(sp)
0x0000000080001366:  e486              sd              ra,72(sp)
0x0000000080001368:  f84a              sd              s2,48(sp)
0x000000008000136a:  f44e              sd              s3,40(sp)
0x000000008000136c:  e062              sd              s8,0(sp)
0x000000008000136e:  0880              addi            s0,sp,80
0x0000000080001370:  03053903          ld              s2,48(a0)
0x0000000080001374:  8b2a              mv              s6,a0
0x0000000080001376:  00012a17          auipc           s4,73728        # 0x80013376
0x000000008000137a:  f9aa0a13          addi            s4,s4,-102
0x000000008000137e:  4481              mv              s1,zero
0x0000000080001380:  00011b97          auipc           s7,69632        # 0x80012380
0x0000000080001384:  c90b8b93          addi            s7,s7,-880
0x0000000080001388:  08000a93          addi            s5,zero,128
0x000000008000138c:  0004899b          sext.w          s3,s1
0x0000000080001390:  854a              mv              a0,s2
0x0000000080001392:  85ce              mv              a1,s3
0x0000000080001394:  02090a63          beqz            s2,52           # 0x800013c8

----------------
IN: 
Priv: 3; Virt: 0
0x0000000080001398:  05092c03          lw              s8,80(s2)
0x000000008000139c:  f89ff0ef          jal             ra,-120         # 0x80001324

----------------
IN: 
Priv: 3; Virt: 0
0x00000000800013a0:  87aa              mv              a5,a0
0x00000000800013a2:  2781              sext.w          a5,a5
0x00000000800013a4:  85ce              mv              a1,s3
0x00000000800013a6:  854a              mv              a0,s2
0x00000000800013a8:  0387f063          bleu            s8,a5,32        # 0x800013c8

----------------
IN: 
Priv: 3; Virt: 0
0x00000000800013ac:  038b3c03          ld              s8,56(s6)
0x00000000800013b0:  f75ff0ef          jal             ra,-140         # 0x80001324

----------------
IN: 
Priv: 3; Virt: 0
0x00000000800013b4:  02051593          slli            a1,a0,32
0x00000000800013b8:  9181              srli            a1,a1,32
0x00000000800013ba:  8526              mv              a0,s1
0x00000000800013bc:  9c02              jalr            ra,s8,0

----------------
IN: 
Priv: 3; Virt: 0
0x00000000800004e0:  00012397          auipc           t2,73728        # 0x800124e0
0x00000000800004e4:  0d83b383          ld              t2,216(t2)
0x00000000800004e8:  0543e283          lwu             t0,84(t2)
0x00000000800004ec:  0503e383          lwu             t2,80(t2)
0x00000000800004f0:  40b383b3          sub             t2,t2,a1
0x00000000800004f4:  025383b3          mul             t2,t2,t0
0x00000000800004f8:  00012317          auipc           t1,73728        # 0x800124f8
0x00000000800004fc:  0f833303          ld              t1,248(t1)
0x0000000080000500:  931e              add             t1,t1,t2
0x0000000080000502:  6385              lui             t2,4096
0x0000000080000504:  40730533          sub             a0,t1,t2
0x0000000080000508:  8082              ret             

----------------
IN: 
Priv: 3; Virt: 0
0x00000000800013be:  00aa3023          sd              a0,0(s4)
0x00000000800013c2:  c119              beqz            a0,6            # 0x800013c8

----------------
IN: 
Priv: 3; Virt: 0
0x00000000800013c4:  013ba023          sw              s3,0(s7)
0x00000000800013c8:  0485              addi            s1,s1,1
0x00000000800013ca:  0a21              addi            s4,s4,8
0x00000000800013cc:  fd5490e3          bne             s1,s5,-64       # 0x8000138c

----------------
IN: 
Priv: 3; Virt: 0
0x000000008000138c:  0004899b          sext.w          s3,s1
0x0000000080001390:  854a              mv              a0,s2
0x0000000080001392:  85ce              mv              a1,s3
0x0000000080001394:  02090a63          beqz            s2,52           # 0x800013c8

----------------
IN: 
Priv: 3; Virt: 0
0x000000008000133c:  2505              addiw           a0,a0,1
0x000000008000133e:  00d50963          beq             a0,a3,18        # 0x80001350

----------------
IN: 
Priv: 3; Virt: 0
0x0000000080001350:  6422              ld              s0,8(sp)
0x0000000080001352:  557d              addi            a0,zero,-1
0x0000000080001354:  0141              addi            sp,sp,16
0x0000000080001356:  8082              ret             

----------------
IN: 
Priv: 3; Virt: 0
0x00000000800013c8:  0485              addi            s1,s1,1
0x00000000800013ca:  0a21              addi            s4,s4,8
0x00000000800013cc:  fd5490e3          bne             s1,s5,-64       # 0x8000138c

----------------
IN: 
Priv: 3; Virt: 0
0x00000000800013d0:  60a6              ld              ra,72(sp)
0x00000000800013d2:  6406              ld              s0,64(sp)
0x00000000800013d4:  74e2              ld              s1,56(sp)
0x00000000800013d6:  7942              ld              s2,48(sp)
0x00000000800013d8:  79a2              ld              s3,40(sp)
0x00000000800013da:  7a02              ld              s4,32(sp)
0x00000000800013dc:  6ae2              ld              s5,24(sp)
0x00000000800013de:  6b42              ld              s6,16(sp)
0x00000000800013e0:  6ba2              ld              s7,8(sp)
0x00000000800013e2:  6c02              ld              s8,0(sp)
0x00000000800013e4:  4501              mv              a0,zero
0x00000000800013e6:  6161              addi            sp,sp,80
0x00000000800013e8:  8082              ret             

----------------
IN: 
Priv: 3; Virt: 0
0x0000000080000968:  e6051ce3          bnez            a0,-392         # 0x800007e0

----------------
IN: 
Priv: 3; Virt: 0
0x000000008000096c:  85ca              mv              a1,s2
0x000000008000096e:  8526              mv              a0,s1
0x0000000080000970:  0ca040ef          jal             ra,16586        # 0x80004a3a

----------------
IN: 
Priv: 3; Virt: 0
0x0000000080004a3a:  715d              addi            sp,sp,-80
0x0000000080004a3c:  e0a2              sd              s0,64(sp)
0x0000000080004a3e:  fc26              sd              s1,56(sp)
0x0000000080004a40:  e85a              sd              s6,16(sp)
0x0000000080004a42:  e45e              sd              s7,8(sp)
0x0000000080004a44:  e486              sd              ra,72(sp)
0x0000000080004a46:  f84a              sd              s2,48(sp)
0x0000000080004a48:  f44e              sd              s3,40(sp)
0x0000000080004a4a:  f052              sd              s4,32(sp)
0x0000000080004a4c:  ec56              sd              s5,24(sp)
0x0000000080004a4e:  0880              addi            s0,sp,80
0x0000000080004a50:  8b2a              mv              s6,a0
0x0000000080004a52:  6508              ld              a0,8(a0)
0x0000000080004a54:  030b3903          ld              s2,48(s6)
0x0000000080004a58:  84ae              mv              s1,a1
0x0000000080004a5a:  6d3020ef          jal             ra,11986        # 0x8000792c

----------------
IN: 
Priv: 3; Virt: 0
0x000000008000792c:  1141              addi            sp,sp,-16
0x000000008000792e:  e422              sd              s0,8(sp)
0x0000000080007930:  0800              addi            s0,sp,16
0x0000000080007932:  872a              mv              a4,a0
0x0000000080007934:  4501              mv              a0,zero
0x0000000080007936:  4685              addi            a3,zero,1
0x0000000080007938:  04000613          addi            a2,zero,64
0x000000008000793c:  a021              j               8               # 0x80007944

----------------
IN: 
Priv: 3; Virt: 0
0x0000000080007944:  00a697b3          sll             a5,a3,a0
0x0000000080007948:  fee7ebe3          bgtu            a4,a5,-10       # 0x8000793e

----------------
IN: 
Priv: 3; Virt: 0
0x000000008000793e:  0505              addi            a0,a0,1
0x0000000080007940:  00c50663          beq             a0,a2,12        # 0x8000794c

----------------
IN: 
Priv: 3; Virt: 0
0x000000008000794c:  6422              ld              s0,8(sp)
0x000000008000794e:  0141              addi            sp,sp,16
0x0000000080007950:  8082              ret             

----------------
IN: 
Priv: 3; Virt: 0
0x0000000080004a5e:  0000f717          auipc           a4,61440        # 0x80013a5e
0x0000000080004a62:  eb270713          addi            a4,a4,-334
0x0000000080004a66:  e308              sd              a0,0(a4)
0x0000000080004a68:  000b3683          ld              a3,0(s6)
0x0000000080004a6c:  57fd              addi            a5,zero,-1
0x0000000080004a6e:  00a797b3          sll             a5,a5,a0
0x0000000080004a72:  8ff5              and             a5,a5,a3
0x0000000080004a74:  e71c              sd              a5,8(a4)
0x0000000080004a76:  0000f797          auipc           a5,61440        # 0x80013a76
0x0000000080004a7a:  ea07b523          sd              zero,-342(a5)
0x0000000080004a7e:  04000793          addi            a5,zero,64
0x0000000080004a82:  ef1c              sd              a5,24(a4)
0x0000000080004a84:  0000f797          auipc           a5,61440        # 0x80013a84
0x0000000080004a88:  ea07b623          sd              zero,-340(a5)
0x0000000080004a8c:  479d              addi            a5,zero,7
0x0000000080004a8e:  f71c              sd              a5,40(a4)
0x0000000080004a90:  0000f797          auipc           a5,61440        # 0x80013a90
0x0000000080004a94:  ea07b823          sd              zero,-336(a5)
0x0000000080004a98:  0000db97          auipc           s7,53248        # 0x80011a98
0x0000000080004a9c:  6c0b8b93          addi            s7,s7,1728
0x0000000080004aa0:  00090e63          beqz            s2,28           # 0x80004abc

----------------
IN: 
Priv: 3; Virt: 0
0x0000000080004aa4:  05893783          ld              a5,88(s2)
0x0000000080004aa8:  0000db97          auipc           s7,53248        # 0x80011aa8
0x0000000080004aac:  6b0b8b93          addi            s7,s7,1712
0x0000000080004ab0:  7b9c              ld              a5,48(a5)
0x0000000080004ab2:  c789              beqz            a5,10           # 0x80004abc

----------------
IN: 
Priv: 3; Virt: 0
0x0000000080004abc:  069ba423          sw              s1,104(s7)
0x0000000080004ac0:  010b3783          ld              a5,16(s6)
0x0000000080004ac4:  4481              mv              s1,zero
0x0000000080004ac6:  0000fa97          auipc           s5,61440        # 0x80013ac6
0x0000000080004aca:  392a8a93          addi            s5,s5,914
0x0000000080004ace:  06fbb823          sd              a5,112(s7)
0x0000000080004ad2:  018b3783          ld              a5,24(s6)
0x0000000080004ad6:  4a05              addi            s4,zero,1
0x0000000080004ad8:  08000993          addi            s3,zero,128
0x0000000080004adc:  06fbbc23          sd              a5,120(s7)
0x0000000080004ae0:  020b3783          ld              a5,32(s6)
0x0000000080004ae4:  08fbb023          sd              a5,128(s7)
0x0000000080004ae8:  85a6              mv              a1,s1
0x0000000080004aea:  854a              mv              a0,s2
0x0000000080004aec:  02090263          beqz            s2,36           # 0x80004b10

----------------
IN: 
Priv: 3; Virt: 0
0x0000000080004af0:  05092b03          lw              s6,80(s2)
0x0000000080004af4:  831fc0ef          jal             ra,-14288       # 0x80001324

----------------
IN: 
Priv: 3; Virt: 0
0x0000000080004af8:  4064d793          srai            a5,s1,6
0x0000000080004afc:  078e              slli            a5,a5,3
0x0000000080004afe:  2501              sext.w          a0,a0
0x0000000080004b00:  97d6              add             a5,a5,s5
0x0000000080004b02:  009a16b3          sll             a3,s4,s1
0x0000000080004b06:  01657563          bleu            s6,a0,10        # 0x80004b10

----------------
IN: 
Priv: 3; Virt: 0
0x0000000080004b0a:  6398              ld              a4,0(a5)
0x0000000080004b0c:  8f55              or              a4,a4,a3
0x0000000080004b0e:  e398              sd              a4,0(a5)
0x0000000080004b10:  2485              addiw           s1,s1,1
0x0000000080004b12:  fd349be3          bne             s1,s3,-42       # 0x80004ae8

----------------
IN: 
Priv: 3; Virt: 0
0x0000000080004ae8:  85a6              mv              a1,s1
0x0000000080004aea:  854a              mv              a0,s2
0x0000000080004aec:  02090263          beqz            s2,36           # 0x80004b10

----------------
IN: 
Priv: 3; Virt: 0
0x0000000080004b10:  2485              addiw           s1,s1,1
0x0000000080004b12:  fd349be3          bne             s1,s3,-42       # 0x80004ae8

----------------
IN: 
Priv: 3; Virt: 0
0x0000000080004b16:  0000f597          auipc           a1,61440        # 0x80013b16
0x0000000080004b1a:  34258593          addi            a1,a1,834
0x0000000080004b1e:  0000d517          auipc           a0,53248        # 0x80011b1e
0x0000000080004b22:  63a50513          addi            a0,a0,1594
0x0000000080004b26:  993ff0ef          jal             ra,-1646        # 0x800044b8

----------------
IN: 
Priv: 3; Virt: 0
0x00000000800044b8:  7131              addi            sp,sp,-192
0x00000000800044ba:  f922              sd              s0,176(sp)
0x00000000800044bc:  fd06              sd              ra,184(sp)
0x00000000800044be:  f526              sd              s1,168(sp)
0x00000000800044c0:  f14a              sd              s2,160(sp)
0x00000000800044c2:  ed4e              sd              s3,152(sp)
0x00000000800044c4:  e952              sd              s4,144(sp)
0x00000000800044c6:  e556              sd              s5,136(sp)
0x00000000800044c8:  e15a              sd              s6,128(sp)
0x00000000800044ca:  fcde              sd              s7,120(sp)
0x00000000800044cc:  f8e2              sd              s8,112(sp)
0x00000000800044ce:  f4e6              sd              s9,104(sp)
0x00000000800044d0:  f0ea              sd              s10,96(sp)
0x00000000800044d2:  ecee              sd              s11,88(sp)
0x00000000800044d4:  0180              addi            s0,sp,192
0x00000000800044d6:  f1402af3          csrrs           s5,mhartid,zero

----------------
IN: 
Priv: 3; Virt: 0
0x00000000800044da:  340026f3          csrrs           a3,mscratch,zero

----------------
IN: 
Priv: 3; Virt: 0
0x00000000800044de:  18050c63          beqz            a0,408          # 0x80004676

----------------
IN: 
Priv: 3; Virt: 0
0x00000000800044e2:  8a2e              mv              s4,a1
0x00000000800044e4:  18058963          beqz            a1,402          # 0x80004676

----------------
IN: 
Priv: 3; Virt: 0
0x00000000800044e8:  0000f997          auipc           s3,61440        # 0x800134e8
0x00000000800044ec:  42898993          addi            s3,s3,1064
0x00000000800044f0:  0489b783          ld              a5,72(s3)
0x00000000800044f4:  892a              mv              s2,a0
0x00000000800044f6:  cf85              beqz            a5,56           # 0x8000452e

----------------
IN: 
Priv: 3; Virt: 0
0x000000008000452e:  0000fb97          auipc           s7,61440        # 0x8001352e
0x0000000080004532:  b52b8b93          addi            s7,s7,-1198
0x0000000080004536:  000ba703          lw              a4,0(s7)
0x000000008000453a:  47fd              addi            a5,zero,31
0x000000008000453c:  0306bb03          ld              s6,48(a3)
0x0000000080004540:  12e7ed63          bgtu            a4,a5,314       # 0x8000467a

----------------
IN: 
Priv: 3; Virt: 0
0x0000000080004544:  05893503          ld              a0,88(s2)
0x0000000080004548:  26050563          beqz            a0,618          # 0x800047b2

----------------
IN: 
Priv: 3; Virt: 0
0x000000008000454c:  08000593          addi            a1,zero,128
0x0000000080004550:  e99fe0ef          jal             ra,-4456        # 0x800033e8

----------------
IN: 
Priv: 3; Virt: 0
0x00000000800033e8:  1141              addi            sp,sp,-16
0x00000000800033ea:  e422              sd              s0,8(sp)
0x00000000800033ec:  0800              addi            s0,sp,16
0x00000000800033ee:  fc05f793          andi            a5,a1,-64
0x00000000800033f2:  c3ad              beqz            a5,98           # 0x80003454

----------------
IN: 
Priv: 3; Virt: 0
0x00000000800033f4:  4781              mv              a5,zero
0x00000000800033f6:  a801              j               16              # 0x80003406

----------------
IN: 
Priv: 3; Virt: 0
0x0000000080003406:  6118              ld              a4,0(a0)
0x0000000080003408:  0521              addi            a0,a0,8
0x000000008000340a:  d77d              beqz            a4,-18          # 0x800033f8

----------------
IN: 
Priv: 3; Virt: 0
0x000000008000340c:  02071613          slli            a2,a4,32
0x0000000080003410:  9201              srli            a2,a2,32
0x0000000080003412:  4681              mv              a3,zero
0x0000000080003414:  e601              bnez            a2,8            # 0x8000341c

----------------
IN: 
Priv: 3; Virt: 0
0x000000008000341c:  03071613          slli            a2,a4,48
0x0000000080003420:  9241              srli            a2,a2,48
0x0000000080003422:  e219              bnez            a2,6            # 0x80003428

----------------
IN: 
Priv: 3; Virt: 0
0x0000000080003428:  0ff77613          andi            a2,a4,255
0x000000008000342c:  e219              bnez            a2,6            # 0x80003432

----------------
IN: 
Priv: 3; Virt: 0
0x0000000080003432:  00f77613          andi            a2,a4,15
0x0000000080003436:  e219              bnez            a2,6            # 0x8000343c

----------------
IN: 
Priv: 3; Virt: 0
0x000000008000343c:  00377613          andi            a2,a4,3
0x0000000080003440:  e219              bnez            a2,6            # 0x80003446

----------------
IN: 
Priv: 3; Virt: 0
0x0000000080003446:  8b05              andi            a4,a4,1
0x0000000080003448:  c71d              beqz            a4,46           # 0x80003476

----------------
IN: 
Priv: 3; Virt: 0
0x000000008000344a:  97b6              add             a5,a5,a3
0x000000008000344c:  6422              ld              s0,8(sp)
0x000000008000344e:  853e              mv              a0,a5
0x0000000080003450:  0141              addi            sp,sp,16
0x0000000080003452:  8082              ret             

----------------
IN: 
Priv: 3; Virt: 0
0x0000000080004554:  0005049b          sext.w          s1,a0
0x0000000080004558:  07f00793          addi            a5,zero,127
0x000000008000455c:  0697e963          bgtu            s1,a5,114       # 0x800045ce

----------------
IN: 
Priv: 3; Virt: 0
0x0000000080004560:  07f00c13          addi            s8,zero,127
0x0000000080004564:  000b1b63          bnez            s6,22           # 0x8000457a

----------------
IN: 
Priv: 3; Virt: 0
0x000000008000457a:  85a6              mv              a1,s1
0x000000008000457c:  855a              mv              a0,s6
0x000000008000457e:  050b2c83          lw              s9,80(s6)
0x0000000080004582:  da3fc0ef          jal             ra,-12894       # 0x80001324

----------------
IN: 
Priv: 3; Virt: 0
0x0000000080004586:  0014861b          addiw           a2,s1,1
0x000000008000458a:  1602              slli            a2,a2,32
0x000000008000458c:  2501              sext.w          a0,a0
0x000000008000458e:  9201              srli            a2,a2,32
0x0000000080004590:  08000593          addi            a1,zero,128
0x0000000080004594:  fd956be3          bgtu            s9,a0,-42       # 0x8000456a

----------------
IN: 
Priv: 3; Virt: 0
0x000000008000456a:  05893503          ld              a0,88(s2)
0x000000008000456e:  834ff0ef          jal             ra,-4044        # 0x800035a2

----------------
IN: 
Priv: 3; Virt: 0
0x00000000800035a2:  1141              addi            sp,sp,-16
0x00000000800035a4:  e422              sd              s0,8(sp)
0x00000000800035a6:  0800              addi            s0,sp,16
0x00000000800035a8:  0ab67363          bleu            a1,a2,166       # 0x8000364e

----------------
IN: 
Priv: 3; Virt: 0
0x00000000800035ac:  00665713          srli            a4,a2,6
0x00000000800035b0:  87aa              mv              a5,a0
0x00000000800035b2:  070e              slli            a4,a4,3
0x00000000800035b4:  fc067513          andi            a0,a2,-64
0x00000000800035b8:  03f67613          andi            a2,a2,63
0x00000000800035bc:  97ba              add             a5,a5,a4
0x00000000800035be:  8d89              sub             a1,a1,a0
0x00000000800035c0:  e62d              bnez            a2,106          # 0x8000362a

----------------
IN: 
Priv: 3; Virt: 0
0x000000008000362a:  0007b803          ld              a6,0(a5)
0x000000008000362e:  577d              addi            a4,zero,-1
0x0000000080003630:  00c71733          sll             a4,a4,a2
0x0000000080003634:  03f00693          addi            a3,zero,63
0x0000000080003638:  01077733          and             a4,a4,a6
0x000000008000363c:  00b6ff63          bleu            a1,a3,30        # 0x8000365a

----------------
IN: 
Priv: 3; Virt: 0
0x0000000080003640:  f34d              bnez            a4,-94          # 0x800035e2

----------------
IN: 
Priv: 3; Virt: 0
0x0000000080003642:  07a1              addi            a5,a5,8
0x0000000080003644:  fc058593          addi            a1,a1,-64
0x0000000080003648:  04050513          addi            a0,a0,64
0x000000008000364c:  bf9d              j               -138            # 0x800035c2

----------------
IN: 
Priv: 3; Virt: 0
0x00000000800035c2:  fc05f713          andi            a4,a1,-64
0x00000000800035c6:  cb41              beqz            a4,144          # 0x80003656

----------------
IN: 
Priv: 3; Virt: 0
0x00000000800035c8:  00b506b3          add             a3,a0,a1
0x00000000800035cc:  a801              j               16              # 0x800035dc

----------------
IN: 
Priv: 3; Virt: 0
0x00000000800035dc:  6398              ld              a4,0(a5)
0x00000000800035de:  07a1              addi            a5,a5,8
0x00000000800035e0:  d77d              beqz            a4,-18          # 0x800035ce

----------------
IN: 
Priv: 3; Virt: 0
0x00000000800035ce:  04050513          addi            a0,a0,64
0x00000000800035d2:  40a685b3          sub             a1,a3,a0
0x00000000800035d6:  fc05f713          andi            a4,a1,-64
0x00000000800035da:  cf35              beqz            a4,124          # 0x80003656

----------------
IN: 
Priv: 3; Virt: 0
0x0000000080003656:  d5f9              beqz            a1,-50          # 0x80003624

----------------
IN: 
Priv: 3; Virt: 0
0x0000000080003624:  6422              ld              s0,8(sp)
0x0000000080003626:  0141              addi            sp,sp,16
0x0000000080003628:  8082              ret             

----------------
IN: 
Priv: 3; Virt: 0
0x0000000080004572:  0005049b          sext.w          s1,a0
0x0000000080004576:  049c6c63          bgtu            s1,s8,88        # 0x800045ce

----------------
IN: 
Priv: 3; Virt: 0
0x00000000800045ce:  06093583          ld              a1,96(s2)
0x00000000800045d2:  32058463          beqz            a1,808          # 0x800048fa

----------------
IN: 
Priv: 3; Virt: 0
0x00000000800045d6:  0005b803          ld              a6,0(a1)
0x00000000800045da:  852e              mv              a0,a1
0x00000000800045dc:  03d00313          addi            t1,zero,61
0x00000000800045e0:  8742              mv              a4,a6
0x00000000800045e2:  58fd              addi            a7,zero,-1
0x00000000800045e4:  06080263          beqz            a6,100          # 0x80004648

----------------
IN: 
Priv: 3; Virt: 0
0x00000000800045e8:  00e897b3          sll             a5,a7,a4
0x00000000800045ec:  ffd70613          addi            a2,a4,-3
0x00000000800045f0:  6514              ld              a3,8(a0)
0x00000000800045f2:  fff7c793          not             a5,a5
0x00000000800045f6:  02c36b63          bgtu            a2,t1,54        # 0x8000462c

----------------
IN: 
Priv: 3; Virt: 0
0x00000000800045fa:  8ff5              and             a5,a5,a3
0x00000000800045fc:  eb85              bnez            a5,48           # 0x8000462c

----------------
IN: 
Priv: 3; Virt: 0
0x00000000800045fe:  6d18              ld              a4,24(a0)
0x0000000080004600:  0561              addi            a0,a0,24
0x0000000080004602:  f37d              bnez            a4,-26          # 0x800045e8

----------------
IN: 
Priv: 3; Virt: 0
0x0000000080004604:  0009b683          ld              a3,0(s3)
0x0000000080004608:  0089b503          ld              a0,8(s3)
0x000000008000460c:  0109b603          ld              a2,16(s3)
0x0000000080004610:  87ae              mv              a5,a1
0x0000000080004612:  4701              mv              a4,zero
0x0000000080004614:  4d01              mv              s10,zero
0x0000000080004616:  05068663          beq             a3,a6,76        # 0x80004662

----------------
IN: 
Priv: 3; Virt: 0
0x0000000080004662:  0087b803          ld              a6,8(a5)
0x0000000080004666:  faa81ae3          bne             a6,a0,-76       # 0x8000461a

----------------
IN: 
Priv: 3; Virt: 0
0x000000008000466a:  0107b803          ld              a6,16(a5)
0x000000008000466e:  fac816e3          bne             a6,a2,-84       # 0x8000461a

----------------
IN: 
Priv: 3; Virt: 0
0x0000000080004672:  4705              addi            a4,zero,1
0x0000000080004674:  b75d              j               -90             # 0x8000461a

----------------
IN: 
Priv: 3; Virt: 0
0x000000008000461a:  0187b803          ld              a6,24(a5)
0x000000008000461e:  001d0e1b          addiw           t3,s10,1
0x0000000080004622:  07e1              addi            a5,a5,24
0x0000000080004624:  06080a63          beqz            a6,116          # 0x80004698

----------------
IN: 
Priv: 3; Virt: 0
0x0000000080004628:  8d72              mv              s10,t3
0x000000008000462a:  b7f5              j               -20             # 0x80004616

----------------
IN: 
Priv: 3; Virt: 0
0x0000000080004616:  05068663          beq             a3,a6,76        # 0x80004662

----------------
IN: 
Priv: 3; Virt: 0
0x0000000080004698:  db45              beqz            a4,-80          # 0x80004648

----------------
IN: 
Priv: 3; Virt: 0
0x000000008000469a:  4305              addi            t1,zero,1
0x000000008000469c:  4d85              addi            s11,zero,1
0x000000008000469e:  120d0763          beqz            s10,302         # 0x800047cc

----------------
IN: 
Priv: 3; Virt: 0
0x00000000800046a2:  00030e9b          sext.w          t4,t1
0x00000000800046a6:  01058cb3          add             s9,a1,a6
0x00000000800046aa:  01880b13          addi            s6,a6,24
0x00000000800046ae:  0fcefb63          bleu            t3,t4,246       # 0x800047a4

----------------
IN: 
Priv: 3; Virt: 0
0x00000000800046b2:  41dd07bb          subw            a5,s10,t4
0x00000000800046b6:  1782              slli            a5,a5,32
0x00000000800046b8:  9381              srli            a5,a5,32
0x00000000800046ba:  00130713          addi            a4,t1,1
0x00000000800046be:  97ba              add             a5,a5,a4
0x00000000800046c0:  00179f13          slli            t5,a5,1
0x00000000800046c4:  01880b13          addi            s6,a6,24
0x00000000800046c8:  9f3e              add             t5,t5,a5
0x00000000800046ca:  8c5a              mv              s8,s6
0x00000000800046cc:  0f0e              slli            t5,t5,3
0x00000000800046ce:  018584b3          add             s1,a1,s8
0x00000000800046d2:  008cb683          ld              a3,8(s9)
0x00000000800046d6:  0084b803          ld              a6,8(s1)
0x00000000800046da:  0004b883          ld              a7,0(s1)
0x00000000800046de:  000cb703          ld              a4,0(s9)
0x00000000800046e2:  fff68793          addi            a5,a3,-1
0x00000000800046e6:  02d87863          bleu            a3,a6,48        # 0x80004716

----------------
IN: 
Priv: 3; Virt: 0
0x00000000800046ea:  00ed95b3          sll             a1,s11,a4
0x00000000800046ee:  fff58613          addi            a2,a1,-1
0x00000000800046f2:  9642              add             a2,a2,a6
0x00000000800046f4:  97ae              add             a5,a5,a1
0x00000000800046f6:  00c6f663          bleu            a2,a3,12        # 0x80004702

----------------
IN: 
Priv: 3; Virt: 0
0x0000000080004702:  04e8ef63          bgtu            a4,a7,94        # 0x80004760

----------------
IN: 
Priv: 3; Virt: 0
0x0000000080004706:  05170b63          beq             a4,a7,86        # 0x8000475c

----------------
IN: 
Priv: 3; Virt: 0
0x000000008000470a:  0c61              addi            s8,s8,24
0x000000008000470c:  098f0c63          beq             t5,s8,152       # 0x800047a4

----------------
IN: 
Priv: 3; Virt: 0
0x00000000800047a4:  885a              mv              a6,s6
0x00000000800047a6:  03aef363          bleu            s10,t4,38       # 0x800047cc

----------------
IN: 
Priv: 3; Virt: 0
0x00000000800047cc:  08093603          ld              a2,128(s2)
0x00000000800047d0:  4785              addi            a5,zero,1
0x00000000800047d2:  10c7e663          bgtu            a2,a5,268       # 0x800048de

----------------
IN: 
Priv: 3; Virt: 0
0x00000000800047d6:  07893483          ld              s1,120(s2)
0x00000000800047da:  4691              addi            a3,zero,4
0x00000000800047dc:  854a              mv              a0,s2
0x00000000800047de:  85a6              mv              a1,s1
0x00000000800047e0:  901ff0ef          jal             ra,-1792        # 0x800040e0

----------------
IN: 
Priv: 3; Virt: 0
0x00000000800040e0:  1141              addi            sp,sp,-16
0x00000000800040e2:  e422              sd              s0,8(sp)
0x00000000800040e4:  0800              addi            s0,sp,16
0x00000000800040e6:  cd41              beqz            a0,152          # 0x8000417e

----------------
IN: 
Priv: 3; Virt: 0
0x00000000800040e8:  0026f793          andi            a5,a3,2
0x00000000800040ec:  0016ff13          andi            t5,a3,1
0x00000000800040f0:  c399              beqz            a5,6            # 0x800040f6

----------------
IN: 
Priv: 3; Virt: 0
0x00000000800040f6:  0046f793          andi            a5,a3,4
0x00000000800040fa:  efad              bnez            a5,122          # 0x80004174

----------------
IN: 
Priv: 3; Virt: 0
0x0000000080004174:  004f6f13          ori             t5,t5,4
0x0000000080004178:  b751              j               -124            # 0x800040fc

----------------
IN: 
Priv: 3; Virt: 0
0x00000000800040fc:  713c              ld              a5,96(a0)
0x00000000800040fe:  6398              ld              a4,0(a5)
0x0000000080004100:  c725              beqz            a4,104          # 0x80004168

----------------
IN: 
Priv: 3; Virt: 0
0x0000000080004102:  4e0d              addi            t3,zero,3
0x0000000080004104:  03f00e93          addi            t4,zero,63
0x0000000080004108:  4305              addi            t1,zero,1
0x000000008000410a:  a819              j               22              # 0x80004120

----------------
IN: 
Priv: 3; Virt: 0
0x0000000080004120:  0107b883          ld              a7,16(a5)
0x0000000080004124:  00e31533          sll             a0,t1,a4
0x0000000080004128:  03c60963          beq             a2,t3,50        # 0x8000415a

----------------
IN: 
Priv: 3; Virt: 0
0x000000008000412c:  0087b803          ld              a6,8(a5)
0x0000000080004130:  fceefee3          bleu            a4,t4,-36       # 0x8000410c

----------------
IN: 
Priv: 3; Virt: 0
0x000000008000410c:  fff80713          addi            a4,a6,-1
0x0000000080004110:  953a              add             a0,a0,a4
0x0000000080004112:  0105e463          bgtu            a6,a1,8         # 0x8000411a

----------------
IN: 
Priv: 3; Virt: 0
0x0000000080004116:  02b57163          bleu            a1,a0,34        # 0x80004138

----------------
IN: 
Priv: 3; Virt: 0
0x000000008000411a:  6f98              ld              a4,24(a5)
0x000000008000411c:  07e1              addi            a5,a5,24
0x000000008000411e:  c729              beqz            a4,74           # 0x80004168

----------------
IN: 
Priv: 3; Virt: 0
0x0000000080004134:  ff05e3e3          bgtu            a6,a1,-26       # 0x8000411a

----------------
IN: 
Priv: 3; Virt: 0
0x0000000080004138:  4785              addi            a5,zero,1
0x000000008000413a:  07fe              slli            a5,a5,31
0x000000008000413c:  8aa1              andi            a3,a3,8
0x000000008000413e:  00f8f7b3          and             a5,a7,a5
0x0000000080004142:  4501              mv              a0,zero
0x0000000080004144:  ea9d              bnez            a3,54           # 0x8000417a

----------------
IN: 
Priv: 3; Virt: 0
0x0000000080004146:  e785              bnez            a5,40           # 0x8000416e

----------------
IN: 
Priv: 3; Virt: 0
0x0000000080004148:  6422              ld              s0,8(sp)
0x000000008000414a:  011f77b3          and             a5,t5,a7
0x000000008000414e:  41e787b3          sub             a5,a5,t5
0x0000000080004152:  0017b513          seqz            a0,a5
0x0000000080004156:  0141              addi            sp,sp,16
0x0000000080004158:  8082              ret             

----------------
IN: 
Priv: 3; Virt: 0
0x00000000800047e4:  cd79              beqz            a0,222          # 0x800048c2

----------------
IN: 
Priv: 3; Virt: 0
0x00000000800047e6:  000ba783          lw              a5,0(s7)
0x00000000800047ea:  08000593          addi            a1,zero,128
0x00000000800047ee:  8552              mv              a0,s4
0x00000000800047f0:  02079693          slli            a3,a5,32
0x00000000800047f4:  01d6d713          srli            a4,a3,29
0x00000000800047f8:  00f92023          sw              a5,0(s2)
0x00000000800047fc:  974e              add             a4,a4,s3
0x00000000800047fe:  05273423          sd              s2,72(a4)
0x0000000080004802:  2785              addiw           a5,a5,1
0x0000000080004804:  00093423          sd              zero,8(s2)
0x0000000080004808:  00093823          sd              zero,16(s2)
0x000000008000480c:  00fba023          sw              a5,0(s7)
0x0000000080004810:  bd9fe0ef          jal             ra,-5160        # 0x800033e8

----------------
IN: 
Priv: 3; Virt: 0
0x0000000080004814:  0005049b          sext.w          s1,a0
0x0000000080004818:  07f00793          addi            a5,zero,127
0x000000008000481c:  00890b93          addi            s7,s2,8
0x0000000080004820:  2a81              sext.w          s5,s5
0x0000000080004822:  4c05              addi            s8,zero,1
0x0000000080004824:  0000dc97          auipc           s9,53248        # 0x80011824
0x0000000080004828:  96cc8c93          addi            s9,s9,-1684
0x000000008000482c:  07f00b13          addi            s6,zero,127
0x0000000080004830:  0297f063          bleu            s1,a5,32        # 0x80004850

----------------
IN: 
Priv: 3; Virt: 0
0x0000000080004850:  05893703          ld              a4,88(s2)
0x0000000080004854:  4064d693          srai            a3,s1,6
0x0000000080004858:  068e              slli            a3,a3,3
0x000000008000485a:  9736              add             a4,a4,a3
0x000000008000485c:  6318              ld              a4,0(a4)
0x000000008000485e:  02049793          slli            a5,s1,32
0x0000000080004862:  01d7d613          srli            a2,a5,29
0x0000000080004866:  00c985b3          add             a1,s3,a2
0x000000008000486a:  03f4f613          andi            a2,s1,63
0x000000008000486e:  00c75733          srl             a4,a4,a2
0x0000000080004872:  8b05              andi            a4,a4,1
0x0000000080004874:  00db8533          add             a0,s7,a3
0x0000000080004878:  df5d              beqz            a4,-66          # 0x80004836

----------------
IN: 
Priv: 3; Virt: 0
0x000000008000487a:  1485b703          ld              a4,328(a1)
0x000000008000487e:  00cc1633          sll             a2,s8,a2
0x0000000080004882:  fff64813          not             a6,a2
0x0000000080004886:  00870793          addi            a5,a4,8
0x000000008000488a:  97b6              add             a5,a5,a3
0x000000008000488c:  c709              beqz            a4,10           # 0x80004896

----------------
IN: 
Priv: 3; Virt: 0
0x0000000080004896:  1525b423          sd              s2,328(a1)
0x000000008000489a:  611c              ld              a5,0(a0)
0x000000008000489c:  8fd1              or              a5,a5,a2
0x000000008000489e:  e11c              sd              a5,0(a0)
0x00000000800048a0:  f89a9be3          bne             s5,s1,-106      # 0x80004836

----------------
IN: 
Priv: 3; Virt: 0
0x00000000800048a4:  06892783          lw              a5,104(s2)
0x00000000800048a8:  8656              mv              a2,s5
0x00000000800048aa:  8566              mv              a0,s9
0x00000000800048ac:  f95785e3          beq             a5,s5,-118      # 0x80004836

----------------
IN: 
Priv: 3; Virt: 0
0x0000000080004836:  0014861b          addiw           a2,s1,1
0x000000008000483a:  1602              slli            a2,a2,32
0x000000008000483c:  9201              srli            a2,a2,32
0x000000008000483e:  08000593          addi            a1,zero,128
0x0000000080004842:  8552              mv              a0,s4
0x0000000080004844:  d5ffe0ef          jal             ra,-4770        # 0x800035a2

----------------
IN: 
Priv: 3; Virt: 0
0x0000000080004848:  0005049b          sext.w          s1,a0
0x000000008000484c:  069b6963          bgtu            s1,s6,114       # 0x800048be

----------------
IN: 
Priv: 3; Virt: 0
0x00000000800048be:  4501              mv              a0,zero
0x00000000800048c0:  b981              j               -944            # 0x80004510

----------------
IN: 
Priv: 3; Virt: 0
0x0000000080004510:  70ea              ld              ra,184(sp)
0x0000000080004512:  744a              ld              s0,176(sp)
0x0000000080004514:  74aa              ld              s1,168(sp)
0x0000000080004516:  790a              ld              s2,160(sp)
0x0000000080004518:  69ea              ld              s3,152(sp)
0x000000008000451a:  6a4a              ld              s4,144(sp)
0x000000008000451c:  6aaa              ld              s5,136(sp)
0x000000008000451e:  6b0a              ld              s6,128(sp)
0x0000000080004520:  7be6              ld              s7,120(sp)
0x0000000080004522:  7c46              ld              s8,112(sp)
0x0000000080004524:  7ca6              ld              s9,104(sp)
0x0000000080004526:  7d06              ld              s10,96(sp)
0x0000000080004528:  6de6              ld              s11,88(sp)
0x000000008000452a:  6129              addi            sp,sp,192
0x000000008000452c:  8082              ret             

----------------
IN: 
Priv: 3; Virt: 0
0x0000000080004b2a:  60a6              ld              ra,72(sp)
0x0000000080004b2c:  6406              ld              s0,64(sp)
0x0000000080004b2e:  74e2              ld              s1,56(sp)
0x0000000080004b30:  7942              ld              s2,48(sp)
0x0000000080004b32:  79a2              ld              s3,40(sp)
0x0000000080004b34:  7a02              ld              s4,32(sp)
0x0000000080004b36:  6ae2              ld              s5,24(sp)
0x0000000080004b38:  6b42              ld              s6,16(sp)
0x0000000080004b3a:  6ba2              ld              s7,8(sp)
0x0000000080004b3c:  6161              addi            sp,sp,80
0x0000000080004b3e:  8082              ret             

----------------
IN: 
Priv: 3; Virt: 0
0x0000000080000974:  e60516e3          bnez            a0,-404         # 0x800007e0

----------------
IN: 
Priv: 3; Virt: 0
0x0000000080000978:  0000f597          auipc           a1,61440        # 0x8000f978
0x000000008000097c:  68858593          addi            a1,a1,1672
0x0000000080000980:  4521              addi            a0,zero,8
0x0000000080000982:  269000ef          jal             ra,2664         # 0x800013ea

----------------
IN: 
Priv: 3; Virt: 0
0x00000000800013ea:  7139              addi            sp,sp,-64
0x00000000800013ec:  f822              sd              s0,48(sp)
0x00000000800013ee:  fc06              sd              ra,56(sp)
0x00000000800013f0:  f426              sd              s1,40(sp)
0x00000000800013f2:  f04a              sd              s2,32(sp)
0x00000000800013f4:  ec4e              sd              s3,24(sp)
0x00000000800013f6:  e852              sd              s4,16(sp)
0x00000000800013f8:  e456              sd              s5,8(sp)
0x00000000800013fa:  0080              addi            s0,sp,64
0x00000000800013fc:  c959              beqz            a0,150          # 0x80001492

----------------
IN: 
Priv: 3; Virt: 0
0x00000000800013fe:  00757793          andi            a5,a0,7
0x0000000080001402:  84aa              mv              s1,a0
0x0000000080001404:  c781              beqz            a5,8            # 0x8000140c

----------------
IN: 
Priv: 3; Virt: 0
0x000000008000140c:  00012517          auipc           a0,73728        # 0x8001340c
0x0000000080001410:  c1c50513          addi            a0,a0,-996
0x0000000080001414:  6f5010ef          jal             ra,7924         # 0x80003308

----------------
IN: 
Priv: 3; Virt: 0
0x0000000080003308:  1141              addi            sp,sp,-16
0x000000008000330a:  e422              sd              s0,8(sp)
0x000000008000330c:  0800              addi            s0,sp,16
0x000000008000330e:  4705              addi            a4,zero,1
0x0000000080003310:  611c              ld              a5,0(a0)
0x0000000080003312:  fffd              bnez            a5,-2           # 0x80003310

----------------
IN: 
Priv: 3; Virt: 0
0x0000000080003314:  08e527af          amoswap.w       a5,a4,(a0)
0x0000000080003318:  0230000f          fence           r,rw
0x000000008000331c:  2781              sext.w          a5,a5
0x000000008000331e:  fbed              bnez            a5,-14          # 0x80003310

----------------
IN: 
Priv: 3; Virt: 0
0x0000000080003320:  6422              ld              s0,8(sp)
0x0000000080003322:  0141              addi            sp,sp,16
0x0000000080003324:  8082              ret             

----------------
IN: 
Priv: 3; Virt: 0
0x0000000080001418:  00011797          auipc           a5,69632        # 0x80012418
0x000000008000141c:  bf078793          addi            a5,a5,-1040
0x0000000080001420:  0007ba03          ld              s4,0(a5)
0x0000000080001424:  6685              lui             a3,4096
0x0000000080001426:  00012517          auipc           a0,73728        # 0x80013426
0x000000008000142a:  c0250513          addi            a0,a0,-1022
0x000000008000142e:  009a0733          add             a4,s4,s1
0x0000000080001432:  04e6ec63          bgtu            a4,a3,88        # 0x8000148a

----------------
IN: 
Priv: 3; Virt: 0
0x0000000080001436:  e398              sd              a4,0(a5)
0x0000000080001438:  6ef010ef          jal             ra,7918         # 0x80003326

----------------
IN: 
Priv: 3; Virt: 0
0x0000000080003326:  1141              addi            sp,sp,-16
0x0000000080003328:  e422              sd              s0,8(sp)
0x000000008000332a:  0800              addi            s0,sp,16
0x000000008000332c:  0310000f          fence           rw,w
0x0000000080003330:  6422              ld              s0,8(sp)
0x0000000080003332:  00053023          sd              zero,0(a0)
0x0000000080003336:  0141              addi            sp,sp,16
0x0000000080003338:  8082              ret             

----------------
IN: 
Priv: 3; Virt: 0
0x000000008000143c:  040a0b63          beqz            s4,86           # 0x80001492

----------------
IN: 
Priv: 3; Virt: 0
0x0000000080001440:  00011a97          auipc           s5,69632        # 0x80012440
0x0000000080001444:  bd0a8a93          addi            s5,s5,-1072
0x0000000080001448:  000aa783          lw              a5,0(s5)
0x000000008000144c:  c78d              beqz            a5,42           # 0x80001476

----------------
IN: 
Priv: 3; Virt: 0
0x0000000080001476:  70e2              ld              ra,56(sp)
0x0000000080001478:  7442              ld              s0,48(sp)
0x000000008000147a:  74a2              ld              s1,40(sp)
0x000000008000147c:  7902              ld              s2,32(sp)
0x000000008000147e:  69e2              ld              s3,24(sp)
0x0000000080001480:  6aa2              ld              s5,8(sp)
0x0000000080001482:  8552              mv              a0,s4
0x0000000080001484:  6a42              ld              s4,16(sp)
0x0000000080001486:  6121              addi            sp,sp,64
0x0000000080001488:  8082              ret             

----------------
IN: 
Priv: 3; Virt: 0
0x0000000080000986:  00012a17          auipc           s4,73728        # 0x80012986
0x000000008000098a:  682a0a13          addi            s4,s4,1666
0x000000008000098e:  00aa3023          sd              a0,0(s4)
0x0000000080000992:  e40507e3          beqz            a0,-434         # 0x800007e0

----------------
IN: 
Priv: 3; Virt: 0
0x0000000080000996:  4605              addi            a2,zero,1
0x0000000080000998:  85ca              mv              a1,s2
0x000000008000099a:  8526              mv              a0,s1
0x000000008000099c:  176070ef          jal             ra,29046        # 0x80007b12

----------------
IN: 
Priv: 3; Virt: 0
0x0000000080007b12:  7139              addi            sp,sp,-64
0x0000000080007b14:  f822              sd              s0,48(sp)
0x0000000080007b16:  f04a              sd              s2,32(sp)
0x0000000080007b18:  fc06              sd              ra,56(sp)
0x0000000080007b1a:  f426              sd              s1,40(sp)
0x0000000080007b1c:  ec4e              sd              s3,24(sp)
0x0000000080007b1e:  e852              sd              s4,16(sp)
0x0000000080007b20:  e456              sd              s5,8(sp)
0x0000000080007b22:  0080              addi            s0,sp,64
0x0000000080007b24:  892e              mv              s2,a1
0x0000000080007b26:  c23d              beqz            a2,102          # 0x80007b8c

----------------
IN: 
Priv: 3; Virt: 0
0x0000000080007b28:  0000a597          auipc           a1,40960        # 0x80011b28
0x0000000080007b2c:  8c858593          addi            a1,a1,-1848
0x0000000080007b30:  4521              addi            a0,zero,8
0x0000000080007b32:  8b9f90ef          jal             ra,-26440       # 0x800013ea

----------------
IN: 
Priv: 3; Virt: 0
0x0000000080007b36:  0000b797          auipc           a5,45056        # 0x80012b36
0x0000000080007b3a:  54a7bd23          sd              a0,1370(a5)
0x0000000080007b3e:  c559              beqz            a0,142          # 0x80007bcc

----------------
IN: 
Priv: 3; Virt: 0
0x0000000080007b40:  4701              mv              a4,zero
0x0000000080007b42:  0000b817          auipc           a6,45056        # 0x80012b42
0x0000000080007b46:  7ce80813          addi            a6,a6,1998
0x0000000080007b4a:  0000a597          auipc           a1,40960        # 0x80011b4a
0x0000000080007b4e:  4c658593          addi            a1,a1,1222
0x0000000080007b52:  02071693          slli            a3,a4,32
0x0000000080007b56:  01d6d793          srli            a5,a3,29
0x0000000080007b5a:  97c2              add             a5,a5,a6
0x0000000080007b5c:  6394              ld              a3,0(a5)
0x0000000080007b5e:  40e907b3          sub             a5,s2,a4
0x0000000080007b62:  0017b793          seqz            a5,a5
0x0000000080007b66:  2705              addiw           a4,a4,1
0x0000000080007b68:  00a68633          add             a2,a3,a0
0x0000000080007b6c:  0786              slli            a5,a5,1
0x0000000080007b6e:  c291              beqz            a3,4            # 0x80007b72

----------------
IN: 
Priv: 3; Virt: 0
0x0000000080007b70:  e21c              sd              a5,0(a2)
0x0000000080007b72:  419c              lw              a5,0(a1)
0x0000000080007b74:  fce7ffe3          bleu            a4,a5,-34       # 0x80007b52

----------------
IN: 
Priv: 3; Virt: 0
0x0000000080007b78:  4501              mv              a0,zero
0x0000000080007b7a:  70e2              ld              ra,56(sp)
0x0000000080007b7c:  7442              ld              s0,48(sp)
0x0000000080007b7e:  74a2              ld              s1,40(sp)
0x0000000080007b80:  7902              ld              s2,32(sp)
0x0000000080007b82:  69e2              ld              s3,24(sp)
0x0000000080007b84:  6a42              ld              s4,16(sp)
0x0000000080007b86:  6aa2              ld              s5,8(sp)
0x0000000080007b88:  6121              addi            sp,sp,64
0x0000000080007b8a:  8082              ret             

----------------
IN: 
Priv: 3; Virt: 0
0x00000000800009a0:  e40510e3          bnez            a0,-448         # 0x800007e0

----------------
IN: 
Priv: 3; Virt: 0
0x00000000800009a4:  000a8a63          beqz            s5,20           # 0x800009b8

----------------
IN: 
Priv: 3; Virt: 0
0x00000000800009a8:  058ab783          ld              a5,88(s5)
0x00000000800009ac:  639c              ld              a5,0(a5)
0x00000000800009ae:  c789              beqz            a5,10           # 0x800009b8

----------------
IN: 
Priv: 3; Virt: 0
0x00000000800009b0:  4505              addi            a0,zero,1
0x00000000800009b2:  9782              jalr            ra,a5,0

----------------
IN: 
Priv: 3; Virt: 0
0x000000008000275a:  1101              addi            sp,sp,-32
0x000000008000275c:  e822              sd              s0,16(sp)
0x000000008000275e:  e426              sd              s1,8(sp)
0x0000000080002760:  ec06              sd              ra,24(sp)
0x0000000080002762:  1000              addi            s0,sp,32
0x0000000080002764:  00011797          auipc           a5,69632        # 0x80013764
0x0000000080002768:  9047b783          ld              a5,-1788(a5)
0x000000008000276c:  84aa              mv              s1,a0
0x000000008000276e:  cb89              beqz            a5,18           # 0x80002780

----------------
IN: 
Priv: 3; Virt: 0
0x0000000080002780:  4501              mv              a0,zero
0x0000000080002782:  e491              bnez            s1,12           # 0x8000278e

----------------
IN: 
Priv: 3; Virt: 0
0x000000008000278e:  3f7060ef          jal             ra,27638        # 0x80009384

----------------
IN: 
Priv: 3; Virt: 0
0x0000000080009384:  7179              addi            sp,sp,-48
0x0000000080009386:  f022              sd              s0,32(sp)
0x0000000080009388:  f406              sd              ra,40(sp)
0x000000008000938a:  ec26              sd              s1,24(sp)
0x000000008000938c:  e84a              sd              s2,16(sp)
0x000000008000938e:  1800              addi            s0,sp,48
0x0000000080009390:  340027f3          csrrs           a5,mscratch,zero

----------------
IN: 
Priv: 3; Virt: 0
0x0000000080009394:  00009497          auipc           s1,36864        # 0x80012394
0x0000000080009398:  11448493          addi            s1,s1,276
0x000000008000939c:  0107b903          ld              s2,16(a5)
0x00000000800093a0:  6090              ld              a2,0(s1)
0x00000000800093a2:  55fd              addi            a1,zero,-1
0x00000000800093a4:  fd840693          addi            a3,s0,-40
0x00000000800093a8:  854a              mv              a0,s2
0x00000000800093aa:  66d020ef          jal             ra,11884        # 0x8000c216

----------------
IN: 
Priv: 3; Virt: 0
0x000000008000adaa:  4505              addi            a0,zero,1
0x000000008000adac:  a011              j               4               # 0x8000adb0

----------------
IN: 
Priv: 3; Virt: 0
0x000000008000adb0:  70e2              ld              ra,56(sp)
0x000000008000adb2:  7442              ld              s0,48(sp)
0x000000008000adb4:  74a2              ld              s1,40(sp)
0x000000008000adb6:  7902              ld              s2,32(sp)
0x000000008000adb8:  69e2              ld              s3,24(sp)
0x000000008000adba:  6a42              ld              s4,16(sp)
0x000000008000adbc:  6aa2              ld              s5,8(sp)
0x000000008000adbe:  6121              addi            sp,sp,64
0x000000008000adc0:  8082              ret             

----------------
IN: 
Priv: 3; Virt: 0
0x000000008000c24a:  000a0e63          beqz            s4,28           # 0x8000c266

----------------
IN: 
Priv: 3; Virt: 0
0x000000008000c24e:  009a3023          sd              s1,0(s4)
0x000000008000c252:  70a2              ld              ra,40(sp)
0x000000008000c254:  7402              ld              s0,32(sp)
0x000000008000c256:  64e2              ld              s1,24(sp)
0x000000008000c258:  6942              ld              s2,16(sp)
0x000000008000c25a:  69a2              ld              s3,8(sp)
0x000000008000c25c:  6a02              ld              s4,0(sp)
0x000000008000c25e:  6145              addi            sp,sp,48
0x000000008000c260:  8082              ret             

----------------
IN: 
Priv: 3; Virt: 0
0x00000000800093ae:  85aa              mv              a1,a0
0x00000000800093b0:  02054463          bltz            a0,40           # 0x800093d8

----------------
IN: 
Priv: 3; Virt: 0
0x00000000800093b4:  649c              ld              a5,8(s1)
0x00000000800093b6:  c791              beqz            a5,12           # 0x800093c2

----------------
IN: 
Priv: 3; Virt: 0
0x00000000800093b8:  fd843603          ld              a2,-40(s0)
0x00000000800093bc:  854a              mv              a0,s2
0x00000000800093be:  9782              jalr            ra,a5,0

----------------
IN: 
Priv: 3; Virt: 0
0x0000000080009402:  1101              addi            sp,sp,-32
0x0000000080009404:  e822              sd              s0,16(sp)
0x0000000080009406:  ec06              sd              ra,24(sp)
0x0000000080009408:  1000              addi            s0,sp,32
0x000000008000940a:  4681              mv              a3,zero
0x000000008000940c:  fe840613          addi            a2,s0,-24
0x0000000080009410:  66d020ef          jal             ra,11884        # 0x8000c27c

----------------
IN: 
Priv: 3; Virt: 0
0x000000008000c27c:  7119              addi            sp,sp,-128
0x000000008000c27e:  f8a2              sd              s0,112(sp)
0x000000008000c280:  f4a6              sd              s1,104(sp)
0x000000008000c282:  f0ca              sd              s2,96(sp)
0x000000008000c284:  e8d2              sd              s4,80(sp)
0x000000008000c286:  e0da              sd              s6,64(sp)
0x000000008000c288:  f466              sd              s9,40(sp)
0x000000008000c28a:  fc86              sd              ra,120(sp)
0x000000008000c28c:  ecce              sd              s3,88(sp)
0x000000008000c28e:  e4d6              sd              s5,72(sp)
0x000000008000c290:  fc5e              sd              s7,56(sp)
0x000000008000c292:  f862              sd              s8,48(sp)
0x000000008000c294:  f06a              sd              s10,32(sp)
0x000000008000c296:  ec6e              sd              s11,24(sp)
0x000000008000c298:  0100              addi            s0,sp,128
0x000000008000c29a:  892a              mv              s2,a0
0x000000008000c29c:  84ae              mv              s1,a1
0x000000008000c29e:  8a32              mv              s4,a2
0x000000008000c2a0:  8b36              mv              s6,a3
0x000000008000c2a2:  973fe0ef          jal             ra,-5774        # 0x8000ac14

----------------
IN: 
Priv: 3; Virt: 0
0x000000008000ac14:  7179              addi            sp,sp,-48
0x000000008000ac16:  f022              sd              s0,32(sp)
0x000000008000ac18:  ec26              sd              s1,24(sp)
0x000000008000ac1a:  e84a              sd              s2,16(sp)
0x000000008000ac1c:  1800              addi            s0,sp,48
0x000000008000ac1e:  f406              sd              ra,40(sp)
0x000000008000ac20:  fdc40693          addi            a3,s0,-36
0x000000008000ac24:  4601              mv              a2,zero
0x000000008000ac26:  84aa              mv              s1,a0
0x000000008000ac28:  892e              mv              s2,a1
0x000000008000ac2a:  f29ff0ef          jal             ra,-216         # 0x8000ab52

----------------
IN: 
Priv: 3; Virt: 0
0x000000008000ab52:  715d              addi            sp,sp,-80
0x000000008000ab54:  e0a2              sd              s0,64(sp)
0x000000008000ab56:  fc26              sd              s1,56(sp)
0x000000008000ab58:  f84a              sd              s2,48(sp)
0x000000008000ab5a:  f44e              sd              s3,40(sp)
0x000000008000ab5c:  f052              sd              s4,32(sp)
0x000000008000ab5e:  e486              sd              ra,72(sp)
0x000000008000ab60:  ec56              sd              s5,24(sp)
0x000000008000ab62:  0880              addi            s0,sp,80
0x000000008000ab64:  89aa              mv              s3,a0
0x000000008000ab66:  84ae              mv              s1,a1
0x000000008000ab68:  8932              mv              s2,a2
0x000000008000ab6a:  8a36              mv              s4,a3
0x000000008000ab6c:  8bbfe0ef          jal             ra,-5958        # 0x80009426

----------------
IN: 
Priv: 3; Virt: 0
0x000000008000ab70:  87aa              mv              a5,a0
0x000000008000ab72:  00054563          bltz            a0,10           # 0x8000ab7c

----------------
IN: 
Priv: 3; Virt: 0
0x000000008000ab76:  57fd              addi            a5,zero,-1
0x000000008000ab78:  00095c63          bgez            s2,24           # 0x8000ab90

----------------
IN: 
Priv: 3; Virt: 0
0x000000008000ab90:  fa042e23          sw              zero,-68(s0)
0x000000008000ab94:  5acd              addi            s5,zero,-13
0x000000008000ab96:  4781              mv              a5,zero
0x000000008000ab98:  85be              mv              a1,a5
0x000000008000ab9a:  fbc40613          addi            a2,s0,-68
0x000000008000ab9e:  854e              mv              a0,s3
0x000000008000aba0:  02f4c763          bgt             a5,s1,46        # 0x8000abce

----------------
IN: 
Priv: 3; Virt: 0
0x000000008000aba4:  fbc42703          lw              a4,-68(s0)
0x000000008000aba8:  02e90163          beq             s2,a4,34        # 0x8000abca

----------------
IN: 
Priv: 3; Virt: 0
0x000000008000abca:  8abe              mv              s5,a5
0x000000008000abcc:  b7c5              j               -32             # 0x8000abac

----------------
IN: 
Priv: 3; Virt: 0
0x000000008000abac:  02f48363          beq             s1,a5,38        # 0x8000abd2

----------------
IN: 
Priv: 3; Virt: 0
0x000000008000abb0:  ea7fe0ef          jal             ra,-4442        # 0x80009a56

----------------
IN: 
Priv: 3; Virt: 0
0x000000008000abb4:  87aa              mv              a5,a0
0x000000008000abb6:  fe0551e3          bgez            a0,-30          # 0x8000ab98

----------------
IN: 
Priv: 3; Virt: 0
0x000000008000ab98:  85be              mv              a1,a5
0x000000008000ab9a:  fbc40613          addi            a2,s0,-68
0x000000008000ab9e:  854e              mv              a0,s3
0x000000008000aba0:  02f4c763          bgt             a5,s1,46        # 0x8000abce

----------------
IN: 
Priv: 3; Virt: 0
0x000000008000abd2:  000a0463          beqz            s4,8            # 0x8000abda

----------------
IN: 
Priv: 3; Virt: 0
0x000000008000abd6:  00ea2023          sw              a4,0(s4)
0x000000008000abda:  01274463          bgt             s2,a4,8         # 0x8000abe2

----------------
IN: 
Priv: 3; Virt: 0
0x000000008000abde:  87d6              mv              a5,s5
0x000000008000abe0:  bf71              j               -100            # 0x8000ab7c

----------------
IN: 
Priv: 3; Virt: 0
0x000000008000ab7c:  60a6              ld              ra,72(sp)
0x000000008000ab7e:  6406              ld              s0,64(sp)
0x000000008000ab80:  74e2              ld              s1,56(sp)
0x000000008000ab82:  7942              ld              s2,48(sp)
0x000000008000ab84:  79a2              ld              s3,40(sp)
0x000000008000ab86:  7a02              ld              s4,32(sp)
0x000000008000ab88:  6ae2              ld              s5,24(sp)
0x000000008000ab8a:  853e              mv              a0,a5
0x000000008000ab8c:  6161              addi            sp,sp,80
0x000000008000ab8e:  8082              ret             

----------------
IN: 
Priv: 3; Virt: 0
0x000000008000ac2e:  e115              bnez            a0,36           # 0x8000ac52

----------------
IN: 
Priv: 3; Virt: 0
0x000000008000ac30:  fdc42503          lw              a0,-36(s0)
0x000000008000ac34:  00054963          bltz            a0,18           # 0x8000ac46

----------------
IN: 
Priv: 3; Virt: 0
0x000000008000ac38:  fff5061b          addiw           a2,a0,-1
0x000000008000ac3c:  4681              mv              a3,zero
0x000000008000ac3e:  85ca              mv              a1,s2
0x000000008000ac40:  8526              mv              a0,s1
0x000000008000ac42:  f11ff0ef          jal             ra,-240         # 0x8000ab52

----------------
IN: 
Priv: 3; Virt: 0
0x000000008000abda:  01274463          bgt             s2,a4,8         # 0x8000abe2

----------------
IN: 
Priv: 3; Virt: 0
0x000000008000ac46:  70a2              ld              ra,40(sp)
0x000000008000ac48:  7402              ld              s0,32(sp)
0x000000008000ac4a:  64e2              ld              s1,24(sp)
0x000000008000ac4c:  6942              ld              s2,16(sp)
0x000000008000ac4e:  6145              addi            sp,sp,48
0x000000008000ac50:  8082              ret             

----------------
IN: 
Priv: 3; Virt: 0
0x000000008000c2a6:  8caa              mv              s9,a0
0x000000008000c2a8:  1e054c63          bltz            a0,504          # 0x8000c4a0

----------------
IN: 
Priv: 3; Virt: 0
0x000000008000c2ac:  85aa              mv              a1,a0
0x000000008000c2ae:  854a              mv              a0,s2
0x000000008000c2b0:  7d5010ef          jal             ra,8148         # 0x8000e284

----------------
IN: 
Priv: 3; Virt: 0
0x000000008000e284:  1101              addi            sp,sp,-32
0x000000008000e286:  e822              sd              s0,16(sp)
0x000000008000e288:  ec06              sd              ra,24(sp)
0x000000008000e28a:  1000              addi            s0,sp,32
0x000000008000e28c:  fec40693          addi            a3,s0,-20
0x000000008000e290:  00003617          auipc           a2,12288        # 0x80011290
0x000000008000e294:  79860613          addi            a2,a2,1944
0x000000008000e298:  d10fc0ef          jal             ra,-15088       # 0x8000a7a8

----------------
IN: 
Priv: 3; Virt: 0
0x000000008000e29c:  c521              beqz            a0,72           # 0x8000e2e4

----------------
IN: 
Priv: 3; Virt: 0
0x000000008000e29e:  fec42583          lw              a1,-20(s0)
0x000000008000e2a2:  4791              addi            a5,zero,4
0x000000008000e2a4:  04f59b63          bne             a1,a5,86        # 0x8000e2fa

----------------
IN: 
Priv: 3; Virt: 0
0x000000008000e2a8:  4118              lw              a4,0(a0)
0x000000008000e2aa:  00875613          srli            a2,a4,8
0x000000008000e2ae:  0ff67613          andi            a2,a2,255
0x000000008000e2b2:  0187179b          slliw           a5,a4,24
0x000000008000e2b6:  01075693          srli            a3,a4,16
0x000000008000e2ba:  0106161b          slliw           a2,a2,16
0x000000008000e2be:  0187571b          srliw           a4,a4,24
0x000000008000e2c2:  8fd1              or              a5,a5,a2
0x000000008000e2c4:  0ff6f693          andi            a3,a3,255
0x000000008000e2c8:  8fd9              or              a5,a5,a4
0x000000008000e2ca:  0086971b          slliw           a4,a3,8
0x000000008000e2ce:  8fd9              or              a5,a5,a4
0x000000008000e2d0:  2781              sext.w          a5,a5
0x000000008000e2d2:  02f5e463          bgtu            a5,a1,40        # 0x8000e2fa

----------------
IN: 
Priv: 3; Virt: 0
0x000000008000e2d6:  0007851b          sext.w          a0,a5
0x000000008000e2da:  c385              beqz            a5,32           # 0x8000e2fa

----------------
IN: 
Priv: 3; Virt: 0
0x000000008000e2dc:  60e2              ld              ra,24(sp)
0x000000008000e2de:  6442              ld              s0,16(sp)
0x000000008000e2e0:  6105              addi            sp,sp,32
0x000000008000e2e2:  8082              ret             

----------------
IN: 
Priv: 3; Virt: 0
0x000000008000c2b4:  8c2a              mv              s8,a0
0x000000008000c2b6:  22a05063          blez            a0,544          # 0x8000c4d6

----------------
IN: 
Priv: 3; Virt: 0
0x000000008000c2ba:  85e6              mv              a1,s9
0x000000008000c2bc:  854a              mv              a0,s2
0x000000008000c2be:  040020ef          jal             ra,8256         # 0x8000e2fe

----------------
IN: 
Priv: 3; Virt: 0
0x000000008000e2fe:  1101              addi            sp,sp,-32
0x000000008000e300:  e822              sd              s0,16(sp)
0x000000008000e302:  ec06              sd              ra,24(sp)
0x000000008000e304:  1000              addi            s0,sp,32
0x000000008000e306:  fec40693          addi            a3,s0,-20
0x000000008000e30a:  00003617          auipc           a2,12288        # 0x8001130a
0x000000008000e30e:  70e60613          addi            a2,a2,1806
0x000000008000e312:  c96fc0ef          jal             ra,-15210       # 0x8000a7a8

----------------
IN: 
Priv: 3; Virt: 0
0x000000008000e316:  c131              beqz            a0,68           # 0x8000e35a

----------------
IN: 
Priv: 3; Virt: 0
0x000000008000e318:  fec42603          lw              a2,-20(s0)
0x000000008000e31c:  4791              addi            a5,zero,4
0x000000008000e31e:  04f61863          bne             a2,a5,80        # 0x8000e36e

----------------
IN: 
Priv: 3; Virt: 0
0x000000008000e322:  411c              lw              a5,0(a0)
0x000000008000e324:  0087d693          srli            a3,a5,8
0x000000008000e328:  0ff6f693          andi            a3,a3,255
0x000000008000e32c:  0187951b          slliw           a0,a5,24
0x000000008000e330:  0107d713          srli            a4,a5,16
0x000000008000e334:  0106969b          slliw           a3,a3,16
0x000000008000e338:  0187d79b          srliw           a5,a5,24
0x000000008000e33c:  8d55              or              a0,a0,a3
0x000000008000e33e:  0ff77713          andi            a4,a4,255
0x000000008000e342:  8d5d              or              a0,a0,a5
0x000000008000e344:  0087179b          slliw           a5,a4,8
0x000000008000e348:  8d5d              or              a0,a0,a5
0x000000008000e34a:  2501              sext.w          a0,a0
0x000000008000e34c:  02a66163          bgtu            a0,a2,34        # 0x8000e36e

----------------
IN: 
Priv: 3; Virt: 0
0x000000008000e350:  2501              sext.w          a0,a0
0x000000008000e352:  60e2              ld              ra,24(sp)
0x000000008000e354:  6442              ld              s0,16(sp)
0x000000008000e356:  6105              addi            sp,sp,32
0x000000008000e358:  8082              ret             

----------------
IN: 
Priv: 3; Virt: 0
0x000000008000c2c2:  8aaa              mv              s5,a0
0x000000008000c2c4:  20054963          bltz            a0,530          # 0x8000c4d6

----------------
IN: 
Priv: 3; Virt: 0
0x000000008000c2c8:  f8840693          addi            a3,s0,-120
0x000000008000c2cc:  00005617          auipc           a2,20480        # 0x800112cc
0x000000008000c2d0:  67c60613          addi            a2,a2,1660
0x000000008000c2d4:  85a6              mv              a1,s1
0x000000008000c2d6:  854a              mv              a0,s2
0x000000008000c2d8:  cd0fe0ef          jal             ra,-6960        # 0x8000a7a8

----------------
IN: 
Priv: 3; Virt: 0
0x000000008000c2dc:  89aa              mv              s3,a0
0x000000008000c2de:  1e050c63          beqz            a0,504          # 0x8000c4d6

----------------
IN: 
Priv: 3; Virt: 0
0x000000008000c2e2:  160a0563          beqz            s4,362          # 0x8000c44c

----------------
IN: 
Priv: 3; Virt: 0
0x000000008000c2e6:  002c1513          slli            a0,s8,2
0x000000008000c2ea:  954e              add             a0,a0,s3
0x000000008000c2ec:  864e              mv              a2,s3
0x000000008000c2ee:  4481              mv              s1,zero
0x000000008000c2f0:  4218              lw              a4,0(a2)
0x000000008000c2f2:  1482              slli            s1,s1,32
0x000000008000c2f4:  0611              addi            a2,a2,4
0x000000008000c2f6:  00875793          srli            a5,a4,8
0x000000008000c2fa:  0ff7f793          andi            a5,a5,255
0x000000008000c2fe:  0187159b          slliw           a1,a4,24
0x000000008000c302:  01075693          srli            a3,a4,16
0x000000008000c306:  0107979b          slliw           a5,a5,16
0x000000008000c30a:  0187571b          srliw           a4,a4,24
0x000000008000c30e:  8fcd              or              a5,a5,a1
0x000000008000c310:  0ff6f693          andi            a3,a3,255
0x000000008000c314:  8fd9              or              a5,a5,a4
0x000000008000c316:  0086971b          slliw           a4,a3,8
0x000000008000c31a:  8fd9              or              a5,a5,a4
0x000000008000c31c:  1782              slli            a5,a5,32
0x000000008000c31e:  9381              srli            a5,a5,32
0x000000008000c320:  8cdd              or              s1,s1,a5
0x000000008000c322:  fca617e3          bne             a2,a0,-50       # 0x8000c2f0

----------------
IN: 
Priv: 3; Virt: 0
0x000000008000c2f0:  4218              lw              a4,0(a2)
0x000000008000c2f2:  1482              slli            s1,s1,32
0x000000008000c2f4:  0611              addi            a2,a2,4
0x000000008000c2f6:  00875793          srli            a5,a4,8
0x000000008000c2fa:  0ff7f793          andi            a5,a5,255
0x000000008000c2fe:  0187159b          slliw           a1,a4,24
0x000000008000c302:  01075693          srli            a3,a4,16
0x000000008000c306:  0107979b          slliw           a5,a5,16
0x000000008000c30a:  0187571b          srliw           a4,a4,24
0x000000008000c30e:  8fcd              or              a5,a5,a1
0x000000008000c310:  0ff6f693          andi            a3,a3,255
0x000000008000c314:  8fd9              or              a5,a5,a4
0x000000008000c316:  0086971b          slliw           a4,a3,8
0x000000008000c31a:  8fd9              or              a5,a5,a4
0x000000008000c31c:  1782              slli            a5,a5,32
0x000000008000c31e:  9381              srli            a5,a5,32
0x000000008000c320:  8cdd              or              s1,s1,a5
0x000000008000c322:  fca617e3          bne             a2,a0,-50       # 0x8000c2f0

----------------
IN: 
Priv: 3; Virt: 0
0x000000008000c326:  00005b97          auipc           s7,20480        # 0x80011326
0x000000008000c32a:  62ab8b93          addi            s7,s7,1578
0x000000008000c32e:  85e6              mv              a1,s9
0x000000008000c330:  854a              mv              a0,s2
0x000000008000c332:  753010ef          jal             ra,8018         # 0x8000e284

----------------
IN: 
Priv: 3; Virt: 0
0x000000008000c336:  8daa              mv              s11,a0
0x000000008000c338:  10a05a63          blez            a0,276          # 0x8000c44c

----------------
IN: 
Priv: 3; Virt: 0
0x000000008000c33c:  85e6              mv              a1,s9
0x000000008000c33e:  854a              mv              a0,s2
0x000000008000c340:  7bf010ef          jal             ra,8126         # 0x8000e2fe

----------------
IN: 
Priv: 3; Virt: 0
0x000000008000c344:  8d2a              mv              s10,a0
0x000000008000c346:  10054363          bltz            a0,262          # 0x8000c44c

----------------
IN: 
Priv: 3; Virt: 0
0x000000008000c34a:  f8c40693          addi            a3,s0,-116
0x000000008000c34e:  865e              mv              a2,s7
0x000000008000c350:  85e6              mv              a1,s9
0x000000008000c352:  854a              mv              a0,s2
0x000000008000c354:  c54fe0ef          jal             ra,-7084        # 0x8000a7a8

----------------
IN: 
Priv: 3; Virt: 0
0x000000008000c358:  cd79              beqz            a0,222          # 0x8000c436

----------------
IN: 
Priv: 3; Virt: 0
0x000000008000c35a:  f8c42783          lw              a5,-116(s0)
0x000000008000c35e:  0cf05c63          blez            a5,216          # 0x8000c436

----------------
IN: 
Priv: 3; Virt: 0
0x000000008000c436:  009a3023          sd              s1,0(s4)
0x000000008000c43a:  85e6              mv              a1,s9
0x000000008000c43c:  854a              mv              a0,s2
0x000000008000c43e:  fd6fe0ef          jal             ra,-6186        # 0x8000ac14

----------------
IN: 
Priv: 3; Virt: 0
0x000000008000c442:  8caa              mv              s9,a0
0x000000008000c444:  000a3483          ld              s1,0(s4)
0x000000008000c448:  ee0553e3          bgez            a0,-282         # 0x8000c32e

----------------
IN: 
Priv: 3; Virt: 0
0x000000008000c32e:  85e6              mv              a1,s9
0x000000008000c330:  854a              mv              a0,s2
0x000000008000c332:  753010ef          jal             ra,8018         # 0x8000e284

----------------
IN: 
Priv: 3; Virt: 0
0x000000008000c44c:  4c81              mv              s9,zero
0x000000008000c44e:  040b0963          beqz            s6,82           # 0x8000c4a0

----------------
IN: 
Priv: 3; Virt: 0
0x000000008000c4a0:  70e6              ld              ra,120(sp)
0x000000008000c4a2:  7446              ld              s0,112(sp)
0x000000008000c4a4:  74a6              ld              s1,104(sp)
0x000000008000c4a6:  7906              ld              s2,96(sp)
0x000000008000c4a8:  69e6              ld              s3,88(sp)
0x000000008000c4aa:  6a46              ld              s4,80(sp)
0x000000008000c4ac:  6aa6              ld              s5,72(sp)
0x000000008000c4ae:  6b06              ld              s6,64(sp)
0x000000008000c4b0:  7be2              ld              s7,56(sp)
0x000000008000c4b2:  7c42              ld              s8,48(sp)
0x000000008000c4b4:  7d02              ld              s10,32(sp)
0x000000008000c4b6:  6de2              ld              s11,24(sp)
0x000000008000c4b8:  8566              mv              a0,s9
0x000000008000c4ba:  7ca2              ld              s9,40(sp)
0x000000008000c4bc:  6109              addi            sp,sp,128
0x000000008000c4be:  8082              ret             

----------------
IN: 
Priv: 3; Virt: 0
0x0000000080009414:  e509              bnez            a0,10           # 0x8000941e

----------------
IN: 
Priv: 3; Virt: 0
0x0000000080009416:  fe843503          ld              a0,-24(s0)
0x000000008000941a:  5f1040ef          jal             ra,19952        # 0x8000e20a

----------------
IN: 
Priv: 3; Virt: 0
0x000000008000e20a:  1141              addi            sp,sp,-16
0x000000008000e20c:  e422              sd              s0,8(sp)
0x000000008000e20e:  0800              addi            s0,sp,16
0x000000008000e210:  6422              ld              s0,8(sp)
0x000000008000e212:  00005797          auipc           a5,20480        # 0x80013212
0x000000008000e216:  eea7b323          sd              a0,-282(a5)
0x000000008000e21a:  4501              mv              a0,zero
0x000000008000e21c:  0141              addi            sp,sp,16
0x000000008000e21e:  8082              ret             

----------------
IN: 
Priv: 3; Virt: 0
0x000000008000941e:  60e2              ld              ra,24(sp)
0x0000000080009420:  6442              ld              s0,16(sp)
0x0000000080009422:  6105              addi            sp,sp,32
0x0000000080009424:  8082              ret             

----------------
IN: 
Priv: 3; Virt: 0
0x00000000800093c0:  e511              bnez            a0,12           # 0x800093cc

----------------
IN: 
Priv: 3; Virt: 0
0x00000000800093c2:  0000a797          auipc           a5,40960        # 0x800133c2
0x00000000800093c6:  ce97bf23          sd              s1,-770(a5)
0x00000000800093ca:  4501              mv              a0,zero
0x00000000800093cc:  70a2              ld              ra,40(sp)
0x00000000800093ce:  7402              ld              s0,32(sp)
0x00000000800093d0:  64e2              ld              s1,24(sp)
0x00000000800093d2:  6942              ld              s2,16(sp)
0x00000000800093d4:  6145              addi            sp,sp,48
0x00000000800093d6:  8082              ret             

----------------
IN: 
Priv: 3; Virt: 0
0x0000000080002792:  60e2              ld              ra,24(sp)
0x0000000080002794:  6442              ld              s0,16(sp)
0x0000000080002796:  64a2              ld              s1,8(sp)
0x0000000080002798:  6105              addi            sp,sp,32
0x000000008000279a:  8082              ret             

----------------
IN: 
Priv: 3; Virt: 0
0x00000000800009b4:  e20516e3          bnez            a0,-468         # 0x800007e0

----------------
IN: 
Priv: 3; Virt: 0
0x00000000800009b8:  4585              addi            a1,zero,1
0x00000000800009ba:  8526              mv              a0,s1
0x00000000800009bc:  7f3040ef          jal             ra,20466        # 0x800059ae

----------------
IN: 
Priv: 3; Virt: 0
0x00000000800059ae:  7119              addi            sp,sp,-128
0x00000000800059b0:  f8a2              sd              s0,112(sp)
0x00000000800059b2:  f4a6              sd              s1,104(sp)
0x00000000800059b4:  fc86              sd              ra,120(sp)
0x00000000800059b6:  f0ca              sd              s2,96(sp)
0x00000000800059b8:  ecce              sd              s3,88(sp)
0x00000000800059ba:  0100              addi            s0,sp,128
0x00000000800059bc:  84aa              mv              s1,a0
0x00000000800059be:  c199              beqz            a1,6            # 0x800059c4

----------------
IN: 
Priv: 3; Virt: 0
0x00000000800059c0:  6090106f          j               7688            # 0x800077c8

----------------
IN: 
Priv: 3; Virt: 0
0x00000000800077c8:  04800513          addi            a0,zero,72
0x00000000800077cc:  9a0fb0ef          jal             ra,-20064       # 0x8000296c

----------------
IN: 
Priv: 3; Virt: 0
0x00000000800077d0:  c909              beqz            a0,18           # 0x800077e2

----------------
IN: 
Priv: 3; Virt: 0
0x00000000800077e2:  0000a597          auipc           a1,40960        # 0x800117e2
0x00000000800077e6:  bb658593          addi            a1,a1,-1098
0x00000000800077ea:  02000513          addi            a0,zero,32
0x00000000800077ee:  bfdf90ef          jal             ra,-25604       # 0x800013ea

----------------
IN: 
Priv: 3; Virt: 0
0x00000000800077f2:  0000c917          auipc           s2,49152        # 0x800137f2
0x00000000800077f6:  89690913          addi            s2,s2,-1898
0x00000000800077fa:  00a93023          sd              a0,0(s2)
0x00000000800077fe:  c119              beqz            a0,6            # 0x80007804

----------------
IN: 
Priv: 3; Virt: 0
0x0000000080007800:  9d0fe06f          j               -7728           # 0x800059d0

----------------
IN: 
Priv: 3; Virt: 0
0x00000000800059d0:  00a487b3          add             a5,s1,a0
0x00000000800059d4:  0007b023          sd              zero,0(a5)
0x00000000800059d8:  0000c617          auipc           a2,49152        # 0x800119d8
0x00000000800059dc:  64860613          addi            a2,a2,1608
0x00000000800059e0:  557d              addi            a0,zero,-1
0x00000000800059e2:  620c              ld              a1,0(a2)
0x00000000800059e4:  f8043023          sd              zero,-128(s0)
0x00000000800059e8:  f8043423          sd              zero,-120(s0)
0x00000000800059ec:  f8043823          sd              zero,-112(s0)
0x00000000800059f0:  f8043c23          sd              zero,-104(s0)
0x00000000800059f4:  fa043023          sd              zero,-96(s0)
0x00000000800059f8:  0007a423          sw              zero,8(a5)
0x00000000800059fc:  0007ac23          sw              zero,24(a5)
0x0000000080005a00:  fa043423          sd              zero,-88(s0)
0x0000000080005a04:  fa043823          sd              zero,-80(s0)
0x0000000080005a08:  fa043c23          sd              zero,-72(s0)
0x0000000080005a0c:  fc043023          sd              zero,-64(s0)
0x0000000080005a10:  fc043423          sd              zero,-56(s0)
0x0000000080005a14:  fa840693          addi            a3,s0,-88
0x0000000080005a18:  8129              srli            a0,a0,10
0x0000000080005a1a:  00068733          add             a4,a3,zero
0x0000000080005a1e:  305595f3          csrrw           a1,mtvec,a1

----------------
IN: 
Priv: 3; Virt: 0
0x0000000080005a22:  3b051073          csrrw           zero,pmpaddr0,a0

----------------
IN: 
Priv: 3; Virt: 0
0x0000000080005a26:  30559073          csrrw           zero,mtvec,a1

----------------
IN: 
Priv: 3; Virt: 0
0x0000000080005a2a:  fb043683          ld              a3,-80(s0)
0x0000000080005a2e:  c299              beqz            a3,6            # 0x80005a34

----------------
IN: 
Priv: 3; Virt: 0
0x0000000080005a34:  620c              ld              a1,0(a2)
0x0000000080005a36:  fa840693          addi            a3,s0,-88
0x0000000080005a3a:  00068733          add             a4,a3,zero
0x0000000080005a3e:  305595f3          csrrw           a1,mtvec,a1

----------------
IN: 
Priv: 3; Virt: 0
0x0000000080005a42:  3b002873          csrrs           a6,pmpaddr0,zero

----------------
IN: 
Priv: 3; Virt: 0
0x0000000080005a46:  30559073          csrrw           zero,mtvec,a1

----------------
IN: 
Priv: 3; Virt: 0
0x0000000080005a4a:  fb043683          ld              a3,-80(s0)
0x0000000080005a4e:  85c2              mv              a1,a6
0x0000000080005a50:  c299              beqz            a3,6            # 0x80005a56

----------------
IN: 
Priv: 3; Virt: 0
0x0000000080005a56:  00081463          bnez            a6,8            # 0x80005a5e

----------------
IN: 
Priv: 3; Virt: 0
0x0000000080005a5e:  02081693          slli            a3,a6,32
0x0000000080005a62:  9281              srli            a3,a3,32
0x0000000080005a64:  c299              beqz            a3,6            # 0x80005a6a

----------------
IN: 
Priv: 3; Virt: 0
0x0000000080005a66:  5cf0106f          j               7630            # 0x80007834

----------------
IN: 
Priv: 3; Virt: 0
0x0000000080007834:  86c2              mv              a3,a6
0x0000000080007836:  4501              mv              a0,zero
0x0000000080007838:  a3afe06f          j               -7622           # 0x80005a72

----------------
IN: 
Priv: 3; Virt: 0
0x0000000080005a72:  03069893          slli            a7,a3,48
0x0000000080005a76:  0308d893          srli            a7,a7,48
0x0000000080005a7a:  00089463          bnez            a7,8            # 0x80005a82

----------------
IN: 
Priv: 3; Virt: 0
0x0000000080005a82:  0ff6f893          andi            a7,a3,255
0x0000000080005a86:  00089463          bnez            a7,8            # 0x80005a8e

----------------
IN: 
Priv: 3; Virt: 0
0x0000000080005a8e:  00f6f893          andi            a7,a3,15
0x0000000080005a92:  00089463          bnez            a7,8            # 0x80005a9a

----------------
IN: 
Priv: 3; Virt: 0
0x0000000080005a9a:  0036f893          andi            a7,a3,3
0x0000000080005a9e:  00089463          bnez            a7,8            # 0x80005aa6

----------------
IN: 
Priv: 3; Virt: 0
0x0000000080005aa6:  8a85              andi            a3,a3,1
0x0000000080005aa8:  e291              bnez            a3,4            # 0x80005aac

----------------
IN: 
Priv: 3; Virt: 0
0x0000000080005aac:  2509              addiw           a0,a0,2
0x0000000080005aae:  4685              addi            a3,zero,1
0x0000000080005ab0:  00a696bb          sllw            a3,a3,a0
0x0000000080005ab4:  eb94              sd              a3,16(a5)
0x0000000080005ab6:  02085513          srli            a0,a6,32
0x0000000080005aba:  03f00693          addi            a3,zero,63
0x0000000080005abe:  e501              bnez            a0,8            # 0x80005ac6

----------------
IN: 
Priv: 3; Virt: 0
0x0000000080005ac6:  0305d513          srli            a0,a1,48
0x0000000080005aca:  e119              bnez            a0,6            # 0x80005ad0

----------------
IN: 
Priv: 3; Virt: 0
0x0000000080005ad0:  0385d513          srli            a0,a1,56
0x0000000080005ad4:  e119              bnez            a0,6            # 0x80005ada

----------------
IN: 
Priv: 3; Virt: 0
0x0000000080005ad6:  36e1              addiw           a3,a3,-8
0x0000000080005ad8:  05a2              slli            a1,a1,8
0x0000000080005ada:  03c5d513          srli            a0,a1,60
0x0000000080005ade:  e119              bnez            a0,6            # 0x80005ae4

----------------
IN: 
Priv: 3; Virt: 0
0x0000000080005ae4:  03e5d513          srli            a0,a1,62
0x0000000080005ae8:  e119              bnez            a0,6            # 0x80005aee

----------------
IN: 
Priv: 3; Virt: 0
0x0000000080005aea:  36f9              addiw           a3,a3,-2
0x0000000080005aec:  058a              slli            a1,a1,2
0x0000000080005aee:  0005c363          bltz            a1,6            # 0x80005af4

----------------
IN: 
Priv: 3; Virt: 0
0x0000000080005af4:  2685              addiw           a3,a3,1
0x0000000080005af6:  c7d4              sw              a3,12(a5)
0x0000000080005af8:  620c              ld              a1,0(a2)
0x0000000080005afa:  f8040693          addi            a3,s0,-128
0x0000000080005afe:  00068733          add             a4,a3,zero
0x0000000080005b02:  305595f3          csrrw           a1,mtvec,a1

----------------
IN: 
Priv: 3; Virt: 0
0x0000000080005b06:  3b002573          csrrs           a0,pmpaddr0,zero

----------------
IN: 
Priv: 3; Virt: 0
0x0000000080005b0a:  30559073          csrrw           zero,mtvec,a1

----------------
IN: 
Priv: 3; Virt: 0
0x0000000080005b0e:  f8843683          ld              a3,-120(s0)
0x0000000080005b12:  c299              beqz            a3,6            # 0x80005b18

----------------
IN: 
Priv: 3; Virt: 0
0x0000000080005b18:  620c              ld              a1,0(a2)
0x0000000080005b1a:  f8040693          addi            a3,s0,-128
0x0000000080005b1e:  00068733          add             a4,a3,zero
0x0000000080005b22:  305595f3          csrrw           a1,mtvec,a1

----------------
IN: 
Priv: 3; Virt: 0
0x0000000080005b26:  3b051073          csrrw           zero,pmpaddr0,a0

----------------
IN: 
Priv: 3; Virt: 0
0x0000000080005b2a:  30559073          csrrw           zero,mtvec,a1

----------------
IN: 
Priv: 3; Virt: 0
0x0000000080005b2e:  f8843683          ld              a3,-120(s0)
0x0000000080005b32:  c299              beqz            a3,6            # 0x80005b38

----------------
IN: 
Priv: 3; Virt: 0
0x0000000080005b38:  3b0516f3          csrrw           a3,pmpaddr0,a0

----------------
IN: 
Priv: 3; Virt: 0
0x0000000080005b3c:  00d50463          beq             a0,a3,8         # 0x80005b44

----------------
IN: 
Priv: 3; Virt: 0
0x0000000080005b44:  478c              lw              a1,8(a5)
0x0000000080005b46:  f8040693          addi            a3,s0,-128
0x0000000080005b4a:  2585              addiw           a1,a1,1
0x0000000080005b4c:  c78c              sw              a1,8(a5)
0x0000000080005b4e:  620c              ld              a1,0(a2)
0x0000000080005b50:  00068733          add             a4,a3,zero
0x0000000080005b54:  305595f3          csrrw           a1,mtvec,a1

----------------
IN: 
Priv: 3; Virt: 0
0x0000000080005b58:  3b102573          csrrs           a0,pmpaddr1,zero

----------------
IN: 
Priv: 3; Virt: 0
0x0000000080005b5c:  30559073          csrrw           zero,mtvec,a1

----------------
IN: 
Priv: 3; Virt: 0
0x0000000080005b60:  f8843683          ld              a3,-120(s0)
0x0000000080005b64:  c299              beqz            a3,6            # 0x80005b6a

----------------
IN: 
Priv: 3; Virt: 0
0x0000000080005b6a:  620c              ld              a1,0(a2)
0x0000000080005b6c:  f8040693          addi            a3,s0,-128
0x0000000080005b70:  00068733          add             a4,a3,zero
0x0000000080005b74:  305595f3          csrrw           a1,mtvec,a1

----------------
IN: 
Priv: 3; Virt: 0
0x0000000080005b78:  3b151073          csrrw           zero,pmpaddr1,a0

----------------
IN: 
Priv: 3; Virt: 0
0x0000000080005b7c:  30559073          csrrw           zero,mtvec,a1

----------------
IN: 
Priv: 3; Virt: 0
0x0000000080005b80:  f8843683          ld              a3,-120(s0)
0x0000000080005b84:  c299              beqz            a3,6            # 0x80005b8a

----------------
IN: 
Priv: 3; Virt: 0
0x0000000080005b8a:  3b1516f3          csrrw           a3,pmpaddr1,a0

----------------
IN: 
Priv: 3; Virt: 0
0x0000000080005b8e:  00d50463          beq             a0,a3,8         # 0x80005b96

----------------
IN: 
Priv: 3; Virt: 0
0x0000000080005b96:  478c              lw              a1,8(a5)
0x0000000080005b98:  f8040693          addi            a3,s0,-128
0x0000000080005b9c:  2585              addiw           a1,a1,1
0x0000000080005b9e:  c78c              sw              a1,8(a5)
0x0000000080005ba0:  620c              ld              a1,0(a2)
0x0000000080005ba2:  00068733          add             a4,a3,zero
0x0000000080005ba6:  305595f3          csrrw           a1,mtvec,a1

----------------
IN: 
Priv: 3; Virt: 0
0x0000000080005baa:  3b202573          csrrs           a0,pmpaddr2,zero

----------------
IN: 
Priv: 3; Virt: 0
0x0000000080005bae:  30559073          csrrw           zero,mtvec,a1

----------------
IN: 
Priv: 3; Virt: 0
0x0000000080005bb2:  f8843683          ld              a3,-120(s0)
0x0000000080005bb6:  c299              beqz            a3,6            # 0x80005bbc

----------------
IN: 
Priv: 3; Virt: 0
0x0000000080005bbc:  620c              ld              a1,0(a2)
0x0000000080005bbe:  f8040693          addi            a3,s0,-128
0x0000000080005bc2:  00068733          add             a4,a3,zero
0x0000000080005bc6:  305595f3          csrrw           a1,mtvec,a1

----------------
IN: 
Priv: 3; Virt: 0
0x0000000080005bca:  3b251073          csrrw           zero,pmpaddr2,a0

----------------
IN: 
Priv: 3; Virt: 0
0x0000000080005bce:  30559073          csrrw           zero,mtvec,a1

----------------
IN: 
Priv: 3; Virt: 0
0x0000000080005bd2:  f8843683          ld              a3,-120(s0)
0x0000000080005bd6:  c299              beqz            a3,6            # 0x80005bdc

----------------
IN: 
Priv: 3; Virt: 0
0x0000000080005bdc:  3b2516f3          csrrw           a3,pmpaddr2,a0

----------------
IN: 
Priv: 3; Virt: 0
0x0000000080005be0:  00d50463          beq             a0,a3,8         # 0x80005be8

----------------
IN: 
Priv: 3; Virt: 0
0x0000000080005be8:  478c              lw              a1,8(a5)
0x0000000080005bea:  f8040693          addi            a3,s0,-128
0x0000000080005bee:  2585              addiw           a1,a1,1
0x0000000080005bf0:  c78c              sw              a1,8(a5)
0x0000000080005bf2:  620c              ld              a1,0(a2)
0x0000000080005bf4:  00068733          add             a4,a3,zero
0x0000000080005bf8:  305595f3          csrrw           a1,mtvec,a1

----------------
IN: 
Priv: 3; Virt: 0
0x0000000080005bfc:  3b302573          csrrs           a0,pmpaddr3,zero

----------------
IN: 
Priv: 3; Virt: 0
0x0000000080005c00:  30559073          csrrw           zero,mtvec,a1

----------------
IN: 
Priv: 3; Virt: 0
0x0000000080005c04:  f8843683          ld              a3,-120(s0)
0x0000000080005c08:  c299              beqz            a3,6            # 0x80005c0e

----------------
IN: 
Priv: 3; Virt: 0
0x0000000080005c0e:  620c              ld              a1,0(a2)
0x0000000080005c10:  f8040693          addi            a3,s0,-128
0x0000000080005c14:  00068733          add             a4,a3,zero
0x0000000080005c18:  305595f3          csrrw           a1,mtvec,a1

----------------
IN: 
Priv: 3; Virt: 0
0x0000000080005c1c:  3b351073          csrrw           zero,pmpaddr3,a0

----------------
IN: 
Priv: 3; Virt: 0
0x0000000080005c20:  30559073          csrrw           zero,mtvec,a1

----------------
IN: 
Priv: 3; Virt: 0
0x0000000080005c24:  f8843683          ld              a3,-120(s0)
0x0000000080005c28:  c299              beqz            a3,6            # 0x80005c2e

----------------
IN: 
Priv: 3; Virt: 0
0x0000000080005c2e:  3b3516f3          csrrw           a3,pmpaddr3,a0

----------------
IN: 
Priv: 3; Virt: 0
0x0000000080005c32:  00d50463          beq             a0,a3,8         # 0x80005c3a

----------------
IN: 
Priv: 3; Virt: 0
0x0000000080005c3a:  478c              lw              a1,8(a5)
0x0000000080005c3c:  f8040693          addi            a3,s0,-128
0x0000000080005c40:  2585              addiw           a1,a1,1
0x0000000080005c42:  c78c              sw              a1,8(a5)
0x0000000080005c44:  620c              ld              a1,0(a2)
0x0000000080005c46:  00068733          add             a4,a3,zero
0x0000000080005c4a:  305595f3          csrrw           a1,mtvec,a1

----------------
IN: 
Priv: 3; Virt: 0
0x0000000080005c4e:  3b402573          csrrs           a0,pmpaddr4,zero

----------------
IN: 
Priv: 3; Virt: 0
0x0000000080005c52:  30559073          csrrw           zero,mtvec,a1

----------------
IN: 
Priv: 3; Virt: 0
0x0000000080005c56:  f8843683          ld              a3,-120(s0)
0x0000000080005c5a:  c299              beqz            a3,6            # 0x80005c60

----------------
IN: 
Priv: 3; Virt: 0
0x0000000080005c60:  620c              ld              a1,0(a2)
0x0000000080005c62:  f8040693          addi            a3,s0,-128
0x0000000080005c66:  00068733          add             a4,a3,zero
0x0000000080005c6a:  305595f3          csrrw           a1,mtvec,a1

----------------
IN: 
Priv: 3; Virt: 0
0x0000000080005c6e:  3b451073          csrrw           zero,pmpaddr4,a0

----------------
IN: 
Priv: 3; Virt: 0
0x0000000080005c72:  30559073          csrrw           zero,mtvec,a1

----------------
IN: 
Priv: 3; Virt: 0
0x0000000080005c76:  f8843683          ld              a3,-120(s0)
0x0000000080005c7a:  c299              beqz            a3,6            # 0x80005c80

----------------
IN: 
Priv: 3; Virt: 0
0x0000000080005c80:  3b4516f3          csrrw           a3,pmpaddr4,a0

----------------
IN: 
Priv: 3; Virt: 0
0x0000000080005c84:  00d50463          beq             a0,a3,8         # 0x80005c8c

----------------
IN: 
Priv: 3; Virt: 0
0x0000000080005c8c:  478c              lw              a1,8(a5)
0x0000000080005c8e:  f8040693          addi            a3,s0,-128
0x0000000080005c92:  2585              addiw           a1,a1,1
0x0000000080005c94:  c78c              sw              a1,8(a5)
0x0000000080005c96:  620c              ld              a1,0(a2)
0x0000000080005c98:  00068733          add             a4,a3,zero
0x0000000080005c9c:  305595f3          csrrw           a1,mtvec,a1

----------------
IN: 
Priv: 3; Virt: 0
0x0000000080005ca0:  3b502573          csrrs           a0,pmpaddr5,zero

----------------
IN: 
Priv: 3; Virt: 0
0x0000000080005ca4:  30559073          csrrw           zero,mtvec,a1

----------------
IN: 
Priv: 3; Virt: 0
0x0000000080005ca8:  f8843683          ld              a3,-120(s0)
0x0000000080005cac:  c299              beqz            a3,6            # 0x80005cb2

----------------
IN: 
Priv: 3; Virt: 0
0x0000000080005cb2:  620c              ld              a1,0(a2)
0x0000000080005cb4:  f8040693          addi            a3,s0,-128
0x0000000080005cb8:  00068733          add             a4,a3,zero
0x0000000080005cbc:  305595f3          csrrw           a1,mtvec,a1

----------------
IN: 
Priv: 3; Virt: 0
0x0000000080005cc0:  3b551073          csrrw           zero,pmpaddr5,a0

----------------
IN: 
Priv: 3; Virt: 0
0x0000000080005cc4:  30559073          csrrw           zero,mtvec,a1

----------------
IN: 
Priv: 3; Virt: 0
0x0000000080005cc8:  f8843683          ld              a3,-120(s0)
0x0000000080005ccc:  c299              beqz            a3,6            # 0x80005cd2

----------------
IN: 
Priv: 3; Virt: 0
0x0000000080005cd2:  3b5516f3          csrrw           a3,pmpaddr5,a0

----------------
IN: 
Priv: 3; Virt: 0
0x0000000080005cd6:  00d50463          beq             a0,a3,8         # 0x80005cde

----------------
IN: 
Priv: 3; Virt: 0
0x0000000080005cde:  478c              lw              a1,8(a5)
0x0000000080005ce0:  f8040693          addi            a3,s0,-128
0x0000000080005ce4:  2585              addiw           a1,a1,1
0x0000000080005ce6:  c78c              sw              a1,8(a5)
0x0000000080005ce8:  620c              ld              a1,0(a2)
0x0000000080005cea:  00068733          add             a4,a3,zero
0x0000000080005cee:  305595f3          csrrw           a1,mtvec,a1

----------------
IN: 
Priv: 3; Virt: 0
0x0000000080005cf2:  3b602573          csrrs           a0,pmpaddr6,zero

----------------
IN: 
Priv: 3; Virt: 0
0x0000000080005cf6:  30559073          csrrw           zero,mtvec,a1

----------------
IN: 
Priv: 3; Virt: 0
0x0000000080005cfa:  f8843683          ld              a3,-120(s0)
0x0000000080005cfe:  c299              beqz            a3,6            # 0x80005d04

----------------
IN: 
Priv: 3; Virt: 0
0x0000000080005d04:  620c              ld              a1,0(a2)
0x0000000080005d06:  f8040693          addi            a3,s0,-128
0x0000000080005d0a:  00068733          add             a4,a3,zero
0x0000000080005d0e:  305595f3          csrrw           a1,mtvec,a1

----------------
IN: 
Priv: 3; Virt: 0
0x0000000080005d12:  3b651073          csrrw           zero,pmpaddr6,a0

----------------
IN: 
Priv: 3; Virt: 0
0x0000000080005d16:  30559073          csrrw           zero,mtvec,a1

----------------
IN: 
Priv: 3; Virt: 0
0x0000000080005d1a:  f8843683          ld              a3,-120(s0)
0x0000000080005d1e:  c299              beqz            a3,6            # 0x80005d24

----------------
IN: 
Priv: 3; Virt: 0
0x0000000080005d24:  3b6516f3          csrrw           a3,pmpaddr6,a0

----------------
IN: 
Priv: 3; Virt: 0
0x0000000080005d28:  00d50463          beq             a0,a3,8         # 0x80005d30

----------------
IN: 
Priv: 3; Virt: 0
0x0000000080005d30:  478c              lw              a1,8(a5)
0x0000000080005d32:  f8040693          addi            a3,s0,-128
0x0000000080005d36:  2585              addiw           a1,a1,1
0x0000000080005d38:  c78c              sw              a1,8(a5)
0x0000000080005d3a:  620c              ld              a1,0(a2)
0x0000000080005d3c:  00068733          add             a4,a3,zero
0x0000000080005d40:  305595f3          csrrw           a1,mtvec,a1

----------------
IN: 
Priv: 3; Virt: 0
0x0000000080005d44:  3b702573          csrrs           a0,pmpaddr7,zero

----------------
IN: 
Priv: 3; Virt: 0
0x0000000080005d48:  30559073          csrrw           zero,mtvec,a1

----------------
IN: 
Priv: 3; Virt: 0
0x0000000080005d4c:  f8843683          ld              a3,-120(s0)
0x0000000080005d50:  c299              beqz            a3,6            # 0x80005d56

----------------
IN: 
Priv: 3; Virt: 0
0x0000000080005d56:  620c              ld              a1,0(a2)
0x0000000080005d58:  f8040693          addi            a3,s0,-128
0x0000000080005d5c:  00068733          add             a4,a3,zero
0x0000000080005d60:  305595f3          csrrw           a1,mtvec,a1

----------------
IN: 
Priv: 3; Virt: 0
0x0000000080005d64:  3b751073          csrrw           zero,pmpaddr7,a0

----------------
IN: 
Priv: 3; Virt: 0
0x0000000080005d68:  30559073          csrrw           zero,mtvec,a1

----------------
IN: 
Priv: 3; Virt: 0
0x0000000080005d6c:  f8843683          ld              a3,-120(s0)
0x0000000080005d70:  c299              beqz            a3,6            # 0x80005d76

----------------
IN: 
Priv: 3; Virt: 0
0x0000000080005d76:  3b7516f3          csrrw           a3,pmpaddr7,a0

----------------
IN: 
Priv: 3; Virt: 0
0x0000000080005d7a:  00d50463          beq             a0,a3,8         # 0x80005d82

----------------
IN: 
Priv: 3; Virt: 0
0x0000000080005d82:  478c              lw              a1,8(a5)
0x0000000080005d84:  f8040693          addi            a3,s0,-128
0x0000000080005d88:  2585              addiw           a1,a1,1
0x0000000080005d8a:  c78c              sw              a1,8(a5)
0x0000000080005d8c:  620c              ld              a1,0(a2)
0x0000000080005d8e:  00068733          add             a4,a3,zero
0x0000000080005d92:  305595f3          csrrw           a1,mtvec,a1

----------------
IN: 
Priv: 3; Virt: 0
0x0000000080005d96:  3b802573          csrrs           a0,pmpaddr8,zero

----------------
IN: 
Priv: 3; Virt: 0
0x0000000080005d9a:  30559073          csrrw           zero,mtvec,a1

----------------
IN: 
Priv: 3; Virt: 0
0x0000000080005d9e:  f8843683          ld              a3,-120(s0)
0x0000000080005da2:  c299              beqz            a3,6            # 0x80005da8

----------------
IN: 
Priv: 3; Virt: 0
0x0000000080005da8:  620c              ld              a1,0(a2)
0x0000000080005daa:  f8040693          addi            a3,s0,-128
0x0000000080005dae:  00068733          add             a4,a3,zero
0x0000000080005db2:  305595f3          csrrw           a1,mtvec,a1

----------------
IN: 
Priv: 3; Virt: 0
0x0000000080005db6:  3b851073          csrrw           zero,pmpaddr8,a0

----------------
IN: 
Priv: 3; Virt: 0
0x0000000080005dba:  30559073          csrrw           zero,mtvec,a1

----------------
IN: 
Priv: 3; Virt: 0
0x0000000080005dbe:  f8843683          ld              a3,-120(s0)
0x0000000080005dc2:  7e0695e3          bnez            a3,4074         # 0x80006dac

----------------
IN: 
Priv: 3; Virt: 0
0x0000000080005dc6:  3b8516f3          csrrw           a3,pmpaddr8,a0

----------------
IN: 
Priv: 3; Virt: 0
0x0000000080005dca:  7ed511e3          bne             a0,a3,4066      # 0x80006dac

----------------
IN: 
Priv: 3; Virt: 0
0x0000000080005dce:  478c              lw              a1,8(a5)
0x0000000080005dd0:  f8040693          addi            a3,s0,-128
0x0000000080005dd4:  2585              addiw           a1,a1,1
0x0000000080005dd6:  c78c              sw              a1,8(a5)
0x0000000080005dd8:  620c              ld              a1,0(a2)
0x0000000080005dda:  00068733          add             a4,a3,zero
0x0000000080005dde:  305595f3          csrrw           a1,mtvec,a1

----------------
IN: 
Priv: 3; Virt: 0
0x0000000080005de2:  3b902573          csrrs           a0,pmpaddr9,zero

----------------
IN: 
Priv: 3; Virt: 0
0x0000000080005de6:  30559073          csrrw           zero,mtvec,a1

----------------
IN: 
Priv: 3; Virt: 0
0x0000000080005dea:  f8843683          ld              a3,-120(s0)
0x0000000080005dee:  7a069fe3          bnez            a3,4030         # 0x80006dac

----------------
IN: 
Priv: 3; Virt: 0
0x0000000080005df2:  620c              ld              a1,0(a2)
0x0000000080005df4:  f8040693          addi            a3,s0,-128
0x0000000080005df8:  00068733          add             a4,a3,zero
0x0000000080005dfc:  305595f3          csrrw           a1,mtvec,a1

----------------
IN: 
Priv: 3; Virt: 0
0x0000000080005e00:  3b951073          csrrw           zero,pmpaddr9,a0

----------------
IN: 
Priv: 3; Virt: 0
0x0000000080005e04:  30559073          csrrw           zero,mtvec,a1

----------------
IN: 
Priv: 3; Virt: 0
0x0000000080005e08:  f8843683          ld              a3,-120(s0)
0x0000000080005e0c:  7a0690e3          bnez            a3,4000         # 0x80006dac

----------------
IN: 
Priv: 3; Virt: 0
0x0000000080005e10:  3b9516f3          csrrw           a3,pmpaddr9,a0

----------------
IN: 
Priv: 3; Virt: 0
0x0000000080005e14:  78d51ce3          bne             a0,a3,3992      # 0x80006dac

----------------
IN: 
Priv: 3; Virt: 0
0x0000000080005e18:  478c              lw              a1,8(a5)
0x0000000080005e1a:  f8040693          addi            a3,s0,-128
0x0000000080005e1e:  2585              addiw           a1,a1,1
0x0000000080005e20:  c78c              sw              a1,8(a5)
0x0000000080005e22:  620c              ld              a1,0(a2)
0x0000000080005e24:  00068733          add             a4,a3,zero
0x0000000080005e28:  305595f3          csrrw           a1,mtvec,a1

----------------
IN: 
Priv: 3; Virt: 0
0x0000000080005e2c:  3ba02573          csrrs           a0,pmpaddr10,zero

----------------
IN: 
Priv: 3; Virt: 0
0x0000000080005e30:  30559073          csrrw           zero,mtvec,a1

----------------
IN: 
Priv: 3; Virt: 0
0x0000000080005e34:  f8843683          ld              a3,-120(s0)
0x0000000080005e38:  76069ae3          bnez            a3,3956         # 0x80006dac

----------------
IN: 
Priv: 3; Virt: 0
0x0000000080005e3c:  620c              ld              a1,0(a2)
0x0000000080005e3e:  f8040693          addi            a3,s0,-128
0x0000000080005e42:  00068733          add             a4,a3,zero
0x0000000080005e46:  305595f3          csrrw           a1,mtvec,a1

----------------
IN: 
Priv: 3; Virt: 0
0x0000000080005e4a:  3ba51073          csrrw           zero,pmpaddr10,a0

----------------
IN: 
Priv: 3; Virt: 0
0x0000000080005e4e:  30559073          csrrw           zero,mtvec,a1

----------------
IN: 
Priv: 3; Virt: 0
0x0000000080005e52:  f8843683          ld              a3,-120(s0)
0x0000000080005e56:  74069be3          bnez            a3,3926         # 0x80006dac

----------------
IN: 
Priv: 3; Virt: 0
0x0000000080005e5a:  3ba516f3          csrrw           a3,pmpaddr10,a0

----------------
IN: 
Priv: 3; Virt: 0
0x0000000080005e5e:  74d517e3          bne             a0,a3,3918      # 0x80006dac

----------------
IN: 
Priv: 3; Virt: 0
0x0000000080005e62:  478c              lw              a1,8(a5)
0x0000000080005e64:  f8040693          addi            a3,s0,-128
0x0000000080005e68:  2585              addiw           a1,a1,1
0x0000000080005e6a:  c78c              sw              a1,8(a5)
0x0000000080005e6c:  620c              ld              a1,0(a2)
0x0000000080005e6e:  00068733          add             a4,a3,zero
0x0000000080005e72:  305595f3          csrrw           a1,mtvec,a1

----------------
IN: 
Priv: 3; Virt: 0
0x0000000080005e76:  3bb02573          csrrs           a0,pmpaddr11,zero

----------------
IN: 
Priv: 3; Virt: 0
0x0000000080005e7a:  30559073          csrrw           zero,mtvec,a1

----------------
IN: 
Priv: 3; Virt: 0
0x0000000080005e7e:  f8843683          ld              a3,-120(s0)
0x0000000080005e82:  720695e3          bnez            a3,3882         # 0x80006dac

----------------
IN: 
Priv: 3; Virt: 0
0x0000000080005e86:  620c              ld              a1,0(a2)
0x0000000080005e88:  f8040693          addi            a3,s0,-128
0x0000000080005e8c:  00068733          add             a4,a3,zero
0x0000000080005e90:  305595f3          csrrw           a1,mtvec,a1

----------------
IN: 
Priv: 3; Virt: 0
0x0000000080005e94:  3bb51073          csrrw           zero,pmpaddr11,a0

----------------
IN: 
Priv: 3; Virt: 0
0x0000000080005e98:  30559073          csrrw           zero,mtvec,a1

----------------
IN: 
Priv: 3; Virt: 0
0x0000000080005e9c:  f8843683          ld              a3,-120(s0)
0x0000000080005ea0:  700696e3          bnez            a3,3852         # 0x80006dac

----------------
IN: 
Priv: 3; Virt: 0
0x0000000080005ea4:  3bb516f3          csrrw           a3,pmpaddr11,a0

----------------
IN: 
Priv: 3; Virt: 0
0x0000000080005ea8:  70d512e3          bne             a0,a3,3844      # 0x80006dac

----------------
IN: 
Priv: 3; Virt: 0
0x0000000080005eac:  478c              lw              a1,8(a5)
0x0000000080005eae:  f8040693          addi            a3,s0,-128
0x0000000080005eb2:  2585              addiw           a1,a1,1
0x0000000080005eb4:  c78c              sw              a1,8(a5)
0x0000000080005eb6:  620c              ld              a1,0(a2)
0x0000000080005eb8:  00068733          add             a4,a3,zero
0x0000000080005ebc:  305595f3          csrrw           a1,mtvec,a1

----------------
IN: 
Priv: 3; Virt: 0
0x0000000080005ec0:  3bc02573          csrrs           a0,pmpaddr12,zero

----------------
IN: 
Priv: 3; Virt: 0
0x0000000080005ec4:  30559073          csrrw           zero,mtvec,a1

----------------
IN: 
Priv: 3; Virt: 0
0x0000000080005ec8:  f8843683          ld              a3,-120(s0)
0x0000000080005ecc:  6e0690e3          bnez            a3,3808         # 0x80006dac

----------------
IN: 
Priv: 3; Virt: 0
0x0000000080005ed0:  620c              ld              a1,0(a2)
0x0000000080005ed2:  f8040693          addi            a3,s0,-128
0x0000000080005ed6:  00068733          add             a4,a3,zero
0x0000000080005eda:  305595f3          csrrw           a1,mtvec,a1

----------------
IN: 
Priv: 3; Virt: 0
0x0000000080005ede:  3bc51073          csrrw           zero,pmpaddr12,a0

----------------
IN: 
Priv: 3; Virt: 0
0x0000000080005ee2:  30559073          csrrw           zero,mtvec,a1

----------------
IN: 
Priv: 3; Virt: 0
0x0000000080005ee6:  f8843683          ld              a3,-120(s0)
0x0000000080005eea:  6c0691e3          bnez            a3,3778         # 0x80006dac

----------------
IN: 
Priv: 3; Virt: 0
0x0000000080005eee:  3bc516f3          csrrw           a3,pmpaddr12,a0

----------------
IN: 
Priv: 3; Virt: 0
0x0000000080005ef2:  6ad51de3          bne             a0,a3,3770      # 0x80006dac

----------------
IN: 
Priv: 3; Virt: 0
0x0000000080005ef6:  478c              lw              a1,8(a5)
0x0000000080005ef8:  f8040693          addi            a3,s0,-128
0x0000000080005efc:  2585              addiw           a1,a1,1
0x0000000080005efe:  c78c              sw              a1,8(a5)
0x0000000080005f00:  620c              ld              a1,0(a2)
0x0000000080005f02:  00068733          add             a4,a3,zero
0x0000000080005f06:  305595f3          csrrw           a1,mtvec,a1

----------------
IN: 
Priv: 3; Virt: 0
0x0000000080005f0a:  3bd02573          csrrs           a0,pmpaddr14,zero

----------------
IN: 
Priv: 3; Virt: 0
0x0000000080005f0e:  30559073          csrrw           zero,mtvec,a1

----------------
IN: 
Priv: 3; Virt: 0
0x0000000080005f12:  f8843683          ld              a3,-120(s0)
0x0000000080005f16:  68069be3          bnez            a3,3734         # 0x80006dac

----------------
IN: 
Priv: 3; Virt: 0
0x0000000080005f1a:  620c              ld              a1,0(a2)
0x0000000080005f1c:  f8040693          addi            a3,s0,-128
0x0000000080005f20:  00068733          add             a4,a3,zero
0x0000000080005f24:  305595f3          csrrw           a1,mtvec,a1

----------------
IN: 
Priv: 3; Virt: 0
0x0000000080005f28:  3bd51073          csrrw           zero,pmpaddr14,a0

----------------
IN: 
Priv: 3; Virt: 0
0x0000000080005f2c:  30559073          csrrw           zero,mtvec,a1

----------------
IN: 
Priv: 3; Virt: 0
0x0000000080005f30:  f8843683          ld              a3,-120(s0)
0x0000000080005f34:  66069ce3          bnez            a3,3704         # 0x80006dac

----------------
IN: 
Priv: 3; Virt: 0
0x0000000080005f38:  3bd516f3          csrrw           a3,pmpaddr14,a0

----------------
IN: 
Priv: 3; Virt: 0
0x0000000080005f3c:  66d518e3          bne             a0,a3,3696      # 0x80006dac

----------------
IN: 
Priv: 3; Virt: 0
0x0000000080005f40:  478c              lw              a1,8(a5)
0x0000000080005f42:  f8040693          addi            a3,s0,-128
0x0000000080005f46:  2585              addiw           a1,a1,1
0x0000000080005f48:  c78c              sw              a1,8(a5)
0x0000000080005f4a:  620c              ld              a1,0(a2)
0x0000000080005f4c:  00068733          add             a4,a3,zero
0x0000000080005f50:  305595f3          csrrw           a1,mtvec,a1

----------------
IN: 
Priv: 3; Virt: 0
0x0000000080005f54:  3be02573          csrrs           a0,pmpaddr13,zero

----------------
IN: 
Priv: 3; Virt: 0
0x0000000080005f58:  30559073          csrrw           zero,mtvec,a1

----------------
IN: 
Priv: 3; Virt: 0
0x0000000080005f5c:  f8843683          ld              a3,-120(s0)
0x0000000080005f60:  640696e3          bnez            a3,3660         # 0x80006dac

----------------
IN: 
Priv: 3; Virt: 0
0x0000000080005f64:  620c              ld              a1,0(a2)
0x0000000080005f66:  f8040693          addi            a3,s0,-128
0x0000000080005f6a:  00068733          add             a4,a3,zero
0x0000000080005f6e:  305595f3          csrrw           a1,mtvec,a1

----------------
IN: 
Priv: 3; Virt: 0
0x0000000080005f72:  3be51073          csrrw           zero,pmpaddr13,a0

----------------
IN: 
Priv: 3; Virt: 0
0x0000000080005f76:  30559073          csrrw           zero,mtvec,a1

----------------
IN: 
Priv: 3; Virt: 0
0x0000000080005f7a:  f8843683          ld              a3,-120(s0)
0x0000000080005f7e:  620697e3          bnez            a3,3630         # 0x80006dac

----------------
IN: 
Priv: 3; Virt: 0
0x0000000080005f82:  3be516f3          csrrw           a3,pmpaddr13,a0

----------------
IN: 
Priv: 3; Virt: 0
0x0000000080005f86:  62d513e3          bne             a0,a3,3622      # 0x80006dac

----------------
IN: 
Priv: 3; Virt: 0
0x0000000080005f8a:  478c              lw              a1,8(a5)
0x0000000080005f8c:  f8040693          addi            a3,s0,-128
0x0000000080005f90:  2585              addiw           a1,a1,1
0x0000000080005f92:  c78c              sw              a1,8(a5)
0x0000000080005f94:  620c              ld              a1,0(a2)
0x0000000080005f96:  00068733          add             a4,a3,zero
0x0000000080005f9a:  305595f3          csrrw           a1,mtvec,a1

----------------
IN: 
Priv: 3; Virt: 0
0x0000000080005f9e:  3bf02573          csrrs           a0,pmpaddr15,zero

----------------
IN: 
Priv: 3; Virt: 0
0x0000000080005fa2:  30559073          csrrw           zero,mtvec,a1

----------------
IN: 
Priv: 3; Virt: 0
0x0000000080005fa6:  f8843683          ld              a3,-120(s0)
0x0000000080005faa:  600691e3          bnez            a3,3586         # 0x80006dac

----------------
IN: 
Priv: 3; Virt: 0
0x0000000080005fae:  620c              ld              a1,0(a2)
0x0000000080005fb0:  f8040693          addi            a3,s0,-128
0x0000000080005fb4:  00068733          add             a4,a3,zero
0x0000000080005fb8:  305595f3          csrrw           a1,mtvec,a1

----------------
IN: 
Priv: 3; Virt: 0
0x0000000080005fbc:  3bf51073          csrrw           zero,pmpaddr15,a0

----------------
IN: 
Priv: 3; Virt: 0
0x0000000080005fc0:  30559073          csrrw           zero,mtvec,a1

----------------
IN: 
Priv: 3; Virt: 0
0x0000000080005fc4:  f8843683          ld              a3,-120(s0)
0x0000000080005fc8:  5e0692e3          bnez            a3,3556         # 0x80006dac

----------------
IN: 
Priv: 3; Virt: 0
0x0000000080005fcc:  3bf516f3          csrrw           a3,pmpaddr15,a0

----------------
IN: 
Priv: 3; Virt: 0
0x0000000080005fd0:  5cd51ee3          bne             a0,a3,3548      # 0x80006dac

----------------
IN: 
Priv: 3; Virt: 0
0x0000000080005fd4:  478c              lw              a1,8(a5)
0x0000000080005fd6:  f8040693          addi            a3,s0,-128
0x0000000080005fda:  2585              addiw           a1,a1,1
0x0000000080005fdc:  c78c              sw              a1,8(a5)
0x0000000080005fde:  620c              ld              a1,0(a2)
0x0000000080005fe0:  00068733          add             a4,a3,zero
0x0000000080005fe4:  305595f3          csrrw           a1,mtvec,a1

----------------
IN: 
Priv: 3; Virt: 0
0x0000000080005fe8:  3c002573          csrrs           a0,0x3c0,zero

riscv_cpu_do_interrupt: hart:0, async:0, cause:0000000000000002, epc:0x0000000080005fe8, tval:0x0000000000000000, desc=illegal_instruction
----------------
IN: 
Priv: 3; Virt: 0
0x0000000080008828:  34102773          csrrs           a4,mepc,zero

----------------
IN: 
Priv: 3; Virt: 0
0x000000008000882c:  e298              sd              a4,0(a3)
0x000000008000882e:  34202773          csrrs           a4,mcause,zero

----------------
IN: 
Priv: 3; Virt: 0
0x0000000080008832:  e698              sd              a4,8(a3)
0x0000000080008834:  34302773          csrrs           a4,mtval,zero

----------------
IN: 
Priv: 3; Virt: 0
0x0000000080008838:  ea98              sd              a4,16(a3)
0x000000008000883a:  0006bc23          sd              zero,24(a3)
0x000000008000883e:  0206b023          sd              zero,32(a3)
0x0000000080008842:  34102773          csrrs           a4,mepc,zero

----------------
IN: 
Priv: 3; Virt: 0
0x0000000080008846:  0711              addi            a4,a4,4
0x0000000080008848:  34171073          csrrw           zero,mepc,a4

----------------
IN: 
Priv: 3; Virt: 0
0x000000008000884c:  30200073          mret            

----------------
IN: 
Priv: 3; Virt: 0
0x0000000080005fec:  30559073          csrrw           zero,mtvec,a1

----------------
IN: 
Priv: 3; Virt: 0
0x0000000080005ff0:  f8843683          ld              a3,-120(s0)
0x0000000080005ff4:  5a069ce3          bnez            a3,3512         # 0x80006dac

----------------
IN: 
Priv: 3; Virt: 0
0x0000000080006dac:  620c              ld              a1,0(a2)
0x0000000080006dae:  f8040693          addi            a3,s0,-128
0x0000000080006db2:  00068733          add             a4,a3,zero
0x0000000080006db6:  305595f3          csrrw           a1,mtvec,a1

----------------
IN: 
Priv: 3; Virt: 0
0x0000000080006dba:  b0302873          csrrs           a6,mhpmcounter3,zero

----------------
IN: 
Priv: 3; Virt: 0
0x0000000080006dbe:  30559073          csrrw           zero,mtvec,a1

----------------
IN: 
Priv: 3; Virt: 0
0x0000000080006dc2:  f8843683          ld              a3,-120(s0)
0x0000000080006dc6:  06069ae3          bnez            a3,2164         # 0x8000763a

----------------
IN: 
Priv: 3; Virt: 0
0x000000008000763a:  620c              ld              a1,0(a2)
0x000000008000763c:  f8043423          sd              zero,-120(s0)
0x0000000080007640:  f8040693          addi            a3,s0,-128
0x0000000080007644:  00068733          add             a4,a3,zero
0x0000000080007648:  305595f3          csrrw           a1,mtvec,a1

----------------
IN: 
Priv: 3; Virt: 0
0x000000008000764c:  10602573          csrrs           a0,scounteren,zero

----------------
IN: 
Priv: 3; Virt: 0
0x0000000080007650:  30559073          csrrw           zero,mtvec,a1

----------------
IN: 
Priv: 3; Virt: 0
0x0000000080007654:  f8843683          ld              a3,-120(s0)
0x0000000080007658:  e29d              bnez            a3,38           # 0x8000767e

----------------
IN: 
Priv: 3; Virt: 0
0x000000008000765a:  620c              ld              a1,0(a2)
0x000000008000765c:  f8040693          addi            a3,s0,-128
0x0000000080007660:  00068733          add             a4,a3,zero
0x0000000080007664:  305595f3          csrrw           a1,mtvec,a1

----------------
IN: 
Priv: 3; Virt: 0
0x0000000080007668:  10651073          csrrw           zero,scounteren,a0

----------------
IN: 
Priv: 3; Virt: 0
0x000000008000766c:  30559073          csrrw           zero,mtvec,a1

----------------
IN: 
Priv: 3; Virt: 0
0x0000000080007670:  f8843683          ld              a3,-120(s0)
0x0000000080007674:  e689              bnez            a3,10           # 0x8000767e

----------------
IN: 
Priv: 3; Virt: 0
0x0000000080007676:  6394              ld              a3,0(a5)
0x0000000080007678:  0016e693          ori             a3,a3,1
0x000000008000767c:  e394              sd              a3,0(a5)
0x000000008000767e:  620c              ld              a1,0(a2)
0x0000000080007680:  f8043423          sd              zero,-120(s0)
0x0000000080007684:  f8040693          addi            a3,s0,-128
0x0000000080007688:  00068733          add             a4,a3,zero
0x000000008000768c:  305595f3          csrrw           a1,mtvec,a1

----------------
IN: 
Priv: 3; Virt: 0
0x0000000080007690:  30602573          csrrs           a0,mcounteren,zero

----------------
IN: 
Priv: 3; Virt: 0
0x0000000080007694:  30559073          csrrw           zero,mtvec,a1

----------------
IN: 
Priv: 3; Virt: 0
0x0000000080007698:  f8843683          ld              a3,-120(s0)
0x000000008000769c:  e29d              bnez            a3,38           # 0x800076c2

----------------
IN: 
Priv: 3; Virt: 0
0x000000008000769e:  620c              ld              a1,0(a2)
0x00000000800076a0:  f8040693          addi            a3,s0,-128
0x00000000800076a4:  00068733          add             a4,a3,zero
0x00000000800076a8:  305595f3          csrrw           a1,mtvec,a1

----------------
IN: 
Priv: 3; Virt: 0
0x00000000800076ac:  30651073          csrrw           zero,mcounteren,a0

----------------
IN: 
Priv: 3; Virt: 0
0x00000000800076b0:  30559073          csrrw           zero,mtvec,a1

----------------
IN: 
Priv: 3; Virt: 0
0x00000000800076b4:  f8843683          ld              a3,-120(s0)
0x00000000800076b8:  e689              bnez            a3,10           # 0x800076c2

----------------
IN: 
Priv: 3; Virt: 0
0x00000000800076ba:  6394              ld              a3,0(a5)
0x00000000800076bc:  0026e693          ori             a3,a3,2
0x00000000800076c0:  e394              sd              a3,0(a5)
0x00000000800076c2:  6210              ld              a2,0(a2)
0x00000000800076c4:  f8043423          sd              zero,-120(s0)
0x00000000800076c8:  f8040693          addi            a3,s0,-128
0x00000000800076cc:  00068733          add             a4,a3,zero
0x00000000800076d0:  30561673          csrrw           a2,mtvec,a2

----------------
IN: 
Priv: 3; Virt: 0
0x00000000800076d4:  c01025f3          rdtime          a1

----------------
IN: 
Priv: 3; Virt: 0
0x00000000800076d8:  30561073          csrrw           zero,mtvec,a2

----------------
IN: 
Priv: 3; Virt: 0
0x00000000800076dc:  f8843703          ld              a4,-120(s0)
0x00000000800076e0:  e709              bnez            a4,10           # 0x800076ea

----------------
IN: 
Priv: 3; Virt: 0
0x00000000800076e2:  6398              ld              a4,0(a5)
0x00000000800076e4:  00476713          ori             a4,a4,4
0x00000000800076e8:  e398              sd              a4,0(a5)
0x00000000800076ea:  04400513          addi            a0,zero,68
0x00000000800076ee:  a7efb0ef          jal             ra,-19842       # 0x8000296c

----------------
IN: 
Priv: 3; Virt: 0
0x00000000800076f2:  12050963          beqz            a0,306          # 0x80007824

----------------
IN: 
Priv: 3; Virt: 0
0x00000000800076f6:  6999              lui             s3,24576
0x00000000800076f8:  05600513          addi            a0,zero,86
0x00000000800076fc:  a70fb0ef          jal             ra,-19856       # 0x8000296c

----------------
IN: 
Priv: 3; Virt: 0
0x0000000080007700:  c509              beqz            a0,10           # 0x8000770a

----------------
IN: 
Priv: 3; Virt: 0
0x000000008000770a:  30099073          csrrw           zero,mstatus,s3

----------------
IN: 
Priv: 3; Virt: 0
0x000000008000770e:  05300513          addi            a0,zero,83
0x0000000080007712:  a5afb0ef          jal             ra,-19878       # 0x8000296c

----------------
IN: 
Priv: 3; Virt: 0
0x0000000080007716:  00093783          ld              a5,0(s2)
0x000000008000771a:  97a6              add             a5,a5,s1
0x000000008000771c:  639c              ld              a5,0(a5)
0x000000008000771e:  c919              beqz            a0,22           # 0x80007734

----------------
IN: 
Priv: 3; Virt: 0
0x0000000080007720:  0017f713          andi            a4,a5,1
0x0000000080007724:  cb01              beqz            a4,16           # 0x80007734

----------------
IN: 
Priv: 3; Virt: 0
0x0000000080007726:  57fd              addi            a5,zero,-1
0x0000000080007728:  10679073          csrrw           zero,scounteren,a5

----------------
IN: 
Priv: 3; Virt: 0
0x000000008000772c:  00093783          ld              a5,0(s2)
0x0000000080007730:  97a6              add             a5,a5,s1
0x0000000080007732:  639c              ld              a5,0(a5)
0x0000000080007734:  8b89              andi            a5,a5,2
0x0000000080007736:  c781              beqz            a5,8            # 0x8000773e

----------------
IN: 
Priv: 3; Virt: 0
0x0000000080007738:  57fd              addi            a5,zero,-1
0x000000008000773a:  30679073          csrrw           zero,mcounteren,a5

----------------
IN: 
Priv: 3; Virt: 0
0x000000008000773e:  30405073          csrrwi          zero,mie,0

----------------
IN: 
Priv: 3; Virt: 0
0x0000000080007742:  05300513          addi            a0,zero,83
0x0000000080007746:  a26fb0ef          jal             ra,-19930       # 0x8000296c

----------------
IN: 
Priv: 3; Virt: 0
0x000000008000774a:  e161              bnez            a0,192          # 0x8000780a

----------------
IN: 
Priv: 3; Virt: 0
0x000000008000780a:  18005073          csrrwi          zero,satp,0

----------------
IN: 
Priv: 3; Virt: 0
0x000000008000780e:  04400513          addi            a0,zero,68
0x0000000080007812:  95afb0ef          jal             ra,-20134       # 0x8000296c

----------------
IN: 
Priv: 3; Virt: 0
0x0000000080007816:  f121              bnez            a0,-192         # 0x80007756

----------------
IN: 
Priv: 3; Virt: 0
0x0000000080007756:  300027f3          csrrs           a5,mstatus,zero

----------------
IN: 
Priv: 3; Virt: 0
0x000000008000775a:  6719              lui             a4,24576
0x000000008000775c:  8ff9              and             a5,a5,a4
0x000000008000775e:  cff9              beqz            a5,222          # 0x8000783c

----------------
IN: 
Priv: 3; Virt: 0
0x0000000080007760:  4781              mv              a5,zero
0x0000000080007762:  10000713          addi            a4,zero,256
0x0000000080007766:  4501              mv              a0,zero
0x0000000080007768:  00006697          auipc           a3,24576        # 0x8000d768
0x000000008000776c:  96be              add             a3,a3,a5
0x000000008000776e:  c30682e7          jalr            t0,a3,-976

----------------
IN: 
Priv: 3; Virt: 0
0x000000008000d398:  f0050053          fmv.s.x         ft0,a0
0x000000008000d39c:  00028067          jr              t0

----------------
IN: 
Priv: 3; Virt: 0
0x0000000080007772:  07a1              addi            a5,a5,8
0x0000000080007774:  fee799e3          bne             a5,a4,-14       # 0x80007766

----------------
IN: 
Priv: 3; Virt: 0
0x0000000080007766:  4501              mv              a0,zero
0x0000000080007768:  00006697          auipc           a3,24576        # 0x8000d768
0x000000008000776c:  96be              add             a3,a3,a5
0x000000008000776e:  c30682e7          jalr            t0,a3,-976

----------------
IN: 
Priv: 3; Virt: 0
0x000000008000d3a0:  f00500d3          fmv.s.x         ft1,a0
0x000000008000d3a4:  00028067          jr              t0

----------------
IN: 
Priv: 3; Virt: 0
0x000000008000d3a8:  f0050153          fmv.s.x         ft2,a0
0x000000008000d3ac:  00028067          jr              t0

----------------
IN: 
Priv: 3; Virt: 0
0x000000008000d3b0:  f00501d3          fmv.s.x         ft3,a0
0x000000008000d3b4:  00028067          jr              t0

----------------
IN: 
Priv: 3; Virt: 0
0x000000008000d3b8:  f0050253          fmv.s.x         ft4,a0
0x000000008000d3bc:  00028067          jr              t0

----------------
IN: 
Priv: 3; Virt: 0
0x000000008000d3c0:  f00502d3          fmv.s.x         ft5,a0
0x000000008000d3c4:  00028067          jr              t0

----------------
IN: 
Priv: 3; Virt: 0
0x000000008000d3c8:  f0050353          fmv.s.x         ft6,a0
0x000000008000d3cc:  00028067          jr              t0

----------------
IN: 
Priv: 3; Virt: 0
0x000000008000d3d0:  f00503d3          fmv.s.x         ft7,a0
0x000000008000d3d4:  00028067          jr              t0

----------------
IN: 
Priv: 3; Virt: 0
0x000000008000d3d8:  f0050453          fmv.s.x         fs0,a0
0x000000008000d3dc:  00028067          jr              t0

----------------
IN: 
Priv: 3; Virt: 0
0x000000008000d3e0:  f00504d3          fmv.s.x         fs1,a0
0x000000008000d3e4:  00028067          jr              t0

----------------
IN: 
Priv: 3; Virt: 0
0x000000008000d3e8:  f0050553          fmv.s.x         fa0,a0
0x000000008000d3ec:  00028067          jr              t0

----------------
IN: 
Priv: 3; Virt: 0
0x000000008000d3f0:  f00505d3          fmv.s.x         fa1,a0
0x000000008000d3f4:  00028067          jr              t0

----------------
IN: 
Priv: 3; Virt: 0
0x000000008000d3f8:  f0050653          fmv.s.x         fa2,a0
0x000000008000d3fc:  00028067          jr              t0

----------------
IN: 
Priv: 3; Virt: 0
0x000000008000d400:  f00506d3          fmv.s.x         fa3,a0
0x000000008000d404:  00028067          jr              t0

----------------
IN: 
Priv: 3; Virt: 0
0x000000008000d408:  f0050753          fmv.s.x         fa4,a0
0x000000008000d40c:  00028067          jr              t0

----------------
IN: 
Priv: 3; Virt: 0
0x000000008000d410:  f00507d3          fmv.s.x         fa5,a0
0x000000008000d414:  00028067          jr              t0

----------------
IN: 
Priv: 3; Virt: 0
0x000000008000d418:  f0050853          fmv.s.x         fa6,a0
0x000000008000d41c:  00028067          jr              t0

----------------
IN: 
Priv: 3; Virt: 0
0x000000008000d420:  f00508d3          fmv.s.x         fa7,a0
0x000000008000d424:  00028067          jr              t0

----------------
IN: 
Priv: 3; Virt: 0
0x000000008000d428:  f0050953          fmv.s.x         fs2,a0
0x000000008000d42c:  00028067          jr              t0

----------------
IN: 
Priv: 3; Virt: 0
0x000000008000d430:  f00509d3          fmv.s.x         fs3,a0
0x000000008000d434:  00028067          jr              t0

----------------
IN: 
Priv: 3; Virt: 0
0x000000008000d438:  f0050a53          fmv.s.x         fs4,a0
0x000000008000d43c:  00028067          jr              t0

----------------
IN: 
Priv: 3; Virt: 0
0x000000008000d440:  f0050ad3          fmv.s.x         fs5,a0
0x000000008000d444:  00028067          jr              t0

----------------
IN: 
Priv: 3; Virt: 0
0x000000008000d448:  f0050b53          fmv.s.x         fs6,a0
0x000000008000d44c:  00028067          jr              t0

----------------
IN: 
Priv: 3; Virt: 0
0x000000008000d450:  f0050bd3          fmv.s.x         fs7,a0
0x000000008000d454:  00028067          jr              t0

----------------
IN: 
Priv: 3; Virt: 0
0x000000008000d458:  f0050c53          fmv.s.x         fs8,a0
0x000000008000d45c:  00028067          jr              t0

----------------
IN: 
Priv: 3; Virt: 0
0x000000008000d460:  f0050cd3          fmv.s.x         fs9,a0
0x000000008000d464:  00028067          jr              t0

----------------
IN: 
Priv: 3; Virt: 0
0x000000008000d468:  f0050d53          fmv.s.x         fs10,a0
0x000000008000d46c:  00028067          jr              t0

----------------
IN: 
Priv: 3; Virt: 0
0x000000008000d470:  f0050dd3          fmv.s.x         fs11,a0
0x000000008000d474:  00028067          jr              t0

----------------
IN: 
Priv: 3; Virt: 0
0x000000008000d478:  f0050e53          fmv.s.x         ft8,a0
0x000000008000d47c:  00028067          jr              t0

----------------
IN: 
Priv: 3; Virt: 0
0x000000008000d480:  f0050ed3          fmv.s.x         ft9,a0
0x000000008000d484:  00028067          jr              t0

----------------
IN: 
Priv: 3; Virt: 0
0x000000008000d488:  f0050f53          fmv.s.x         ft10,a0
0x000000008000d48c:  00028067          jr              t0

----------------
IN: 
Priv: 3; Virt: 0
0x000000008000d490:  f0050fd3          fmv.s.x         ft11,a0
0x000000008000d494:  00028067          jr              t0

----------------
IN: 
Priv: 3; Virt: 0
0x0000000080007778:  00305073          csrrwi          zero,fcsr,0

----------------
IN: 
Priv: 3; Virt: 0
0x000000008000777c:  05300513          addi            a0,zero,83
0x0000000080007780:  7884              ld              s1,48(s1)
0x0000000080007782:  9eafb0ef          jal             ra,-19990       # 0x8000296c

----------------
IN: 
Priv: 3; Virt: 0
0x0000000080007786:  c915              beqz            a0,52           # 0x800077ba

----------------
IN: 
Priv: 3; Virt: 0
0x0000000080007788:  64bc              ld              a5,72(s1)
0x000000008000778a:  10900493          addi            s1,zero,265
0x000000008000778e:  8b91              andi            a5,a5,4
0x0000000080007790:  c781              beqz            a5,8            # 0x80007798

----------------
IN: 
Priv: 3; Virt: 0
0x0000000080007792:  64ad              lui             s1,45056
0x0000000080007794:  10948493          addi            s1,s1,265
0x0000000080007798:  04800513          addi            a0,zero,72
0x000000008000779c:  9d0fb0ef          jal             ra,-20016       # 0x8000296c

----------------
IN: 
Priv: 3; Virt: 0
0x00000000800077a0:  c511              beqz            a0,12           # 0x800077ac

----------------
IN: 
Priv: 3; Virt: 0
0x00000000800077ac:  22200793          addi            a5,zero,546
0x00000000800077b0:  30379073          csrrw           zero,mideleg,a5

----------------
IN: 
Priv: 3; Virt: 0
0x00000000800077b4:  30249073          csrrw           zero,medeleg,s1

----------------
IN: 
Priv: 3; Virt: 0
0x00000000800077b8:  4501              mv              a0,zero
0x00000000800077ba:  70e6              ld              ra,120(sp)
0x00000000800077bc:  7446              ld              s0,112(sp)
0x00000000800077be:  74a6              ld              s1,104(sp)
0x00000000800077c0:  7906              ld              s2,96(sp)
0x00000000800077c2:  69e6              ld              s3,88(sp)
0x00000000800077c4:  6109              addi            sp,sp,128
0x00000000800077c6:  8082              ret             

----------------
IN: 
Priv: 3; Virt: 0
0x00000000800009c0:  e20510e3          bnez            a0,-480         # 0x800007e0

----------------
IN: 
Priv: 3; Virt: 0
0x00000000800009c4:  8526              mv              a0,s1
0x00000000800009c6:  640030ef          jal             ra,13888        # 0x80004006

----------------
IN: 
Priv: 3; Virt: 0
0x0000000080004006:  791c              ld              a5,48(a0)
0x0000000080004008:  0000f717          auipc           a4,61440        # 0x80013008
0x000000008000400c:  06f73823          sd              a5,112(a4)
0x0000000080004010:  cf99              beqz            a5,30           # 0x8000402e

----------------
IN: 
Priv: 3; Virt: 0
0x0000000080004012:  6fbc              ld              a5,88(a5)
0x0000000080004014:  4501              mv              a0,zero
0x0000000080004016:  6bbc              ld              a5,80(a5)
0x0000000080004018:  cb91              beqz            a5,20           # 0x8000402c

----------------
IN: 
Priv: 3; Virt: 0
0x000000008000401a:  1141              addi            sp,sp,-16
0x000000008000401c:  e022              sd              s0,0(sp)
0x000000008000401e:  e406              sd              ra,8(sp)
0x0000000080004020:  0800              addi            s0,sp,16
0x0000000080004022:  9782              jalr            ra,a5,0

----------------
IN: 
Priv: 3; Virt: 0
0x0000000080008d92:  715d              addi            sp,sp,-80
0x0000000080008d94:  e0a2              sd              s0,64(sp)
0x0000000080008d96:  e486              sd              ra,72(sp)
0x0000000080008d98:  fc26              sd              s1,56(sp)
0x0000000080008d9a:  f84a              sd              s2,48(sp)
0x0000000080008d9c:  f44e              sd              s3,40(sp)
0x0000000080008d9e:  f052              sd              s4,32(sp)
0x0000000080008da0:  ec56              sd              s5,24(sp)
0x0000000080008da2:  0880              addi            s0,sp,80
0x0000000080008da4:  340027f3          csrrs           a5,mscratch,zero

----------------
IN: 
Priv: 3; Virt: 0
0x0000000080008da8:  6b84              ld              s1,16(a5)
0x0000000080008daa:  00009597          auipc           a1,36864        # 0x80011daa
0x0000000080008dae:  81e58593          addi            a1,a1,-2018
0x0000000080008db2:  8526              mv              a0,s1
0x0000000080008db4:  0e3010ef          jal             ra,6370         # 0x8000a696

----------------
IN: 
Priv: 3; Virt: 0
0x0000000080008db8:  06055a63          bgez            a0,116          # 0x80008e2c

----------------
IN: 
Priv: 3; Virt: 0
0x0000000080008e2c:  85aa              mv              a1,a0
0x0000000080008e2e:  fb440693          addi            a3,s0,-76
0x0000000080008e32:  00008617          auipc           a2,32768        # 0x80010e32
0x0000000080008e36:  79e60613          addi            a2,a2,1950
0x0000000080008e3a:  8526              mv              a0,s1
0x0000000080008e3c:  16d010ef          jal             ra,6508         # 0x8000a7a8

----------------
IN: 
Priv: 3; Virt: 0
0x0000000080008e40:  dd35              beqz            a0,-132         # 0x80008dbc

----------------
IN: 
Priv: 3; Virt: 0
0x0000000080008e42:  fb442783          lw              a5,-76(s0)
0x0000000080008e46:  dbbd              beqz            a5,-138         # 0x80008dbc

----------------
IN: 
Priv: 3; Virt: 0
0x0000000080008e48:  85aa              mv              a1,a0
0x0000000080008e4a:  8526              mv              a0,s1
0x0000000080008e4c:  04b010ef          jal             ra,6218         # 0x8000a696

----------------
IN: 
Priv: 3; Virt: 0
0x000000008000a5f8:  40950bb3          sub             s7,a0,s1
0x000000008000a5fc:  85d2              mv              a1,s4
0x000000008000a5fe:  000b869b          sext.w          a3,s7
0x000000008000a602:  8626              mv              a2,s1
0x000000008000a604:  8556              mv              a0,s5
0x000000008000a606:  c39ff0ef          jal             ra,-968         # 0x8000a23e

----------------
IN: 
Priv: 3; Virt: 0
0x0000000080008e50:  89aa              mv              s3,a0
0x0000000080008e52:  f60545e3          bltz            a0,-150         # 0x80008dbc

----------------
IN: 
Priv: 3; Virt: 0
0x0000000080008e56:  00008a17          auipc           s4,32768        # 0x80010e56
0x0000000080008e5a:  78aa0a13          addi            s4,s4,1930
0x0000000080008e5e:  00008a97          auipc           s5,32768        # 0x80010e5e
0x0000000080008e62:  7a2a8a93          addi            s5,s5,1954
0x0000000080008e66:  00009917          auipc           s2,36864        # 0x80011e66
0x0000000080008e6a:  60290913          addi            s2,s2,1538
0x0000000080008e6e:  00093603          ld              a2,0(s2)
0x0000000080008e72:  85ce              mv              a1,s3
0x0000000080008e74:  8526              mv              a0,s1
0x0000000080008e76:  34a030ef          jal             ra,13130        # 0x8000c1c0

----------------
IN: 
Priv: 3; Virt: 0
0x000000008000c1c0:  c929              beqz            a0,82           # 0x8000c212

----------------
IN: 
Priv: 3; Virt: 0
0x000000008000c1c2:  7179              addi            sp,sp,-48
0x000000008000c1c4:  f022              sd              s0,32(sp)
0x000000008000c1c6:  e44e              sd              s3,8(sp)
0x000000008000c1c8:  f406              sd              ra,40(sp)
0x000000008000c1ca:  ec26              sd              s1,24(sp)
0x000000008000c1cc:  e84a              sd              s2,16(sp)
0x000000008000c1ce:  1800              addi            s0,sp,48
0x000000008000c1d0:  89ae              mv              s3,a1
0x000000008000c1d2:  0205c863          bltz            a1,48           # 0x8000c202

----------------
IN: 
Priv: 3; Virt: 0
0x000000008000c1d6:  84b2              mv              s1,a2
0x000000008000c1d8:  c60d              beqz            a2,42           # 0x8000c202

----------------
IN: 
Priv: 3; Virt: 0
0x000000008000c1da:  6210              ld              a2,0(a2)
0x000000008000c1dc:  892a              mv              s2,a0
0x000000008000c1de:  e609              bnez            a2,10           # 0x8000c1e8

----------------
IN: 
Priv: 3; Virt: 0
0x000000008000c1e8:  85ce              mv              a1,s3
0x000000008000c1ea:  854a              mv              a0,s2
0x000000008000c1ec:  db5fe0ef          jal             ra,-4684        # 0x8000afa0

----------------
IN: 
Priv: 3; Virt: 0
0x000000008000afa0:  7139              addi            sp,sp,-64
0x000000008000afa2:  f822              sd              s0,48(sp)
0x000000008000afa4:  f426              sd              s1,40(sp)
0x000000008000afa6:  f04a              sd              s2,32(sp)
0x000000008000afa8:  ec4e              sd              s3,24(sp)
0x000000008000afaa:  0080              addi            s0,sp,64
0x000000008000afac:  fc06              sd              ra,56(sp)
0x000000008000afae:  84aa              mv              s1,a0
0x000000008000afb0:  00006517          auipc           a0,24576        # 0x80010fb0
0x000000008000afb4:  7f050513          addi            a0,a0,2032
0x000000008000afb8:  892e              mv              s2,a1
0x000000008000afba:  89b2              mv              s3,a2
0x000000008000afbc:  d74f60ef          jal             ra,-39564       # 0x80001530

----------------
IN: 
Priv: 3; Virt: 0
0x000000008000afc0:  0005069b          sext.w          a3,a0
0x000000008000afc4:  fcc40713          addi            a4,s0,-52
0x000000008000afc8:  00006617          auipc           a2,24576        # 0x80010fc8
0x000000008000afcc:  7d860613          addi            a2,a2,2008
0x000000008000afd0:  85ca              mv              a1,s2
0x000000008000afd2:  8526              mv              a0,s1
0x000000008000afd4:  d3cff0ef          jal             ra,-2756        # 0x8000a510

----------------
IN: 
Priv: 3; Virt: 0
0x000000008000afd8:  cd19              beqz            a0,30           # 0x8000aff6

----------------
IN: 
Priv: 3; Virt: 0
0x000000008000afda:  fcc42583          lw              a1,-52(s0)
0x000000008000afde:  864e              mv              a2,s3
0x000000008000afe0:  d73ff0ef          jal             ra,-654         # 0x8000ad52

----------------
IN: 
Priv: 3; Virt: 0
0x000000008000afe4:  70e2              ld              ra,56(sp)
0x000000008000afe6:  7442              ld              s0,48(sp)
0x000000008000afe8:  74a2              ld              s1,40(sp)
0x000000008000afea:  7902              ld              s2,32(sp)
0x000000008000afec:  69e2              ld              s3,24(sp)
0x000000008000afee:  00153513          seqz            a0,a0
0x000000008000aff2:  6121              addi            sp,sp,64
0x000000008000aff4:  8082              ret             

----------------
IN: 
Priv: 3; Virt: 0
0x000000008000c1f0:  f96d              bnez            a0,-14          # 0x8000c1e2

----------------
IN: 
Priv: 3; Virt: 0
0x000000008000c1e2:  6890              ld              a2,16(s1)
0x000000008000c1e4:  04c1              addi            s1,s1,16
0x000000008000c1e6:  ce11              beqz            a2,28           # 0x8000c202

----------------
IN: 
Priv: 3; Virt: 0
0x000000008000c1f2:  70a2              ld              ra,40(sp)
0x000000008000c1f4:  7402              ld              s0,32(sp)
0x000000008000c1f6:  6942              ld              s2,16(sp)
0x000000008000c1f8:  69a2              ld              s3,8(sp)
0x000000008000c1fa:  8526              mv              a0,s1
0x000000008000c1fc:  64e2              ld              s1,24(sp)
0x000000008000c1fe:  6145              addi            sp,sp,48
0x000000008000c200:  8082              ret             

----------------
IN: 
Priv: 3; Virt: 0
0x0000000080008e7a:  faa43c23          sd              a0,-72(s0)
0x0000000080008e7e:  862a              mv              a2,a0
0x0000000080008e80:  cd19              beqz            a0,30           # 0x80008e9e

----------------
IN: 
Priv: 3; Virt: 0
0x0000000080008e82:  00893783          ld              a5,8(s2)
0x0000000080008e86:  c789              beqz            a5,10           # 0x80008e90

----------------
IN: 
Priv: 3; Virt: 0
0x0000000080008e88:  85ce              mv              a1,s3
0x0000000080008e8a:  8526              mv              a0,s1
0x0000000080008e8c:  9782              jalr            ra,a5,0

----------------
IN: 
Priv: 3; Virt: 0
0x0000000080008f0a:  7139              addi            sp,sp,-64
0x0000000080008f0c:  f822              sd              s0,48(sp)
0x0000000080008f0e:  fc06              sd              ra,56(sp)
0x0000000080008f10:  0080              addi            s0,sp,64
0x0000000080008f12:  fc840613          addi            a2,s0,-56
0x0000000080008f16:  115030ef          jal             ra,14612        # 0x8000c82a

----------------
IN: 
Priv: 3; Virt: 0
0x000000008000c82a:  1a05c463          bltz            a1,424          # 0x8000c9d2

----------------
IN: 
Priv: 3; Virt: 0
0x000000008000c82e:  715d              addi            sp,sp,-80
0x000000008000c830:  e0a2              sd              s0,64(sp)
0x000000008000c832:  fc26              sd              s1,56(sp)
0x000000008000c834:  e486              sd              ra,72(sp)
0x000000008000c836:  f84a              sd              s2,48(sp)
0x000000008000c838:  f44e              sd              s3,40(sp)
0x000000008000c83a:  0880              addi            s0,sp,80
0x000000008000c83c:  84b2              mv              s1,a2
0x000000008000c83e:  18060763          beqz            a2,398          # 0x8000c9cc

----------------
IN: 
Priv: 3; Virt: 0
0x000000008000c842:  89aa              mv              s3,a0
0x000000008000c844:  18050463          beqz            a0,392          # 0x8000c9cc

----------------
IN: 
Priv: 3; Virt: 0
0x000000008000c848:  fc840693          addi            a3,s0,-56
0x000000008000c84c:  fc040613          addi            a2,s0,-64
0x000000008000c850:  892e              mv              s2,a1
0x000000008000c852:  a2bff0ef          jal             ra,-1494        # 0x8000c27c

----------------
IN: 
Priv: 3; Virt: 0
0x000000008000c452:  060a8963          beqz            s5,114          # 0x8000c4c4

----------------
IN: 
Priv: 3; Virt: 0
0x000000008000c456:  0c0a              slli            s8,s8,2
0x000000008000c458:  99e2              add             s3,s3,s8
0x000000008000c45a:  0a8a              slli            s5,s5,2
0x000000008000c45c:  9ace              add             s5,s5,s3
0x000000008000c45e:  4781              mv              a5,zero
0x000000008000c460:  0009a703          lw              a4,0(s3)
0x000000008000c464:  02079613          slli            a2,a5,32
0x000000008000c468:  0991              addi            s3,s3,4
0x000000008000c46a:  00875793          srli            a5,a4,8
0x000000008000c46e:  0ff7f793          andi            a5,a5,255
0x000000008000c472:  0187159b          slliw           a1,a4,24
0x000000008000c476:  01075693          srli            a3,a4,16
0x000000008000c47a:  0107979b          slliw           a5,a5,16
0x000000008000c47e:  0187571b          srliw           a4,a4,24
0x000000008000c482:  8fcd              or              a5,a5,a1
0x000000008000c484:  0ff6f693          andi            a3,a3,255
0x000000008000c488:  8fd9              or              a5,a5,a4
0x000000008000c48a:  0086971b          slliw           a4,a3,8
0x000000008000c48e:  8fd9              or              a5,a5,a4
0x000000008000c490:  1782              slli            a5,a5,32
0x000000008000c492:  9381              srli            a5,a5,32
0x000000008000c494:  8fd1              or              a5,a5,a2
0x000000008000c496:  fd5995e3          bne             s3,s5,-54       # 0x8000c460

----------------
IN: 
Priv: 3; Virt: 0
0x000000008000c460:  0009a703          lw              a4,0(s3)
0x000000008000c464:  02079613          slli            a2,a5,32
0x000000008000c468:  0991              addi            s3,s3,4
0x000000008000c46a:  00875793          srli            a5,a4,8
0x000000008000c46e:  0ff7f793          andi            a5,a5,255
0x000000008000c472:  0187159b          slliw           a1,a4,24
0x000000008000c476:  01075693          srli            a3,a4,16
0x000000008000c47a:  0107979b          slliw           a5,a5,16
0x000000008000c47e:  0187571b          srliw           a4,a4,24
0x000000008000c482:  8fcd              or              a5,a5,a1
0x000000008000c484:  0ff6f693          andi            a3,a3,255
0x000000008000c488:  8fd9              or              a5,a5,a4
0x000000008000c48a:  0086971b          slliw           a4,a3,8
0x000000008000c48e:  8fd9              or              a5,a5,a4
0x000000008000c490:  1782              slli            a5,a5,32
0x000000008000c492:  9381              srli            a5,a5,32
0x000000008000c494:  8fd1              or              a5,a5,a2
0x000000008000c496:  fd5995e3          bne             s3,s5,-54       # 0x8000c460

----------------
IN: 
Priv: 3; Virt: 0
0x000000008000c49a:  00fb3023          sd              a5,0(s6)
0x000000008000c49e:  4c81              mv              s9,zero
0x000000008000c4a0:  70e6              ld              ra,120(sp)
0x000000008000c4a2:  7446              ld              s0,112(sp)
0x000000008000c4a4:  74a6              ld              s1,104(sp)
0x000000008000c4a6:  7906              ld              s2,96(sp)
0x000000008000c4a8:  69e6              ld              s3,88(sp)
0x000000008000c4aa:  6a46              ld              s4,80(sp)
0x000000008000c4ac:  6aa6              ld              s5,72(sp)
0x000000008000c4ae:  6b06              ld              s6,64(sp)
0x000000008000c4b0:  7be2              ld              s7,56(sp)
0x000000008000c4b2:  7c42              ld              s8,48(sp)
0x000000008000c4b4:  7d02              ld              s10,32(sp)
0x000000008000c4b6:  6de2              ld              s11,24(sp)
0x000000008000c4b8:  8566              mv              a0,s9
0x000000008000c4ba:  7ca2              ld              s9,40(sp)
0x000000008000c4bc:  6109              addi            sp,sp,128
0x000000008000c4be:  8082              ret             

----------------
IN: 
Priv: 3; Virt: 0
0x000000008000c856:  16054b63          bltz            a0,374          # 0x8000c9cc

----------------
IN: 
Priv: 3; Virt: 0
0x000000008000c85a:  fc043783          ld              a5,-64(s0)
0x000000008000c85e:  16078763          beqz            a5,366          # 0x8000c9cc

----------------
IN: 
Priv: 3; Virt: 0
0x000000008000c862:  fc843703          ld              a4,-56(s0)
0x000000008000c866:  16070363          beqz            a4,358          # 0x8000c9cc

----------------
IN: 
Priv: 3; Virt: 0
0x000000008000c86a:  e09c              sd              a5,0(s1)
0x000000008000c86c:  fbc40693          addi            a3,s0,-68
0x000000008000c870:  00005617          auipc           a2,20480        # 0x80011870
0x000000008000c874:  12060613          addi            a2,a2,288
0x000000008000c878:  85ca              mv              a1,s2
0x000000008000c87a:  854e              mv              a0,s3
0x000000008000c87c:  f2dfd0ef          jal             ra,-8404        # 0x8000a7a8

----------------
IN: 
Priv: 3; Virt: 0
0x000000008000c880:  fbc42703          lw              a4,-68(s0)
0x000000008000c884:  4781              mv              a5,zero
0x000000008000c886:  02e05963          blez            a4,50           # 0x8000c8b8

----------------
IN: 
Priv: 3; Virt: 0
0x000000008000c88a:  c51d              beqz            a0,46           # 0x8000c8b8

----------------
IN: 
Priv: 3; Virt: 0
0x000000008000c88c:  4118              lw              a4,0(a0)
0x000000008000c88e:  00875613          srli            a2,a4,8
0x000000008000c892:  0ff67613          andi            a2,a2,255
0x000000008000c896:  0187179b          slliw           a5,a4,24
0x000000008000c89a:  01075693          srli            a3,a4,16
0x000000008000c89e:  0106161b          slliw           a2,a2,16
0x000000008000c8a2:  0187571b          srliw           a4,a4,24
0x000000008000c8a6:  8fd1              or              a5,a5,a2
0x000000008000c8a8:  0ff6f693          andi            a3,a3,255
0x000000008000c8ac:  8fd9              or              a5,a5,a4
0x000000008000c8ae:  0086971b          slliw           a4,a3,8
0x000000008000c8b2:  8fd9              or              a5,a5,a4
0x000000008000c8b4:  1782              slli            a5,a5,32
0x000000008000c8b6:  9381              srli            a5,a5,32
0x000000008000c8b8:  e49c              sd              a5,8(s1)
0x000000008000c8ba:  fbc40693          addi            a3,s0,-68
0x000000008000c8be:  00005617          auipc           a2,20480        # 0x800118be
0x000000008000c8c2:  0e260613          addi            a2,a2,226
0x000000008000c8c6:  85ca              mv              a1,s2
0x000000008000c8c8:  854e              mv              a0,s3
0x000000008000c8ca:  edffd0ef          jal             ra,-8482        # 0x8000a7a8

----------------
IN: 
Priv: 3; Virt: 0
0x000000008000c8ce:  fbc42783          lw              a5,-68(s0)
0x000000008000c8d2:  02f05a63          blez            a5,52           # 0x8000c906

----------------
IN: 
Priv: 3; Virt: 0
0x000000008000c906:  67f1              lui             a5,114688
0x000000008000c908:  20078793          addi            a5,a5,512
0x000000008000c90c:  e89c              sd              a5,16(s1)
0x000000008000c90e:  fbc40693          addi            a3,s0,-68
0x000000008000c912:  00005617          auipc           a2,20480        # 0x80011912
0x000000008000c916:  09e60613          addi            a2,a2,158
0x000000008000c91a:  85ca              mv              a1,s2
0x000000008000c91c:  854e              mv              a0,s3
0x000000008000c91e:  e8bfd0ef          jal             ra,-8566        # 0x8000a7a8

----------------
IN: 
Priv: 3; Virt: 0
0x000000008000c922:  fbc42703          lw              a4,-68(s0)
0x000000008000c926:  4781              mv              a5,zero
0x000000008000c928:  02e05963          blez            a4,50           # 0x8000c95a

----------------
IN: 
Priv: 3; Virt: 0
0x000000008000c95a:  ec9c              sd              a5,24(s1)
0x000000008000c95c:  fbc40693          addi            a3,s0,-68
0x000000008000c960:  00005617          auipc           a2,20480        # 0x80011960
0x000000008000c964:  06060613          addi            a2,a2,96
0x000000008000c968:  85ca              mv              a1,s2
0x000000008000c96a:  854e              mv              a0,s3
0x000000008000c96c:  e3dfd0ef          jal             ra,-8644        # 0x8000a7a8

----------------
IN: 
Priv: 3; Virt: 0
0x000000008000c970:  fbc42783          lw              a5,-68(s0)
0x000000008000c974:  04f05263          blez            a5,68           # 0x8000c9b8

----------------
IN: 
Priv: 3; Virt: 0
0x000000008000c9b8:  4785              addi            a5,zero,1
0x000000008000c9ba:  f09c              sd              a5,32(s1)
0x000000008000c9bc:  4501              mv              a0,zero
0x000000008000c9be:  60a6              ld              ra,72(sp)
0x000000008000c9c0:  6406              ld              s0,64(sp)
0x000000008000c9c2:  74e2              ld              s1,56(sp)
0x000000008000c9c4:  7942              ld              s2,48(sp)
0x000000008000c9c6:  79a2              ld              s3,40(sp)
0x000000008000c9c8:  6161              addi            sp,sp,80
0x000000008000c9ca:  8082              ret             

----------------
IN: 
Priv: 3; Virt: 0
0x0000000080008f1a:  ed09              bnez            a0,26           # 0x80008f34

----------------
IN: 
Priv: 3; Virt: 0
0x0000000080008f1c:  fe842703          lw              a4,-24(s0)
0x0000000080008f20:  fe042683          lw              a3,-32(s0)
0x0000000080008f24:  fd842603          lw              a2,-40(s0)
0x0000000080008f28:  fd042583          lw              a1,-48(s0)
0x0000000080008f2c:  fc843503          ld              a0,-56(s0)
0x0000000080008f30:  36e000ef          jal             ra,878          # 0x8000929e

----------------
IN: 
Priv: 3; Virt: 0
0x000000008000929e:  1101              addi            sp,sp,-32
0x00000000800092a0:  0046161b          slliw           a2,a2,4
0x00000000800092a4:  e426              sd              s1,8(sp)
0x00000000800092a6:  02c5d4bb          divuw           s1,a1,a2
0x00000000800092aa:  e822              sd              s0,16(sp)
0x00000000800092ac:  e04a              sd              s2,0(sp)
0x00000000800092ae:  ec06              sd              ra,24(sp)
0x00000000800092b0:  1000              addi            s0,sp,32
0x00000000800092b2:  87aa              mv              a5,a0
0x00000000800092b4:  4581              mv              a1,zero
0x00000000800092b6:  4505              addi            a0,zero,1
0x00000000800092b8:  0000a617          auipc           a2,40960        # 0x800132b8
0x00000000800092bc:  e0f63023          sd              a5,-512(a2)
0x00000000800092c0:  0000a797          auipc           a5,40960        # 0x800132c0
0x00000000800092c4:  ded7a823          sw              a3,-528(a5)
0x00000000800092c8:  0000a797          auipc           a5,40960        # 0x800132c8
0x00000000800092cc:  dee7a623          sw              a4,-532(a5)
0x00000000800092d0:  e2dff0ef          jal             ra,-468         # 0x800090fc

----------------
IN: 
Priv: 3; Virt: 0
0x00000000800090fc:  1141              addi            sp,sp,-16
0x00000000800090fe:  e422              sd              s0,8(sp)
0x0000000080009100:  0800              addi            s0,sp,16
0x0000000080009102:  0000a797          auipc           a5,40960        # 0x80013102
0x0000000080009106:  fae7a783          lw              a5,-82(a5)
0x000000008000910a:  00f5153b          sllw            a0,a0,a5
0x000000008000910e:  1502              slli            a0,a0,32
0x0000000080009110:  0000a797          auipc           a5,40960        # 0x80013110
0x0000000080009114:  fa47a783          lw              a5,-92(a5)
0x0000000080009118:  4705              addi            a4,zero,1
0x000000008000911a:  9101              srli            a0,a0,32
0x000000008000911c:  02e78c63          beq             a5,a4,56        # 0x80009154

----------------
IN: 
Priv: 3; Virt: 0
0x0000000080009154:  0140000f          fence           w,o
0x0000000080009158:  0000a797          auipc           a5,40960        # 0x80013158
0x000000008000915c:  f607b783          ld              a5,-160(a5)
0x0000000080009160:  97aa              add             a5,a5,a0
0x0000000080009162:  00b78023          sb              a1,0(a5)
0x0000000080009166:  6422              ld              s0,8(sp)
0x0000000080009168:  0141              addi            sp,sp,16
0x000000008000916a:  8082              ret             

----------------
IN: 
Priv: 3; Virt: 0
0x00000000800092d4:  08000593          addi            a1,zero,128
0x00000000800092d8:  450d              addi            a0,zero,3
0x00000000800092da:  03049913          slli            s2,s1,48
0x00000000800092de:  03095913          srli            s2,s2,48
0x00000000800092e2:  e1bff0ef          jal             ra,-486         # 0x800090fc

----------------
IN: 
Priv: 3; Virt: 0
0x00000000800092e6:  02091f63          bnez            s2,62           # 0x80009324

----------------
IN: 
Priv: 3; Virt: 0
0x0000000080009324:  0ff4f593          andi            a1,s1,255
0x0000000080009328:  4501              mv              a0,zero
0x000000008000932a:  dd3ff0ef          jal             ra,-558         # 0x800090fc

----------------
IN: 
Priv: 3; Virt: 0
0x000000008000932e:  00895593          srli            a1,s2,8
0x0000000080009332:  4505              addi            a0,zero,1
0x0000000080009334:  dc9ff0ef          jal             ra,-568         # 0x800090fc

----------------
IN: 
Priv: 3; Virt: 0
0x0000000080009338:  bf4d              j               -78             # 0x800092ea

----------------
IN: 
Priv: 3; Virt: 0
0x00000000800092ea:  458d              addi            a1,zero,3
0x00000000800092ec:  450d              addi            a0,zero,3
0x00000000800092ee:  e0fff0ef          jal             ra,-498         # 0x800090fc

----------------
IN: 
Priv: 3; Virt: 0
0x00000000800092f2:  4585              addi            a1,zero,1
0x00000000800092f4:  4509              addi            a0,zero,2
0x00000000800092f6:  e07ff0ef          jal             ra,-506         # 0x800090fc

----------------
IN: 
Priv: 3; Virt: 0
0x00000000800092fa:  4581              mv              a1,zero
0x00000000800092fc:  4511              addi            a0,zero,4
0x00000000800092fe:  dffff0ef          jal             ra,-514         # 0x800090fc

----------------
IN: 
Priv: 3; Virt: 0
0x0000000080009302:  4515              addi            a0,zero,5
0x0000000080009304:  d8dff0ef          jal             ra,-628         # 0x80009090

----------------
IN: 
Priv: 3; Virt: 0
0x0000000080009090:  1141              addi            sp,sp,-16
0x0000000080009092:  e422              sd              s0,8(sp)
0x0000000080009094:  0800              addi            s0,sp,16
0x0000000080009096:  0000a797          auipc           a5,40960        # 0x80013096
0x000000008000909a:  01a7a783          lw              a5,26(a5)
0x000000008000909e:  00f5153b          sllw            a0,a0,a5
0x00000000800090a2:  1502              slli            a0,a0,32
0x00000000800090a4:  9101              srli            a0,a0,32
0x00000000800090a6:  0000a797          auipc           a5,40960        # 0x800130a6
0x00000000800090aa:  0127b783          ld              a5,18(a5)
0x00000000800090ae:  0000a717          auipc           a4,40960        # 0x800130ae
0x00000000800090b2:  00672703          lw              a4,6(a4)
0x00000000800090b6:  4685              addi            a3,zero,1
0x00000000800090b8:  97aa              add             a5,a5,a0
0x00000000800090ba:  02d70763          beq             a4,a3,46        # 0x800090e8

----------------
IN: 
Priv: 3; Virt: 0
0x00000000800090e8:  00078503          lb              a0,0(a5)
0x00000000800090ec:  0ff57513          andi            a0,a0,255
0x00000000800090f0:  0820000f          fence           i,r
0x00000000800090f4:  6422              ld              s0,8(sp)
0x00000000800090f6:  2501              sext.w          a0,a0
0x00000000800090f8:  0141              addi            sp,sp,16
0x00000000800090fa:  8082              ret             

----------------
IN: 
Priv: 3; Virt: 0
0x0000000080009308:  4501              mv              a0,zero
0x000000008000930a:  d87ff0ef          jal             ra,-634         # 0x80009090

----------------
IN: 
Priv: 3; Virt: 0
0x000000008000930e:  451d              addi            a0,zero,7
0x0000000080009310:  4581              mv              a1,zero
0x0000000080009312:  debff0ef          jal             ra,-534         # 0x800090fc

----------------
IN: 
Priv: 3; Virt: 0
0x0000000080009316:  60e2              ld              ra,24(sp)
0x0000000080009318:  6442              ld              s0,16(sp)
0x000000008000931a:  64a2              ld              s1,8(sp)
0x000000008000931c:  6902              ld              s2,0(sp)
0x000000008000931e:  4501              mv              a0,zero
0x0000000080009320:  6105              addi            sp,sp,32
0x0000000080009322:  8082              ret             

----------------
IN: 
Priv: 3; Virt: 0
0x0000000080008f34:  70e2              ld              ra,56(sp)
0x0000000080008f36:  7442              ld              s0,48(sp)
0x0000000080008f38:  6121              addi            sp,sp,64
0x0000000080008f3a:  8082              ret             

----------------
IN: 
Priv: 3; Virt: 0
0x0000000080008e8e:  f521              bnez            a0,-184         # 0x80008dd6

----------------
IN: 
Priv: 3; Virt: 0
0x0000000080008e90:  00009997          auipc           s3,36864        # 0x80011e90
0x0000000080008e94:  1a098993          addi            s3,s3,416
0x0000000080008e98:  0129b023          sd              s2,0(s3)
0x0000000080008e9c:  b735              j               -212            # 0x80008dc8

----------------
IN: 
Priv: 3; Virt: 0
0x0000000080008dc8:  00009797          auipc           a5,36864        # 0x80011dc8
0x0000000080008dcc:  62078793          addi            a5,a5,1568
0x0000000080008dd0:  00f90c63          beq             s2,a5,24        # 0x80008de8

----------------
IN: 
Priv: 3; Virt: 0
0x0000000080008dd4:  4501              mv              a0,zero
0x0000000080008dd6:  60a6              ld              ra,72(sp)
0x0000000080008dd8:  6406              ld              s0,64(sp)
0x0000000080008dda:  74e2              ld              s1,56(sp)
0x0000000080008ddc:  7942              ld              s2,48(sp)
0x0000000080008dde:  79a2              ld              s3,40(sp)
0x0000000080008de0:  7a02              ld              s4,32(sp)
0x0000000080008de2:  6ae2              ld              s5,24(sp)
0x0000000080008de4:  6161              addi            sp,sp,80
0x0000000080008de6:  8082              ret             

----------------
IN: 
Priv: 3; Virt: 0
0x0000000080004024:  60a2              ld              ra,8(sp)
0x0000000080004026:  6402              ld              s0,0(sp)
0x0000000080004028:  0141              addi            sp,sp,16
0x000000008000402a:  8082              ret             

----------------
IN: 
Priv: 3; Virt: 0
0x00000000800009ca:  e0051be3          bnez            a0,-490         # 0x800007e0

----------------
IN: 
Priv: 3; Virt: 0
0x00000000800009ce:  68bc              ld              a5,80(s1)
0x00000000800009d0:  8b85              andi            a5,a5,1
0x00000000800009d2:  ef99              bnez            a5,30           # 0x800009f0

----------------
IN: 
Priv: 3; Virt: 0
0x00000000800009d4:  4625              addi            a2,zero,9
0x00000000800009d6:  4581              mv              a1,zero
0x00000000800009d8:  0000f517          auipc           a0,61440        # 0x8000f9d8
0x00000000800009dc:  63850513          addi            a0,a0,1592
0x00000000800009e0:  588030ef          jal             ra,13704        # 0x80003f68

----------------
IN: 
Priv: 3; Virt: 0
0x0000000080003f68:  7159              addi            sp,sp,-112
0x0000000080003f6a:  f406              sd              ra,40(sp)
0x0000000080003f6c:  f022              sd              s0,32(sp)
0x0000000080003f6e:  ec26              sd              s1,24(sp)
0x0000000080003f70:  1800              addi            s0,sp,48
0x0000000080003f72:  84aa              mv              s1,a0
0x0000000080003f74:  0000f517          auipc           a0,61440        # 0x80012f74
0x0000000080003f78:  0fc50513          addi            a0,a0,252
0x0000000080003f7c:  f018              sd              a4,32(s0)
0x0000000080003f7e:  f41c              sd              a5,40(s0)
0x0000000080003f80:  03043823          sd              a6,48(s0)
0x0000000080003f84:  03143c23          sd              a7,56(s0)
0x0000000080003f88:  e40c              sd              a1,8(s0)
0x0000000080003f8a:  e810              sd              a2,16(s0)
0x0000000080003f8c:  ec14              sd              a3,24(s0)
0x0000000080003f8e:  b7aff0ef          jal             ra,-3206        # 0x80003308

----------------
IN: 
Priv: 3; Virt: 0
0x0000000080003f92:  00840693          addi            a3,s0,8
0x0000000080003f96:  8626              mv              a2,s1
0x0000000080003f98:  4581              mv              a1,zero
0x0000000080003f9a:  4501              mv              a0,zero
0x0000000080003f9c:  fcd43c23          sd              a3,-40(s0)
0x0000000080003fa0:  b17ff0ef          jal             ra,-1258        # 0x80003ab6

----------------
IN: 
Priv: 3; Virt: 0
0x0000000080003ab6:  7135              addi            sp,sp,-160
0x0000000080003ab8:  e922              sd              s0,144(sp)
0x0000000080003aba:  f8d2              sd              s4,112(sp)
0x0000000080003abc:  ed06              sd              ra,152(sp)
0x0000000080003abe:  e526              sd              s1,136(sp)
0x0000000080003ac0:  e14a              sd              s2,128(sp)
0x0000000080003ac2:  fcce              sd              s3,120(sp)
0x0000000080003ac4:  f4d6              sd              s5,104(sp)
0x0000000080003ac6:  f0da              sd              s6,96(sp)
0x0000000080003ac8:  ecde              sd              s7,88(sp)
0x0000000080003aca:  e8e2              sd              s8,80(sp)
0x0000000080003acc:  e4e6              sd              s9,72(sp)
0x0000000080003ace:  e0ea              sd              s10,64(sp)
0x0000000080003ad0:  fc6e              sd              s11,56(sp)
0x0000000080003ad2:  1100              addi            s0,sp,160
0x0000000080003ad4:  00064703          lbu             a4,0(a2)
0x0000000080003ad8:  8a2a              mv              s4,a0
0x0000000080003ada:  26070063          beqz            a4,608          # 0x80003d3a

----------------
IN: 
Priv: 3; Virt: 0
0x0000000080003ade:  87b2              mv              a5,a2
0x0000000080003ae0:  8d2e              mv              s10,a1
0x0000000080003ae2:  89b6              mv              s3,a3
0x0000000080003ae4:  4c81              mv              s9,zero
0x0000000080003ae6:  4a81              mv              s5,zero
0x0000000080003ae8:  02500913          addi            s2,zero,37
0x0000000080003aec:  02d00b93          addi            s7,zero,45
0x0000000080003af0:  02300b13          addi            s6,zero,35
0x0000000080003af4:  03000d93          addi            s11,zero,48
0x0000000080003af8:  0000dc17          auipc           s8,53248        # 0x80010af8
0x0000000080003afc:  250c0c13          addi            s8,s8,592
0x0000000080003b00:  09271f63          bne             a4,s2,158       # 0x80003b9e

----------------
IN: 
Priv: 3; Virt: 0
0x0000000080003b9e:  0007c603          lbu             a2,0(a5)
0x0000000080003ba2:  84be              mv              s1,a5
0x0000000080003ba4:  85ea              mv              a1,s10
0x0000000080003ba6:  8552              mv              a0,s4
0x0000000080003ba8:  c4dff0ef          jal             ra,-948         # 0x800037f4

----------------
IN: 
Priv: 3; Virt: 0
0x00000000800037f4:  c51d              beqz            a0,46           # 0x80003822

----------------
IN: 
Priv: 3; Virt: 0
0x0000000080003822:  1141              addi            sp,sp,-16
0x0000000080003824:  e022              sd              s0,0(sp)
0x0000000080003826:  e406              sd              ra,8(sp)
0x0000000080003828:  0800              addi            s0,sp,16
0x000000008000382a:  8532              mv              a0,a2
0x000000008000382c:  f7fff0ef          jal             ra,-130         # 0x800037aa

----------------
IN: 
Priv: 3; Virt: 0
0x00000000800037aa:  1101              addi            sp,sp,-32
0x00000000800037ac:  e822              sd              s0,16(sp)
0x00000000800037ae:  e426              sd              s1,8(sp)
0x00000000800037b0:  e04a              sd              s2,0(sp)
0x00000000800037b2:  ec06              sd              ra,24(sp)
0x00000000800037b4:  1000              addi            s0,sp,32
0x00000000800037b6:  00010917          auipc           s2,65536        # 0x800137b6
0x00000000800037ba:  8c290913          addi            s2,s2,-1854
0x00000000800037be:  47a9              addi            a5,zero,10
0x00000000800037c0:  00093703          ld              a4,0(s2)
0x00000000800037c4:  84aa              mv              s1,a0
0x00000000800037c6:  02f50063          beq             a0,a5,32        # 0x800037e6

----------------
IN: 
Priv: 3; Virt: 0
0x00000000800037e6:  db75              beqz            a4,-12          # 0x800037da

----------------
IN: 
Priv: 3; Virt: 0
0x00000000800037e8:  6f3c              ld              a5,88(a4)
0x00000000800037ea:  63bc              ld              a5,64(a5)
0x00000000800037ec:  d7fd              beqz            a5,-18          # 0x800037da

----------------
IN: 
Priv: 3; Virt: 0
0x00000000800037ee:  4535              addi            a0,zero,13
0x00000000800037f0:  9782              jalr            ra,a5,0

----------------
IN: 
Priv: 3; Virt: 0
0x0000000080008d5a:  1141              addi            sp,sp,-16
0x0000000080008d5c:  e022              sd              s0,0(sp)
0x0000000080008d5e:  e406              sd              ra,8(sp)
0x0000000080008d60:  0800              addi            s0,sp,16
0x0000000080008d62:  00009797          auipc           a5,36864        # 0x80011d62
0x0000000080008d66:  2ce7b783          ld              a5,718(a5)
0x0000000080008d6a:  6b9c              ld              a5,16(a5)
0x0000000080008d6c:  9782              jalr            ra,a5,0

----------------
IN: 
Priv: 3; Virt: 0
0x000000008000916c:  1141              addi            sp,sp,-16
0x000000008000916e:  e022              sd              s0,0(sp)
0x0000000080009170:  e406              sd              ra,8(sp)
0x0000000080009172:  0800              addi            s0,sp,16
0x0000000080009174:  85aa              mv              a1,a0
0x0000000080009176:  0000ae17          auipc           t3,40960        # 0x80013176
0x000000008000917a:  f3ee0e13          addi            t3,t3,-194
0x000000008000917e:  0000a317          auipc           t1,40960        # 0x8001317e
0x0000000080009182:  f3a30313          addi            t1,t1,-198
0x0000000080009186:  0000a897          auipc           a7,40960        # 0x80013186
0x000000008000918a:  f2a88893          addi            a7,a7,-214
0x000000008000918e:  4815              addi            a6,zero,5
0x0000000080009190:  4605              addi            a2,zero,1
0x0000000080009192:  4e89              addi            t4,zero,2
0x0000000080009194:  a801              j               16              # 0x800091a4

----------------
IN: 
Priv: 3; Virt: 0
0x00000000800091a4:  0008a703          lw              a4,0(a7)
0x00000000800091a8:  00033783          ld              a5,0(t1)
0x00000000800091ac:  000e2683          lw              a3,0(t3)
0x00000000800091b0:  00e8173b          sllw            a4,a6,a4
0x00000000800091b4:  1702              slli            a4,a4,32
0x00000000800091b6:  9301              srli            a4,a4,32
0x00000000800091b8:  97ba              add             a5,a5,a4
0x00000000800091ba:  02c68563          beq             a3,a2,42        # 0x800091e4

----------------
IN: 
Priv: 3; Virt: 0
0x00000000800091e4:  00078783          lb              a5,0(a5)
0x00000000800091e8:  0ff7f793          andi            a5,a5,255
0x00000000800091ec:  0820000f          fence           i,r
0x00000000800091f0:  2781              sext.w          a5,a5
0x00000000800091f2:  b775              j               -84             # 0x8000919e

----------------
IN: 
Priv: 3; Virt: 0
0x000000008000919e:  0207f793          andi            a5,a5,32
0x00000000800091a2:  eb95              bnez            a5,52           # 0x800091d6

----------------
IN: 
Priv: 3; Virt: 0
0x00000000800091d6:  4501              mv              a0,zero
0x00000000800091d8:  f25ff0ef          jal             ra,-220         # 0x800090fc

----------------
IN: 
Priv: 3; Virt: 0
0x00000000800091dc:  60a2              ld              ra,8(sp)
0x00000000800091de:  6402              ld              s0,0(sp)
0x00000000800091e0:  0141              addi            sp,sp,16
0x00000000800091e2:  8082              ret             

----------------
IN: 
Priv: 3; Virt: 0
0x0000000080008d6e:  60a2              ld              ra,8(sp)
0x0000000080008d70:  6402              ld              s0,0(sp)
0x0000000080008d72:  0141              addi            sp,sp,16
0x0000000080008d74:  8082              ret             

----------------
IN: 
Priv: 3; Virt: 0
0x00000000800037f2:  bfe1              j               -40             # 0x800037ca

----------------
IN: 
Priv: 3; Virt: 0
0x00000000800037ca:  00093783          ld              a5,0(s2)
0x00000000800037ce:  c791              beqz            a5,12           # 0x800037da

----------------
IN: 
Priv: 3; Virt: 0
0x00000000800037d0:  6fbc              ld              a5,88(a5)
0x00000000800037d2:  63bc              ld              a5,64(a5)
0x00000000800037d4:  c399              beqz            a5,6            # 0x800037da

----------------
IN: 
Priv: 3; Virt: 0
0x00000000800037d6:  8526              mv              a0,s1
0x00000000800037d8:  9782              jalr            ra,a5,0

----------------
IN: 
Priv: 3; Virt: 0
0x00000000800037da:  60e2              ld              ra,24(sp)
0x00000000800037dc:  6442              ld              s0,16(sp)
0x00000000800037de:  64a2              ld              s1,8(sp)
0x00000000800037e0:  6902              ld              s2,0(sp)
0x00000000800037e2:  6105              addi            sp,sp,32
0x00000000800037e4:  8082              ret             

----------------
IN: 
Priv: 3; Virt: 0
0x0000000080003830:  60a2              ld              ra,8(sp)
0x0000000080003832:  6402              ld              s0,0(sp)
0x0000000080003834:  0141              addi            sp,sp,16
0x0000000080003836:  8082              ret             

----------------
IN: 
Priv: 3; Virt: 0
0x0000000080003bac:  2c85              addiw           s9,s9,1
0x0000000080003bae:  00148e13          addi            t3,s1,1
0x0000000080003bb2:  0014c703          lbu             a4,1(s1)
0x0000000080003bb6:  87f2              mv              a5,t3
0x0000000080003bb8:  f721              bnez            a4,-184         # 0x80003b00

----------------
IN: 
Priv: 3; Virt: 0
0x0000000080003b00:  09271f63          bne             a4,s2,158       # 0x80003b9e

----------------
IN: 
Priv: 3; Virt: 0
0x0000000080003b04:  0017c603          lbu             a2,1(a5)
0x0000000080003b08:  ca4d              beqz            a2,178          # 0x80003bba

----------------
IN: 
Priv: 3; Virt: 0
0x0000000080003b0a:  00178493          addi            s1,a5,1
0x0000000080003b0e:  09260b63          beq             a2,s2,150       # 0x80003ba4

----------------
IN: 
Priv: 3; Virt: 0
0x0000000080003b12:  4801              mv              a6,zero
0x0000000080003b14:  07760d63          beq             a2,s7,122       # 0x80003b8e

----------------
IN: 
Priv: 3; Virt: 0
0x0000000080003b18:  07660563          beq             a2,s6,106       # 0x80003b82

----------------
IN: 
Priv: 3; Virt: 0
0x0000000080003b1c:  01b61963          bne             a2,s11,18       # 0x80003b2e

----------------
IN: 
Priv: 3; Virt: 0
0x0000000080003b2e:  fd06069b          addiw           a3,a2,-48
0x0000000080003b32:  0ff6f713          andi            a4,a3,255
0x0000000080003b36:  47a5              addi            a5,zero,9
0x0000000080003b38:  1ee7e063          bgtu            a4,a5,480       # 0x80003d18

----------------
IN: 
Priv: 3; Virt: 0
0x0000000080003d18:  4781              mv              a5,zero
0x0000000080003d1a:  b599              j               -442            # 0x80003b60

----------------
IN: 
Priv: 3; Virt: 0
0x0000000080003b60:  07300713          addi            a4,zero,115
0x0000000080003b64:  0ce60063          beq             a2,a4,192       # 0x80003c24

----------------
IN: 
Priv: 3; Virt: 0
0x0000000080003b68:  fb06061b          addiw           a2,a2,-80
0x0000000080003b6c:  0ff67613          andi            a2,a2,255
0x0000000080003b70:  02800713          addi            a4,zero,40
0x0000000080003b74:  06c76963          bgtu            a2,a4,114       # 0x80003be6

----------------
IN: 
Priv: 3; Virt: 0
0x0000000080003b78:  060a              slli            a2,a2,2
0x0000000080003b7a:  9662              add             a2,a2,s8
0x0000000080003b7c:  4218              lw              a4,0(a2)
0x0000000080003b7e:  9762              add             a4,a4,s8
0x0000000080003b80:  8702              jr              a4

----------------
IN: 
Priv: 3; Virt: 0
0x0000000080003c46:  0009a603          lw              a2,0(s3)
0x0000000080003c4a:  03000893          addi            a7,zero,48
0x0000000080003c4e:  4705              addi            a4,zero,1
0x0000000080003c50:  46a9              addi            a3,zero,10
0x0000000080003c52:  85ea              mv              a1,s10
0x0000000080003c54:  8552              mv              a0,s4
0x0000000080003c56:  d3fff0ef          jal             ra,-706         # 0x80003994

----------------
IN: 
Priv: 3; Virt: 0
0x0000000080003994:  7119              addi            sp,sp,-128
0x0000000080003996:  f8a2              sd              s0,112(sp)
0x0000000080003998:  f0ca              sd              s2,96(sp)
0x000000008000399a:  fc86              sd              ra,120(sp)
0x000000008000399c:  f4a6              sd              s1,104(sp)
0x000000008000399e:  0100              addi            s0,sp,128
0x00000000800039a0:  893a              mv              s2,a4
0x00000000800039a2:  8e36              mv              t3,a3
0x00000000800039a4:  8742              mv              a4,a6
0x00000000800039a6:  86be              mv              a3,a5
0x00000000800039a8:  8332              mv              t1,a2
0x00000000800039aa:  00090563          beqz            s2,10           # 0x800039b4

----------------
IN: 
Priv: 3; Virt: 0
0x00000000800039ae:  47a9              addi            a5,zero,10
0x00000000800039b0:  0afe0f63          beq             t3,a5,190       # 0x80003a6e

----------------
IN: 
Priv: 3; Virt: 0
0x0000000080003a6e:  f40653e3          bgez            a2,-186         # 0x800039b4

----------------
IN: 
Priv: 3; Virt: 0
0x00000000800039b4:  fc040fa3          sb              zero,-33(s0)
0x00000000800039b8:  ee39              bnez            a2,94           # 0x80003a16

----------------
IN: 
Priv: 3; Virt: 0
0x00000000800039ba:  03000793          addi            a5,zero,48
0x00000000800039be:  fcf40f23          sb              a5,-34(s0)
0x00000000800039c2:  00477913          andi            s2,a4,4
0x00000000800039c6:  fde40493          addi            s1,s0,-34
0x00000000800039ca:  02090b63          beqz            s2,54           # 0x80003a00

----------------
IN: 
Priv: 3; Virt: 0
0x0000000080003a00:  8626              mv              a2,s1
0x0000000080003a02:  e37ff0ef          jal             ra,-458         # 0x80003838

----------------
IN: 
Priv: 3; Virt: 0
0x0000000080003838:  715d              addi            sp,sp,-80
0x000000008000383a:  e0a2              sd              s0,64(sp)
0x000000008000383c:  fc26              sd              s1,56(sp)
0x000000008000383e:  f84a              sd              s2,48(sp)
0x0000000080003840:  f44e              sd              s3,40(sp)
0x0000000080003842:  f052              sd              s4,32(sp)
0x0000000080003844:  e486              sd              ra,72(sp)
0x0000000080003846:  ec56              sd              s5,24(sp)
0x0000000080003848:  e85a              sd              s6,16(sp)
0x000000008000384a:  e45e              sd              s7,8(sp)
0x000000008000384c:  0880              addi            s0,sp,80
0x000000008000384e:  84aa              mv              s1,a0
0x0000000080003850:  8932              mv              s2,a2
0x0000000080003852:  00064503          lbu             a0,0(a2)
0x0000000080003856:  8a36              mv              s4,a3
0x0000000080003858:  89ae              mv              s3,a1
0x000000008000385a:  10d05a63          blez            a3,276          # 0x8000396e

----------------
IN: 
Priv: 3; Virt: 0
0x000000008000396e:  02000b93          addi            s7,zero,32
0x0000000080003972:  4b01              mv              s6,zero
0x0000000080003974:  b7e9              j               -54             # 0x8000393e

----------------
IN: 
Priv: 3; Virt: 0
0x000000008000393e:  dd55              beqz            a0,-68          # 0x800038fa

----------------
IN: 
Priv: 3; Virt: 0
0x0000000080003940:  412b0abb          subw            s5,s6,s2
0x0000000080003944:  2a85              addiw           s5,s5,1
0x0000000080003946:  f8a9              bnez            s1,-174         # 0x80003898

----------------
IN: 
Priv: 3; Virt: 0
0x0000000080003948:  e63ff0ef          jal             ra,-414         # 0x800037aa

----------------
IN: 
Priv: 3; Virt: 0
0x000000008000394c:  b7bd              j               -146            # 0x800038ba

----------------
IN: 
Priv: 3; Virt: 0
0x00000000800038ba:  00194503          lbu             a0,1(s2)
0x00000000800038be:  012a8b3b          addw            s6,s5,s2
0x00000000800038c2:  0905              addi            s2,s2,1
0x00000000800038c4:  f969              bnez            a0,-46          # 0x80003896

----------------
IN: 
Priv: 3; Virt: 0
0x00000000800038c6:  03405a63          blez            s4,52           # 0x800038fa

----------------
IN: 
Priv: 3; Virt: 0
0x00000000800038fa:  60a6              ld              ra,72(sp)
0x00000000800038fc:  6406              ld              s0,64(sp)
0x00000000800038fe:  74e2              ld              s1,56(sp)
0x0000000080003900:  7942              ld              s2,48(sp)
0x0000000080003902:  79a2              ld              s3,40(sp)
0x0000000080003904:  7a02              ld              s4,32(sp)
0x0000000080003906:  6ae2              ld              s5,24(sp)
0x0000000080003908:  6ba2              ld              s7,8(sp)
0x000000008000390a:  855a              mv              a0,s6
0x000000008000390c:  6b42              ld              s6,16(sp)
0x000000008000390e:  6161              addi            sp,sp,80
0x0000000080003910:  8082              ret             

----------------
IN: 
Priv: 3; Virt: 0
0x0000000080003a06:  70e6              ld              ra,120(sp)
0x0000000080003a08:  7446              ld              s0,112(sp)
0x0000000080003a0a:  74a6              ld              s1,104(sp)
0x0000000080003a0c:  0125053b          addw            a0,a0,s2
0x0000000080003a10:  7906              ld              s2,96(sp)
0x0000000080003a12:  6109              addi            sp,sp,128
0x0000000080003a14:  8082              ret             

----------------
IN: 
Priv: 3; Virt: 0
0x0000000080003c5a:  09a1              addi            s3,s3,8
0x0000000080003c5c:  01950cbb          addw            s9,a0,s9
0x0000000080003c60:  2a91              addiw           s5,s5,4
0x0000000080003c62:  00148e13          addi            t3,s1,1
0x0000000080003c66:  b7b1              j               -180            # 0x80003bb2

----------------
IN: 
Priv: 3; Virt: 0
0x0000000080003bb2:  0014c703          lbu             a4,1(s1)
0x0000000080003bb6:  87f2              mv              a5,t3
0x0000000080003bb8:  f721              bnez            a4,-184         # 0x80003b00

----------------
IN: 
Priv: 3; Virt: 0
0x0000000080003a16:  4901              mv              s2,zero
0x0000000080003a18:  fdf40493          addi            s1,s0,-33
0x0000000080003a1c:  4825              addi            a6,zero,9
0x0000000080003a1e:  fc688f1b          addiw           t5,a7,-58
0x0000000080003a22:  03c37633          remu            a2,t1,t3
0x0000000080003a26:  8e9a              mv              t4,t1
0x0000000080003a28:  14fd              addi            s1,s1,-1
0x0000000080003a2a:  03c35333          divu            t1,t1,t3
0x0000000080003a2e:  00c87363          bleu            a2,a6,6         # 0x80003a34

----------------
IN: 
Priv: 3; Virt: 0
0x0000000080003a34:  0306061b          addiw           a2,a2,48
0x0000000080003a38:  00c48023          sb              a2,0(s1)
0x0000000080003a3c:  ffcef3e3          bleu            t3,t4,-26       # 0x80003a22

----------------
IN: 
Priv: 3; Virt: 0
0x0000000080003a40:  00477793          andi            a5,a4,4
0x0000000080003a44:  d3d5              beqz            a5,-92          # 0x800039e8

----------------
IN: 
Priv: 3; Virt: 0
0x00000000800039e8:  00090c63          beqz            s2,24           # 0x80003a00

----------------
IN: 
Priv: 3; Virt: 0
0x0000000080003bba:  000a0663          beqz            s4,12           # 0x80003bc6

----------------
IN: 
Priv: 3; Virt: 0
0x0000000080003bc6:  60ea              ld              ra,152(sp)
0x0000000080003bc8:  644a              ld              s0,144(sp)
0x0000000080003bca:  64aa              ld              s1,136(sp)
0x0000000080003bcc:  690a              ld              s2,128(sp)
0x0000000080003bce:  79e6              ld              s3,120(sp)
0x0000000080003bd0:  7a46              ld              s4,112(sp)
0x0000000080003bd2:  7aa6              ld              s5,104(sp)
0x0000000080003bd4:  7b06              ld              s6,96(sp)
0x0000000080003bd6:  6be6              ld              s7,88(sp)
0x0000000080003bd8:  6c46              ld              s8,80(sp)
0x0000000080003bda:  6d06              ld              s10,64(sp)
0x0000000080003bdc:  7de2              ld              s11,56(sp)
0x0000000080003bde:  8566              mv              a0,s9
0x0000000080003be0:  6ca6              ld              s9,72(sp)
0x0000000080003be2:  610d              addi            sp,sp,160
0x0000000080003be4:  8082              ret             

----------------
IN: 
Priv: 3; Virt: 0
0x0000000080003fa4:  84aa              mv              s1,a0
0x0000000080003fa6:  0000f517          auipc           a0,61440        # 0x80012fa6
0x0000000080003faa:  0ca50513          addi            a0,a0,202
0x0000000080003fae:  b78ff0ef          jal             ra,-3208        # 0x80003326

----------------
IN: 
Priv: 3; Virt: 0
0x0000000080003fb2:  70a2              ld              ra,40(sp)
0x0000000080003fb4:  7402              ld              s0,32(sp)
0x0000000080003fb6:  8526              mv              a0,s1
0x0000000080003fb8:  64e2              ld              s1,24(sp)
0x0000000080003fba:  6165              addi            sp,sp,112
0x0000000080003fbc:  8082              ret             

----------------
IN: 
Priv: 3; Virt: 0
0x00000000800009e4:  0000f517          auipc           a0,61440        # 0x8000f9e4
0x00000000800009e8:  64450513          addi            a0,a0,1604
0x00000000800009ec:  57c030ef          jal             ra,13692        # 0x80003f68

----------------
IN: 
Priv: 3; Virt: 0
0x00000000800009f0:  020a8c63          beqz            s5,56           # 0x80000a28

----------------
IN: 
Priv: 3; Virt: 0
0x00000000800009f4:  058ab783          ld              a5,88(s5)
0x00000000800009f8:  6fbc              ld              a5,88(a5)
0x00000000800009fa:  c79d              beqz            a5,46           # 0x80000a28

----------------
IN: 
Priv: 3; Virt: 0
0x00000000800009fc:  4505              addi            a0,zero,1
0x00000000800009fe:  9782              jalr            ra,a5,0

----------------
IN: 
Priv: 3; Virt: 0
0x000000008000b0ba:  7139              addi            sp,sp,-64
0x000000008000b0bc:  f822              sd              s0,48(sp)
0x000000008000b0be:  fc06              sd              ra,56(sp)
0x000000008000b0c0:  f426              sd              s1,40(sp)
0x000000008000b0c2:  f04a              sd              s2,32(sp)
0x000000008000b0c4:  ec4e              sd              s3,24(sp)
0x000000008000b0c6:  e852              sd              s4,16(sp)
0x000000008000b0c8:  0080              addi            s0,sp,64
0x000000008000b0ca:  c529              beqz            a0,74           # 0x8000b114

----------------
IN: 
Priv: 3; Virt: 0
0x000000008000b0cc:  340027f3          csrrs           a5,mscratch,zero

----------------
IN: 
Priv: 3; Virt: 0
0x000000008000b0d0:  0107b983          ld              s3,16(a5)
0x000000008000b0d4:  54fd              addi            s1,zero,-1
0x000000008000b0d6:  00007917          auipc           s2,28672        # 0x800120d6
0x000000008000b0da:  3f290913          addi            s2,s2,1010
0x000000008000b0de:  00008a17          auipc           s4,32768        # 0x800130de
0x000000008000b0e2:  feaa0a13          addi            s4,s4,-22
0x000000008000b0e6:  00093603          ld              a2,0(s2)
0x000000008000b0ea:  85a6              mv              a1,s1
0x000000008000b0ec:  fc840693          addi            a3,s0,-56
0x000000008000b0f0:  854e              mv              a0,s3
0x000000008000b0f2:  124010ef          jal             ra,4388         # 0x8000c216

----------------
IN: 
Priv: 3; Virt: 0
0x000000008000b0f6:  84aa              mv              s1,a0
0x000000008000b0f8:  85a6              mv              a1,s1
0x000000008000b0fa:  854e              mv              a0,s3
0x000000008000b0fc:  0004cc63          bltz            s1,24           # 0x8000b114

----------------
IN: 
Priv: 3; Virt: 0
0x000000008000b100:  00893783          ld              a5,8(s2)
0x000000008000b104:  c789              beqz            a5,10           # 0x8000b10e

----------------
IN: 
Priv: 3; Virt: 0
0x000000008000b106:  fc843603          ld              a2,-56(s0)
0x000000008000b10a:  9782              jalr            ra,a5,0

----------------
IN: 
Priv: 3; Virt: 0
0x000000008000b168:  7159              addi            sp,sp,-112
0x000000008000b16a:  f0a2              sd              s0,96(sp)
0x000000008000b16c:  fc56              sd              s5,56(sp)
0x000000008000b16e:  f486              sd              ra,104(sp)
0x000000008000b170:  eca6              sd              s1,88(sp)
0x000000008000b172:  e8ca              sd              s2,80(sp)
0x000000008000b174:  e4ce              sd              s3,72(sp)
0x000000008000b176:  e0d2              sd              s4,64(sp)
0x000000008000b178:  f85a              sd              s6,48(sp)
0x000000008000b17a:  f45e              sd              s7,40(sp)
0x000000008000b17c:  f062              sd              s8,32(sp)
0x000000008000b17e:  ec66              sd              s9,24(sp)
0x000000008000b180:  e86a              sd              s10,16(sp)
0x000000008000b182:  1880              addi            s0,sp,112
0x000000008000b184:  00008a97          auipc           s5,32768        # 0x80013184
0x000000008000b188:  f4ca8a93          addi            s5,s5,-180
0x000000008000b18c:  000ab783          ld              a5,0(s5)
0x000000008000b190:  473d              addi            a4,zero,15
0x000000008000b192:  16f76963          bgtu            a5,a4,370       # 0x8000b304

----------------
IN: 
Priv: 3; Virt: 0
0x000000008000b196:  00479713          slli            a4,a5,4
0x000000008000b19a:  0000a997          auipc           s3,40960        # 0x8001519a
0x000000008000b19e:  24e98993          addi            s3,s3,590
0x000000008000b1a2:  99ba              add             s3,s3,a4
0x000000008000b1a4:  0785              addi            a5,a5,1
0x000000008000b1a6:  864e              mv              a2,s3
0x000000008000b1a8:  84aa              mv              s1,a0
0x000000008000b1aa:  8a2e              mv              s4,a1
0x000000008000b1ac:  00fab023          sd              a5,0(s5)
0x000000008000b1b0:  06b010ef          jal             ra,6250         # 0x8000ca1a

----------------
IN: 
Priv: 3; Virt: 0
0x000000008000ca1a:  0805ce63          bltz            a1,156          # 0x8000cab6

----------------
IN: 
Priv: 3; Virt: 0
0x000000008000ca1e:  715d              addi            sp,sp,-80
0x000000008000ca20:  e0a2              sd              s0,64(sp)
0x000000008000ca22:  fc26              sd              s1,56(sp)
0x000000008000ca24:  e486              sd              ra,72(sp)
0x000000008000ca26:  f84a              sd              s2,48(sp)
0x000000008000ca28:  f44e              sd              s3,40(sp)
0x000000008000ca2a:  0880              addi            s0,sp,80
0x000000008000ca2c:  84b2              mv              s1,a2
0x000000008000ca2e:  c249              beqz            a2,130          # 0x8000cab0

----------------
IN: 
Priv: 3; Virt: 0
0x000000008000ca30:  89aa              mv              s3,a0
0x000000008000ca32:  cd3d              beqz            a0,126          # 0x8000cab0

----------------
IN: 
Priv: 3; Virt: 0
0x000000008000ca34:  fc840693          addi            a3,s0,-56
0x000000008000ca38:  fc040613          addi            a2,s0,-64
0x000000008000ca3c:  892e              mv              s2,a1
0x000000008000ca3e:  83fff0ef          jal             ra,-1986        # 0x8000c27c

----------------
IN: 
Priv: 3; Virt: 0
0x000000008000ca42:  06054763          bltz            a0,110          # 0x8000cab0

----------------
IN: 
Priv: 3; Virt: 0
0x000000008000ca46:  fc043783          ld              a5,-64(s0)
0x000000008000ca4a:  c3bd              beqz            a5,102          # 0x8000cab0

----------------
IN: 
Priv: 3; Virt: 0
0x000000008000ca4c:  fc843703          ld              a4,-56(s0)
0x000000008000ca50:  c325              beqz            a4,96           # 0x8000cab0

----------------
IN: 
Priv: 3; Virt: 0
0x000000008000ca52:  e09c              sd              a5,0(s1)
0x000000008000ca54:  fbc40693          addi            a3,s0,-68
0x000000008000ca58:  00005617          auipc           a2,20480        # 0x80011a58
0x000000008000ca5c:  f7860613          addi            a2,a2,-136
0x000000008000ca60:  85ca              mv              a1,s2
0x000000008000ca62:  854e              mv              a0,s3
0x000000008000ca64:  d45fd0ef          jal             ra,-8892        # 0x8000a7a8

----------------
IN: 
Priv: 3; Virt: 0
0x000000008000ca68:  fbc42703          lw              a4,-68(s0)
0x000000008000ca6c:  87aa              mv              a5,a0
0x000000008000ca6e:  4501              mv              a0,zero
0x000000008000ca70:  02e05963          blez            a4,50           # 0x8000caa2

----------------
IN: 
Priv: 3; Virt: 0
0x000000008000ca74:  4398              lw              a4,0(a5)
0x000000008000ca76:  00875613          srli            a2,a4,8
0x000000008000ca7a:  0ff67613          andi            a2,a2,255
0x000000008000ca7e:  0187179b          slliw           a5,a4,24
0x000000008000ca82:  01075693          srli            a3,a4,16
0x000000008000ca86:  0106161b          slliw           a2,a2,16
0x000000008000ca8a:  0187571b          srliw           a4,a4,24
0x000000008000ca8e:  8fd1              or              a5,a5,a2
0x000000008000ca90:  0ff6f693          andi            a3,a3,255
0x000000008000ca94:  8fd9              or              a5,a5,a4
0x000000008000ca96:  0086971b          slliw           a4,a3,8
0x000000008000ca9a:  8fd9              or              a5,a5,a4
0x000000008000ca9c:  1782              slli            a5,a5,32
0x000000008000ca9e:  9381              srli            a5,a5,32
0x000000008000caa0:  e49c              sd              a5,8(s1)
0x000000008000caa2:  60a6              ld              ra,72(sp)
0x000000008000caa4:  6406              ld              s0,64(sp)
0x000000008000caa6:  74e2              ld              s1,56(sp)
0x000000008000caa8:  7942              ld              s2,48(sp)
0x000000008000caaa:  79a2              ld              s3,40(sp)
0x000000008000caac:  6161              addi            sp,sp,80
0x000000008000caae:  8082              ret             

----------------
IN: 
Priv: 3; Virt: 0
0x000000008000b1b4:  892a              mv              s2,a0
0x000000008000b1b6:  c105              beqz            a0,32           # 0x8000b1d6

----------------
IN: 
Priv: 3; Virt: 0
0x000000008000b1d6:  854e              mv              a0,s3
0x000000008000b1d8:  264000ef          jal             ra,612          # 0x8000b43c

----------------
IN: 
Priv: 3; Virt: 0
0x000000008000b43c:  1141              addi            sp,sp,-16
0x000000008000b43e:  e422              sd              s0,8(sp)
0x000000008000b440:  0800              addi            s0,sp,16
0x000000008000b442:  c90d              beqz            a0,50           # 0x8000b474

----------------
IN: 
Priv: 3; Virt: 0
0x000000008000b444:  651c              ld              a5,8(a0)
0x000000008000b446:  4691              addi            a3,zero,4
0x000000008000b448:  4701              mv              a4,zero
0x000000008000b44a:  4581              mv              a1,zero
0x000000008000b44c:  c385              beqz            a5,32           # 0x8000b46c

----------------
IN: 
Priv: 3; Virt: 0
0x000000008000b44e:  6110              ld              a2,0(a0)
0x000000008000b450:  02069793          slli            a5,a3,32
0x000000008000b454:  9381              srli            a5,a5,32
0x000000008000b456:  97b2              add             a5,a5,a2
0x000000008000b458:  0140000f          fence           w,o
0x000000008000b45c:  c38c              sw              a1,0(a5)
0x000000008000b45e:  6510              ld              a2,8(a0)
0x000000008000b460:  00270793          addi            a5,a4,2
0x000000008000b464:  2691              addiw           a3,a3,4
0x000000008000b466:  0705              addi            a4,a4,1
0x000000008000b468:  fef673e3          bleu            a5,a2,-26       # 0x8000b44e

----------------
IN: 
Priv: 3; Virt: 0
0x000000008000b46c:  4501              mv              a0,zero
0x000000008000b46e:  6422              ld              s0,8(sp)
0x000000008000b470:  0141              addi            sp,sp,16
0x000000008000b472:  8082              ret             

----------------
IN: 
Priv: 3; Virt: 0
0x000000008000b1dc:  892a              mv              s2,a0
0x000000008000b1de:  fd69              bnez            a0,-38          # 0x8000b1b8

----------------
IN: 
Priv: 3; Virt: 0
0x000000008000b1e0:  000ab703          ld              a4,0(s5)
0x000000008000b1e4:  4785              addi            a5,zero,1
0x000000008000b1e6:  0ef70c63          beq             a4,a5,248       # 0x8000b2de

----------------
IN: 
Priv: 3; Virt: 0
0x000000008000b2de:  0000a717          auipc           a4,40960        # 0x800152de
0x000000008000b2e2:  d0a70713          addi            a4,a4,-758
0x000000008000b2e6:  0000a797          auipc           a5,40960        # 0x800152e6
0x000000008000b2ea:  90278793          addi            a5,a5,-1790
0x000000008000b2ee:  863a              mv              a2,a4
0x000000008000b2f0:  56fd              addi            a3,zero,-1
0x000000008000b2f2:  00073023          sd              zero,0(a4)
0x000000008000b2f6:  c394              sw              a3,0(a5)
0x000000008000b2f8:  c3d4              sw              a3,4(a5)
0x000000008000b2fa:  07a1              addi            a5,a5,8
0x000000008000b2fc:  0721              addi            a4,a4,8
0x000000008000b2fe:  fef61ae3          bne             a2,a5,-12       # 0x8000b2f2

----------------
IN: 
Priv: 3; Virt: 0
0x000000008000b2f2:  00073023          sd              zero,0(a4)
0x000000008000b2f6:  c394              sw              a3,0(a5)
0x000000008000b2f8:  c3d4              sw              a3,4(a5)
0x000000008000b2fa:  07a1              addi            a5,a5,8
0x000000008000b2fc:  0721              addi            a4,a4,8
0x000000008000b2fe:  fef61ae3          bne             a2,a5,-12       # 0x8000b2f2

----------------
IN: 
Priv: 3; Virt: 0
0x000000008000b302:  b5e5              j               -280            # 0x8000b1ea

----------------
IN: 
Priv: 3; Virt: 0
0x000000008000b1ea:  f9c40693          addi            a3,s0,-100
0x000000008000b1ee:  00006617          auipc           a2,24576        # 0x800111ee
0x000000008000b1f2:  5c260613          addi            a2,a2,1474
0x000000008000b1f6:  85d2              mv              a1,s4
0x000000008000b1f8:  8526              mv              a0,s1
0x000000008000b1fa:  daeff0ef          jal             ra,-2642        # 0x8000a7a8

----------------
IN: 
Priv: 3; Virt: 0
0x000000008000b1fe:  8c2a              mv              s8,a0
0x000000008000b200:  10050563          beqz            a0,266          # 0x8000b30a

----------------
IN: 
Priv: 3; Virt: 0
0x000000008000b204:  f9c42783          lw              a5,-100(s0)
0x000000008000b208:  470d              addi            a4,zero,3
0x000000008000b20a:  10f77063          bleu            a5,a4,256       # 0x8000b30a

----------------
IN: 
Priv: 3; Virt: 0
0x000000008000b20e:  8789              srai            a5,a5,2
0x000000008000b210:  f8f42e23          sw              a5,-100(s0)
0x000000008000b214:  4c81              mv              s9,zero
0x000000008000b216:  faf051e3          blez            a5,-94          # 0x8000b1b8

----------------
IN: 
Priv: 3; Virt: 0
0x000000008000b21a:  07f00a93          addi            s5,zero,127
0x000000008000b21e:  0000aa17          auipc           s4,40960        # 0x8001521e
0x000000008000b222:  9caa0a13          addi            s4,s4,-1590
0x000000008000b226:  4ba5              addi            s7,zero,9
0x000000008000b228:  4b2d              addi            s6,zero,11
0x000000008000b22a:  a821              j               24              # 0x8000b242

----------------
IN: 
Priv: 3; Virt: 0
0x000000008000b242:  000c2783          lw              a5,0(s8)
0x000000008000b246:  8526              mv              a0,s1
0x000000008000b248:  004c2d03          lw              s10,4(s8)
0x000000008000b24c:  0087d693          srli            a3,a5,8
0x000000008000b250:  0ff6f693          andi            a3,a3,255
0x000000008000b254:  0187959b          slliw           a1,a5,24
0x000000008000b258:  0106969b          slliw           a3,a3,16
0x000000008000b25c:  0107d713          srli            a4,a5,16
0x000000008000b260:  8dd5              or              a1,a1,a3
0x000000008000b262:  0187d79b          srliw           a5,a5,24
0x000000008000b266:  0ff77713          andi            a4,a4,255
0x000000008000b26a:  8ddd              or              a1,a1,a5
0x000000008000b26c:  0087179b          slliw           a5,a4,8
0x000000008000b270:  8ddd              or              a1,a1,a5
0x000000008000b272:  2581              sext.w          a1,a1
0x000000008000b274:  a7dff0ef          jal             ra,-1412        # 0x8000acf0

----------------
IN: 
Priv: 3; Virt: 0
0x000000008000acf0:  7179              addi            sp,sp,-48
0x000000008000acf2:  f022              sd              s0,32(sp)
0x000000008000acf4:  f406              sd              ra,40(sp)
0x000000008000acf6:  ec26              sd              s1,24(sp)
0x000000008000acf8:  e84a              sd              s2,16(sp)
0x000000008000acfa:  e44e              sd              s3,8(sp)
0x000000008000acfc:  1800              addi            s0,sp,48
0x000000008000acfe:  fff5871b          addiw           a4,a1,-1
0x000000008000ad02:  57f5              addi            a5,zero,-3
0x000000008000ad04:  04e7e563          bgtu            a4,a5,74        # 0x8000ad4e

----------------
IN: 
Priv: 3; Virt: 0
0x000000008000ad08:  89ae              mv              s3,a1
0x000000008000ad0a:  892a              mv              s2,a0
0x000000008000ad0c:  f1afe0ef          jal             ra,-6374        # 0x80009426

----------------
IN: 
Priv: 3; Virt: 0
0x000000008000ad10:  84aa              mv              s1,a0
0x000000008000ad12:  02054663          bltz            a0,44           # 0x8000ad3e

----------------
IN: 
Priv: 3; Virt: 0
0x000000008000ad16:  4601              mv              a2,zero
0x000000008000ad18:  55fd              addi            a1,zero,-1
0x000000008000ad1a:  854a              mv              a0,s2
0x000000008000ad1c:  a821              j               24              # 0x8000ad34

----------------
IN: 
Priv: 3; Virt: 0
0x000000008000ad34:  d23fe0ef          jal             ra,-4830        # 0x80009a56

----------------
IN: 
Priv: 3; Virt: 0
0x000000008000ad38:  84aa              mv              s1,a0
0x000000008000ad3a:  fe0552e3          bgez            a0,-28          # 0x8000ad1e

----------------
IN: 
Priv: 3; Virt: 0
0x000000008000ad1e:  85aa              mv              a1,a0
0x000000008000ad20:  854a              mv              a0,s2
0x000000008000ad22:  ac5ff0ef          jal             ra,-1340        # 0x8000a7e6

----------------
IN: 
Priv: 3; Virt: 0
0x000000008000a7e6:  7179              addi            sp,sp,-48
0x000000008000a7e8:  f022              sd              s0,32(sp)
0x000000008000a7ea:  ec26              sd              s1,24(sp)
0x000000008000a7ec:  e84a              sd              s2,16(sp)
0x000000008000a7ee:  1800              addi            s0,sp,48
0x000000008000a7f0:  f406              sd              ra,40(sp)
0x000000008000a7f2:  84aa              mv              s1,a0
0x000000008000a7f4:  00007517          auipc           a0,28672        # 0x800117f4
0x000000008000a7f8:  f9450513          addi            a0,a0,-108
0x000000008000a7fc:  892e              mv              s2,a1
0x000000008000a7fe:  d33f60ef          jal             ra,-37582       # 0x80001530

----------------
IN: 
Priv: 3; Virt: 0
0x000000008000a802:  0005069b          sext.w          a3,a0
0x000000008000a806:  fdc40713          addi            a4,s0,-36
0x000000008000a80a:  00007617          auipc           a2,28672        # 0x8001180a
0x000000008000a80e:  f7e60613          addi            a2,a2,-130
0x000000008000a812:  85ca              mv              a1,s2
0x000000008000a814:  8526              mv              a0,s1
0x000000008000a816:  cfbff0ef          jal             ra,-774         # 0x8000a510

----------------
IN: 
Priv: 3; Virt: 0
0x000000008000a81a:  c519              beqz            a0,14           # 0x8000a828

----------------
IN: 
Priv: 3; Virt: 0
0x000000008000a828:  00007517          auipc           a0,28672        # 0x80011828
0x000000008000a82c:  f6850513          addi            a0,a0,-152
0x000000008000a830:  d01f60ef          jal             ra,-37632       # 0x80001530

----------------
IN: 
Priv: 3; Virt: 0
0x000000008000a834:  0005069b          sext.w          a3,a0
0x000000008000a838:  fdc40713          addi            a4,s0,-36
0x000000008000a83c:  00007617          auipc           a2,28672        # 0x8001183c
0x000000008000a840:  f5460613          addi            a2,a2,-172
0x000000008000a844:  85ca              mv              a1,s2
0x000000008000a846:  8526              mv              a0,s1
0x000000008000a848:  cc9ff0ef          jal             ra,-824         # 0x8000a510

----------------
IN: 
Priv: 3; Virt: 0
0x000000008000a84c:  87aa              mv              a5,a0
0x000000008000a84e:  c529              beqz            a0,74           # 0x8000a898

----------------
IN: 
Priv: 3; Virt: 0
0x000000008000a898:  70a2              ld              ra,40(sp)
0x000000008000a89a:  7402              ld              s0,32(sp)
0x000000008000a89c:  64e2              ld              s1,24(sp)
0x000000008000a89e:  6942              ld              s2,16(sp)
0x000000008000a8a0:  4501              mv              a0,zero
0x000000008000a8a2:  6145              addi            sp,sp,48
0x000000008000a8a4:  8082              ret             

----------------
IN: 
Priv: 3; Virt: 0
0x000000008000ad26:  87aa              mv              a5,a0
0x000000008000ad28:  2781              sext.w          a5,a5
0x000000008000ad2a:  85a6              mv              a1,s1
0x000000008000ad2c:  4601              mv              a2,zero
0x000000008000ad2e:  854a              mv              a0,s2
0x000000008000ad30:  01378763          beq             a5,s3,14        # 0x8000ad3e

----------------
IN: 
Priv: 3; Virt: 0
0x000000008000a81c:  fdc42683          lw              a3,-36(s0)
0x000000008000a820:  4711              addi            a4,zero,4
0x000000008000a822:  87aa              mv              a5,a0
0x000000008000a824:  04e68263          beq             a3,a4,68        # 0x8000a868

----------------
IN: 
Priv: 3; Virt: 0
0x000000008000a868:  0007c503          lbu             a0,0(a5)
0x000000008000a86c:  0017c703          lbu             a4,1(a5)
0x000000008000a870:  0037c683          lbu             a3,3(a5)
0x000000008000a874:  0027c783          lbu             a5,2(a5)
0x000000008000a878:  0185151b          slliw           a0,a0,24
0x000000008000a87c:  0107171b          slliw           a4,a4,16
0x000000008000a880:  70a2              ld              ra,40(sp)
0x000000008000a882:  7402              ld              s0,32(sp)
0x000000008000a884:  8d59              or              a0,a0,a4
0x000000008000a886:  8d55              or              a0,a0,a3
0x000000008000a888:  0087979b          slliw           a5,a5,8
0x000000008000a88c:  8d5d              or              a0,a0,a5
0x000000008000a88e:  64e2              ld              s1,24(sp)
0x000000008000a890:  6942              ld              s2,16(sp)
0x000000008000a892:  2501              sext.w          a0,a0
0x000000008000a894:  6145              addi            sp,sp,48
0x000000008000a896:  8082              ret             

----------------
IN: 
Priv: 3; Virt: 0
0x000000008000ad3e:  70a2              ld              ra,40(sp)
0x000000008000ad40:  7402              ld              s0,32(sp)
0x000000008000ad42:  6942              ld              s2,16(sp)
0x000000008000ad44:  69a2              ld              s3,8(sp)
0x000000008000ad46:  8526              mv              a0,s1
0x000000008000ad48:  64e2              ld              s1,24(sp)
0x000000008000ad4a:  6145              addi            sp,sp,48
0x000000008000ad4c:  8082              ret             

----------------
IN: 
Priv: 3; Virt: 0
0x000000008000b278:  85aa              mv              a1,a0
0x000000008000b27a:  8526              mv              a0,s1
0x000000008000b27c:  fa05cde3          bltz            a1,-70          # 0x8000b236

----------------
IN: 
Priv: 3; Virt: 0
0x000000008000b280:  995ff0ef          jal             ra,-1644        # 0x8000ac14

----------------
IN: 
Priv: 3; Virt: 0
0x000000008000b284:  85aa              mv              a1,a0
0x000000008000b286:  f9840613          addi            a2,s0,-104
0x000000008000b28a:  8526              mv              a0,s1
0x000000008000b28c:  250010ef          jal             ra,4688         # 0x8000c4dc

----------------
IN: 
Priv: 3; Virt: 0
0x000000008000b290:  008d5693          srli            a3,s10,8
0x000000008000b294:  0ff6f693          andi            a3,a3,255
0x000000008000b298:  018d179b          slliw           a5,s10,24
0x000000008000b29c:  010d5713          srli            a4,s10,16
0x000000008000b2a0:  0106969b          slliw           a3,a3,16
0x000000008000b2a4:  8fd5              or              a5,a5,a3
0x000000008000b2a6:  018d5d1b          srliw           s10,s10,24
0x000000008000b2aa:  0ff77713          andi            a4,a4,255
0x000000008000b2ae:  01a7e7b3          or              a5,a5,s10
0x000000008000b2b2:  0087171b          slliw           a4,a4,8
0x000000008000b2b6:  8fd9              or              a5,a5,a4
0x000000008000b2b8:  2781              sext.w          a5,a5
0x000000008000b2ba:  fd35              bnez            a0,-132         # 0x8000b236

----------------
IN: 
Priv: 3; Virt: 0
0x000000008000b2bc:  f9842683          lw              a3,-104(s0)
0x000000008000b2c0:  02069613          slli            a2,a3,32
0x000000008000b2c4:  01d65713          srli            a4,a2,29
0x000000008000b2c8:  9752              add             a4,a4,s4
0x000000008000b2ca:  f6dae6e3          bgtu            a3,s5,-148      # 0x8000b236

----------------
IN: 
Priv: 3; Virt: 0
0x000000008000b2ce:  41373023          sd              s3,1024(a4)
0x000000008000b2d2:  f5779de3          bne             a5,s7,-166      # 0x8000b22c

----------------
IN: 
Priv: 3; Virt: 0
0x000000008000b22c:  401cd69b          sraiw           a3,s9,1
0x000000008000b230:  01679363          bne             a5,s6,6         # 0x8000b236

----------------
IN: 
Priv: 3; Virt: 0
0x000000008000b234:  c314              sw              a3,0(a4)
0x000000008000b236:  f9c42783          lw              a5,-100(s0)
0x000000008000b23a:  2c89              addiw           s9,s9,2
0x000000008000b23c:  0c21              addi            s8,s8,8
0x000000008000b23e:  f6fcdde3          ble             a5,s9,-134      # 0x8000b1b8

----------------
IN: 
Priv: 3; Virt: 0
0x000000008000b2d6:  401cd79b          sraiw           a5,s9,1
0x000000008000b2da:  c35c              sw              a5,4(a4)
0x000000008000b2dc:  bfa9              j               -166            # 0x8000b236

----------------
IN: 
Priv: 3; Virt: 0
0x000000008000b236:  f9c42783          lw              a5,-100(s0)
0x000000008000b23a:  2c89              addiw           s9,s9,2
0x000000008000b23c:  0c21              addi            s8,s8,8
0x000000008000b23e:  f6fcdde3          ble             a5,s9,-134      # 0x8000b1b8

----------------
IN: 
Priv: 3; Virt: 0
0x000000008000b1b8:  70a6              ld              ra,104(sp)
0x000000008000b1ba:  7406              ld              s0,96(sp)
0x000000008000b1bc:  64e6              ld              s1,88(sp)
0x000000008000b1be:  69a6              ld              s3,72(sp)
0x000000008000b1c0:  6a06              ld              s4,64(sp)
0x000000008000b1c2:  7ae2              ld              s5,56(sp)
0x000000008000b1c4:  7b42              ld              s6,48(sp)
0x000000008000b1c6:  7ba2              ld              s7,40(sp)
0x000000008000b1c8:  7c02              ld              s8,32(sp)
0x000000008000b1ca:  6ce2              ld              s9,24(sp)
0x000000008000b1cc:  6d42              ld              s10,16(sp)
0x000000008000b1ce:  854a              mv              a0,s2
0x000000008000b1d0:  6946              ld              s2,80(sp)
0x000000008000b1d2:  6165              addi            sp,sp,112
0x000000008000b1d4:  8082              ret             

----------------
IN: 
Priv: 3; Virt: 0
0x000000008000b10c:  ed09              bnez            a0,26           # 0x8000b126

----------------
IN: 
Priv: 3; Virt: 0
0x000000008000b10e:  012a3023          sd              s2,0(s4)
0x000000008000b112:  bfd1              j               -44             # 0x8000b0e6

----------------
IN: 
Priv: 3; Virt: 0
0x000000008000b0e6:  00093603          ld              a2,0(s2)
0x000000008000b0ea:  85a6              mv              a1,s1
0x000000008000b0ec:  fc840693          addi            a3,s0,-56
0x000000008000b0f0:  854e              mv              a0,s3
0x000000008000b0f2:  124010ef          jal             ra,4388         # 0x8000c216

----------------
IN: 
Priv: 3; Virt: 0
0x000000008000b114:  00008797          auipc           a5,32768        # 0x80013114
0x000000008000b118:  fb47b783          ld              a5,-76(a5)
0x000000008000b11c:  4501              mv              a0,zero
0x000000008000b11e:  c781              beqz            a5,8            # 0x8000b126

----------------
IN: 
Priv: 3; Virt: 0
0x000000008000b120:  6b9c              ld              a5,16(a5)
0x000000008000b122:  c391              beqz            a5,4            # 0x8000b126

----------------
IN: 
Priv: 3; Virt: 0
0x000000008000b124:  9782              jalr            ra,a5,0

----------------
IN: 
Priv: 3; Virt: 0
0x000000008000b136:  1141              addi            sp,sp,-16
0x000000008000b138:  e022              sd              s0,0(sp)
0x000000008000b13a:  e406              sd              ra,8(sp)
0x000000008000b13c:  0800              addi            s0,sp,16
0x000000008000b13e:  f1402773          csrrs           a4,mhartid,zero

----------------
IN: 
Priv: 3; Virt: 0
0x000000008000b142:  02071793          slli            a5,a4,32
0x000000008000b146:  01d7d713          srli            a4,a5,29
0x000000008000b14a:  0000a797          auipc           a5,40960        # 0x8001514a
0x000000008000b14e:  a9e78793          addi            a5,a5,-1378
0x000000008000b152:  97ba              add             a5,a5,a4
0x000000008000b154:  43d0              lw              a2,4(a5)
0x000000008000b156:  438c              lw              a1,0(a5)
0x000000008000b158:  4007b503          ld              a0,1024(a5)
0x000000008000b15c:  206000ef          jal             ra,518          # 0x8000b362

----------------
IN: 
Priv: 3; Virt: 0
0x000000008000b362:  1141              addi            sp,sp,-16
0x000000008000b364:  e422              sd              s0,8(sp)
0x000000008000b366:  0800              addi            s0,sp,16
0x000000008000b368:  c961              beqz            a0,208          # 0x8000b438

----------------
IN: 
Priv: 3; Virt: 0
0x000000008000b36a:  00853803          ld              a6,8(a0)
0x000000008000b36e:  00585813          srli            a6,a6,5
0x000000008000b372:  0c05c063          bltz            a1,192          # 0x8000b432

----------------
IN: 
Priv: 3; Virt: 0
0x000000008000b376:  0075989b          slliw           a7,a1,7
0x000000008000b37a:  1882              slli            a7,a7,32
0x000000008000b37c:  00058e9b          sext.w          t4,a1
0x000000008000b380:  0208d893          srli            a7,a7,32
0x000000008000b384:  4701              mv              a4,zero
0x000000008000b386:  6e09              lui             t3,8192
0x000000008000b388:  4301              mv              t1,zero
0x000000008000b38a:  611c              ld              a5,0(a0)
0x000000008000b38c:  97c6              add             a5,a5,a7
0x000000008000b38e:  97f2              add             a5,a5,t3
0x000000008000b390:  0140000f          fence           w,o
0x000000008000b394:  0027169b          slliw           a3,a4,2
0x000000008000b398:  1682              slli            a3,a3,32
0x000000008000b39a:  9281              srli            a3,a3,32
0x000000008000b39c:  97b6              add             a5,a5,a3
0x000000008000b39e:  0067a023          sw              t1,0(a5)
0x000000008000b3a2:  87ba              mv              a5,a4
0x000000008000b3a4:  0705              addi            a4,a4,1
0x000000008000b3a6:  fef812e3          bne             a6,a5,-28       # 0x8000b38a

----------------
IN: 
Priv: 3; Virt: 0
0x000000008000b38a:  611c              ld              a5,0(a0)
0x000000008000b38c:  97c6              add             a5,a5,a7
0x000000008000b38e:  97f2              add             a5,a5,t3
0x000000008000b390:  0140000f          fence           w,o
0x000000008000b394:  0027169b          slliw           a3,a4,2
0x000000008000b398:  1682              slli            a3,a3,32
0x000000008000b39a:  9281              srli            a3,a3,32
0x000000008000b39c:  97b6              add             a5,a5,a3
0x000000008000b39e:  0067a023          sw              t1,0(a5)
0x000000008000b3a2:  87ba              mv              a5,a4
0x000000008000b3a4:  0705              addi            a4,a4,1
0x000000008000b3a6:  fef812e3          bne             a6,a5,-28       # 0x8000b38a

----------------
IN: 
Priv: 3; Virt: 0
0x000000008000b3aa:  04064063          bltz            a2,64           # 0x8000b3ea

----------------
IN: 
Priv: 3; Virt: 0
0x000000008000b3ae:  0076189b          slliw           a7,a2,7
0x000000008000b3b2:  1882              slli            a7,a7,32
0x000000008000b3b4:  0208d893          srli            a7,a7,32
0x000000008000b3b8:  6789              lui             a5,8192
0x000000008000b3ba:  00060e1b          sext.w          t3,a2
0x000000008000b3be:  98be              add             a7,a7,a5
0x000000008000b3c0:  4701              mv              a4,zero
0x000000008000b3c2:  4301              mv              t1,zero
0x000000008000b3c4:  611c              ld              a5,0(a0)
0x000000008000b3c6:  97c6              add             a5,a5,a7
0x000000008000b3c8:  0140000f          fence           w,o
0x000000008000b3cc:  0027169b          slliw           a3,a4,2
0x000000008000b3d0:  1682              slli            a3,a3,32
0x000000008000b3d2:  9281              srli            a3,a3,32
0x000000008000b3d4:  97b6              add             a5,a5,a3
0x000000008000b3d6:  0067a023          sw              t1,0(a5)
0x000000008000b3da:  87ba              mv              a5,a4
0x000000008000b3dc:  0705              addi            a4,a4,1
0x000000008000b3de:  fef813e3          bne             a6,a5,-26       # 0x8000b3c4

----------------
IN: 
Priv: 3; Virt: 0
0x000000008000b3c4:  611c              ld              a5,0(a0)
0x000000008000b3c6:  97c6              add             a5,a5,a7
0x000000008000b3c8:  0140000f          fence           w,o
0x000000008000b3cc:  0027169b          slliw           a3,a4,2
0x000000008000b3d0:  1682              slli            a3,a3,32
0x000000008000b3d2:  9281              srli            a3,a3,32
0x000000008000b3d4:  97b6              add             a5,a5,a3
0x000000008000b3d6:  0067a023          sw              t1,0(a5)
0x000000008000b3da:  87ba              mv              a5,a4
0x000000008000b3dc:  0705              addi            a4,a4,1
0x000000008000b3de:  fef813e3          bne             a6,a5,-26       # 0x8000b3c4

----------------
IN: 
Priv: 3; Virt: 0
0x000000008000b3e2:  00058e9b          sext.w          t4,a1
0x000000008000b3e6:  0205c463          bltz            a1,40           # 0x8000b40e

----------------
IN: 
Priv: 3; Virt: 0
0x000000008000b3ea:  6118              ld              a4,0(a0)
0x000000008000b3ec:  00ce9e9b          slliw           t4,t4,12
0x000000008000b3f0:  002007b7          lui             a5,2097152
0x000000008000b3f4:  1e82              slli            t4,t4,32
0x000000008000b3f6:  97ba              add             a5,a5,a4
0x000000008000b3f8:  020ede93          srli            t4,t4,32
0x000000008000b3fc:  97f6              add             a5,a5,t4
0x000000008000b3fe:  0140000f          fence           w,o
0x000000008000b402:  471d              addi            a4,zero,7
0x000000008000b404:  c398              sw              a4,0(a5)
0x000000008000b406:  00060e1b          sext.w          t3,a2
0x000000008000b40a:  02064063          bltz            a2,32           # 0x8000b42a

----------------
IN: 
Priv: 3; Virt: 0
0x000000008000b40e:  6118              ld              a4,0(a0)
0x000000008000b410:  00ce1e1b          slliw           t3,t3,12
0x000000008000b414:  002007b7          lui             a5,2097152
0x000000008000b418:  1e02              slli            t3,t3,32
0x000000008000b41a:  97ba              add             a5,a5,a4
0x000000008000b41c:  020e5e13          srli            t3,t3,32
0x000000008000b420:  97f2              add             a5,a5,t3
0x000000008000b422:  0140000f          fence           w,o
0x000000008000b426:  471d              addi            a4,zero,7
0x000000008000b428:  c398              sw              a4,0(a5)
0x000000008000b42a:  4501              mv              a0,zero
0x000000008000b42c:  6422              ld              s0,8(sp)
0x000000008000b42e:  0141              addi            sp,sp,16
0x000000008000b430:  8082              ret             

----------------
IN: 
Priv: 3; Virt: 0
0x000000008000b160:  60a2              ld              ra,8(sp)
0x000000008000b162:  6402              ld              s0,0(sp)
0x000000008000b164:  0141              addi            sp,sp,16
0x000000008000b166:  8082              ret             

----------------
IN: 
Priv: 3; Virt: 0
0x000000008000b126:  70e2              ld              ra,56(sp)
0x000000008000b128:  7442              ld              s0,48(sp)
0x000000008000b12a:  74a2              ld              s1,40(sp)
0x000000008000b12c:  7902              ld              s2,32(sp)
0x000000008000b12e:  69e2              ld              s3,24(sp)
0x000000008000b130:  6a42              ld              s4,16(sp)
0x000000008000b132:  6121              addi            sp,sp,64
0x000000008000b134:  8082              ret             

----------------
IN: 
Priv: 3; Virt: 0
0x0000000080000a00:  862a              mv              a2,a0
0x0000000080000a02:  c11d              beqz            a0,38           # 0x80000a28

----------------
IN: 
Priv: 3; Virt: 0
0x0000000080000a28:  4585              addi            a1,zero,1
0x0000000080000a2a:  8526              mv              a0,s1
0x0000000080000a2c:  704000ef          jal             ra,1796         # 0x80001130

----------------
IN: 
Priv: 3; Virt: 0
0x0000000080001130:  1101              addi            sp,sp,-32
0x0000000080001132:  e822              sd              s0,16(sp)
0x0000000080001134:  e426              sd              s1,8(sp)
0x0000000080001136:  e04a              sd              s2,0(sp)
0x0000000080001138:  ec06              sd              ra,24(sp)
0x000000008000113a:  1000              addi            s0,sp,32
0x000000008000113c:  84ae              mv              s1,a1
0x000000008000113e:  892a              mv              s2,a0
0x0000000080001140:  e9a9              bnez            a1,82           # 0x80001192

----------------
IN: 
Priv: 3; Virt: 0
0x0000000080001192:  0000f597          auipc           a1,61440        # 0x80010192
0x0000000080001196:  33e58593          addi            a1,a1,830
0x000000008000119a:  4521              addi            a0,zero,8
0x000000008000119c:  24e000ef          jal             ra,590          # 0x800013ea

----------------
IN: 
Priv: 3; Virt: 0
0x00000000800011a0:  00012797          auipc           a5,73728        # 0x800131a0
0x00000000800011a4:  e8a7b023          sd              a0,-384(a5)
0x00000000800011a8:  882a              mv              a6,a0
0x00000000800011aa:  c141              beqz            a0,128          # 0x8000122a

----------------
IN: 
Priv: 3; Virt: 0
0x00000000800011ac:  00011597          auipc           a1,69632        # 0x800121ac
0x00000000800011b0:  e9458593          addi            a1,a1,-364
0x00000000800011b4:  799c              ld              a5,48(a1)
0x00000000800011b6:  cfad              beqz            a5,122          # 0x80001230

----------------
IN: 
Priv: 3; Virt: 0
0x00000000800011b8:  00012697          auipc           a3,73728        # 0x800131b8
0x00000000800011bc:  f5868693          addi            a3,a3,-168
0x00000000800011c0:  8536              mv              a0,a3
0x00000000800011c2:  87b6              mv              a5,a3
0x00000000800011c4:  4701              mv              a4,zero
0x00000000800011c6:  04000893          addi            a7,zero,64
0x00000000800011ca:  a021              j               8               # 0x800011d2

----------------
IN: 
Priv: 3; Virt: 0
0x00000000800011d2:  6390              ld              a2,0(a5)
0x00000000800011d4:  07a1              addi            a5,a5,8
0x00000000800011d6:  fa7d              bnez            a2,-10          # 0x800011cc

----------------
IN: 
Priv: 3; Virt: 0
0x00000000800011d8:  00371793          slli            a5,a4,3
0x00000000800011dc:  75b0              ld              a2,104(a1)
0x00000000800011de:  97aa              add             a5,a5,a0
0x00000000800011e0:  e38c              sd              a1,0(a5)
0x00000000800011e2:  00011797          auipc           a5,69632        # 0x800121e2
0x00000000800011e6:  e2e7a123          sw              a4,-478(a5)
0x00000000800011ea:  c239              beqz            a2,70           # 0x80001230

----------------
IN: 
Priv: 3; Virt: 0
0x00000000800011ec:  4781              mv              a5,zero
0x00000000800011ee:  04000613          addi            a2,zero,64
0x00000000800011f2:  a021              j               8               # 0x800011fa

----------------
IN: 
Priv: 3; Virt: 0
0x00000000800011fa:  6298              ld              a4,0(a3)
0x00000000800011fc:  06a1              addi            a3,a3,8
0x00000000800011fe:  fb7d              bnez            a4,-10          # 0x800011f4

----------------
IN: 
Priv: 3; Virt: 0
0x00000000800011f4:  2785              addiw           a5,a5,1
0x00000000800011f6:  02c78263          beq             a5,a2,36        # 0x8000121a

----------------
IN: 
Priv: 3; Virt: 0
0x0000000080001200:  00379713          slli            a4,a5,3
0x0000000080001204:  953a              add             a0,a0,a4
0x0000000080001206:  00011717          auipc           a4,69632        # 0x80012206
0x000000008000120a:  e7270713          addi            a4,a4,-398
0x000000008000120e:  e118              sd              a4,0(a0)
0x0000000080001210:  00011717          auipc           a4,69632        # 0x80012210
0x0000000080001214:  def72823          sw              a5,-528(a4)
0x0000000080001218:  bf81              j               -176            # 0x80001168

----------------
IN: 
Priv: 3; Virt: 0
0x0000000080001168:  984a              add             a6,a6,s2
0x000000008000116a:  00083023          sd              zero,0(a6)
0x000000008000116e:  03093783          ld              a5,48(s2)
0x0000000080001172:  c799              beqz            a5,14           # 0x80001180

----------------
IN: 
Priv: 3; Virt: 0
0x0000000080001174:  6fbc              ld              a5,88(a5)
0x0000000080001176:  7fbc              ld              a5,120(a5)
0x0000000080001178:  c781              beqz            a5,8            # 0x80001180

----------------
IN: 
Priv: 3; Virt: 0
0x000000008000117a:  8526              mv              a0,s1
0x000000008000117c:  9782              jalr            ra,a5,0

----------------
IN: 
Priv: 3; Virt: 0
0x000000008000b4e8:  7139              addi            sp,sp,-64
0x000000008000b4ea:  f822              sd              s0,48(sp)
0x000000008000b4ec:  fc06              sd              ra,56(sp)
0x000000008000b4ee:  f426              sd              s1,40(sp)
0x000000008000b4f0:  f04a              sd              s2,32(sp)
0x000000008000b4f2:  ec4e              sd              s3,24(sp)
0x000000008000b4f4:  e852              sd              s4,16(sp)
0x000000008000b4f6:  0080              addi            s0,sp,64
0x000000008000b4f8:  e10d              bnez            a0,34           # 0x8000b51a

----------------
IN: 
Priv: 3; Virt: 0
0x000000008000b51a:  340027f3          csrrs           a5,mscratch,zero

----------------
IN: 
Priv: 3; Virt: 0
0x000000008000b51e:  0107b983          ld              s3,16(a5)
0x000000008000b522:  54fd              addi            s1,zero,-1
0x000000008000b524:  00007917          auipc           s2,28672        # 0x80012524
0x000000008000b528:  ff490913          addi            s2,s2,-12
0x000000008000b52c:  00007a17          auipc           s4,28672        # 0x8001252c
0x000000008000b530:  b0ca0a13          addi            s4,s4,-1268
0x000000008000b534:  00093603          ld              a2,0(s2)
0x000000008000b538:  85a6              mv              a1,s1
0x000000008000b53a:  fc840693          addi            a3,s0,-56
0x000000008000b53e:  854e              mv              a0,s3
0x000000008000b540:  4d7000ef          jal             ra,3286         # 0x8000c216

----------------
IN: 
Priv: 3; Virt: 0
0x000000008000b544:  84aa              mv              s1,a0
0x000000008000b546:  85a6              mv              a1,s1
0x000000008000b548:  854e              mv              a0,s3
0x000000008000b54a:  fa04c8e3          bltz            s1,-80          # 0x8000b4fa

----------------
IN: 
Priv: 3; Virt: 0
0x000000008000b54e:  00893783          ld              a5,8(s2)
0x000000008000b552:  c789              beqz            a5,10           # 0x8000b55c

----------------
IN: 
Priv: 3; Virt: 0
0x000000008000b554:  fc843603          ld              a2,-56(s0)
0x000000008000b558:  9782              jalr            ra,a5,0

----------------
IN: 
Priv: 3; Virt: 0
0x000000008000b562:  00008697          auipc           a3,32768        # 0x80013562
0x000000008000b566:  b7668693          addi            a3,a3,-1162
0x000000008000b56a:  629c              ld              a5,0(a3)
0x000000008000b56c:  473d              addi            a4,zero,15
0x000000008000b56e:  02f76f63          bgtu            a5,a4,62        # 0x8000b5ac

----------------
IN: 
Priv: 3; Virt: 0
0x000000008000b572:  05800713          addi            a4,zero,88
0x000000008000b576:  02e78733          mul             a4,a5,a4
0x000000008000b57a:  1101              addi            sp,sp,-32
0x000000008000b57c:  e822              sd              s0,16(sp)
0x000000008000b57e:  e426              sd              s1,8(sp)
0x000000008000b580:  ec06              sd              ra,24(sp)
0x000000008000b582:  1000              addi            s0,sp,32
0x000000008000b584:  0000a497          auipc           s1,40960        # 0x80015584
0x000000008000b588:  f6448493          addi            s1,s1,-156
0x000000008000b58c:  0785              addi            a5,a5,1
0x000000008000b58e:  e29c              sd              a5,0(a3)
0x000000008000b590:  94ba              add             s1,s1,a4
0x000000008000b592:  4601              mv              a2,zero
0x000000008000b594:  86a6              mv              a3,s1
0x000000008000b596:  568010ef          jal             ra,5480         # 0x8000cafe

----------------
IN: 
Priv: 3; Virt: 0
0x000000008000cafe:  7119              addi            sp,sp,-128
0x000000008000cb00:  f8a2              sd              s0,112(sp)
0x000000008000cb02:  f4a6              sd              s1,104(sp)
0x000000008000cb04:  f0ca              sd              s2,96(sp)
0x000000008000cb06:  ecce              sd              s3,88(sp)
0x000000008000cb08:  fc5e              sd              s7,56(sp)
0x000000008000cb0a:  fc86              sd              ra,120(sp)
0x000000008000cb0c:  e8d2              sd              s4,80(sp)
0x000000008000cb0e:  e4d6              sd              s5,72(sp)
0x000000008000cb10:  e0da              sd              s6,64(sp)
0x000000008000cb12:  f862              sd              s8,48(sp)
0x000000008000cb14:  f466              sd              s9,40(sp)
0x000000008000cb16:  0100              addi            s0,sp,128
0x000000008000cb18:  84aa              mv              s1,a0
0x000000008000cb1a:  892e              mv              s2,a1
0x000000008000cb1c:  89b6              mv              s3,a3
0x000000008000cb1e:  4b8d              addi            s7,zero,3
0x000000008000cb20:  c211              beqz            a2,4            # 0x8000cb24

----------------
IN: 
Priv: 3; Virt: 0
0x000000008000cb24:  18094063          bltz            s2,384          # 0x8000cca4

----------------
IN: 
Priv: 3; Virt: 0
0x000000008000cb28:  16098e63          beqz            s3,380          # 0x8000cca4

----------------
IN: 
Priv: 3; Virt: 0
0x000000008000cb2c:  16048c63          beqz            s1,376          # 0x8000cca4

----------------
IN: 
Priv: 3; Virt: 0
0x000000008000cb30:  f9840693          addi            a3,s0,-104
0x000000008000cb34:  f9040613          addi            a2,s0,-112
0x000000008000cb38:  85ca              mv              a1,s2
0x000000008000cb3a:  8526              mv              a0,s1
0x000000008000cb3c:  f40ff0ef          jal             ra,-2240        # 0x8000c27c

----------------
IN: 
Priv: 3; Virt: 0
0x000000008000cb40:  16054263          bltz            a0,356          # 0x8000cca4

----------------
IN: 
Priv: 3; Virt: 0
0x000000008000cb44:  f9043783          ld              a5,-112(s0)
0x000000008000cb48:  14078e63          beqz            a5,348          # 0x8000cca4

----------------
IN: 
Priv: 3; Virt: 0
0x000000008000cb4c:  f9843703          ld              a4,-104(s0)
0x000000008000cb50:  14070a63          beqz            a4,340          # 0x8000cca4

----------------
IN: 
Priv: 3; Virt: 0
0x000000008000cb54:  00f9b023          sd              a5,0(s3)
0x000000008000cb58:  f8840693          addi            a3,s0,-120
0x000000008000cb5c:  00005617          auipc           a2,20480        # 0x80011b5c
0x000000008000cb60:  c5460613          addi            a2,a2,-940
0x000000008000cb64:  85ca              mv              a1,s2
0x000000008000cb66:  8526              mv              a0,s1
0x000000008000cb68:  c41fd0ef          jal             ra,-9152        # 0x8000a7a8

----------------
IN: 
Priv: 3; Virt: 0
0x000000008000cb6c:  8c2a              mv              s8,a0
0x000000008000cb6e:  12050e63          beqz            a0,316          # 0x8000ccaa

----------------
IN: 
Priv: 3; Virt: 0
0x000000008000cb72:  f8842783          lw              a5,-120(s0)
0x000000008000cb76:  470d              addi            a4,zero,3
0x000000008000cb78:  12f77963          bleu            a5,a4,306       # 0x8000ccaa

----------------
IN: 
Priv: 3; Virt: 0
0x000000008000cb7c:  8789              srai            a5,a5,2
0x000000008000cb7e:  f8f42423          sw              a5,-120(s0)
0x000000008000cb82:  0009a623          sw              zero,12(s3)
0x000000008000cb86:  10f05f63          blez            a5,286          # 0x8000cca4

----------------
IN: 
Priv: 3; Virt: 0
0x000000008000cb8a:  4a01              mv              s4,zero
0x000000008000cb8c:  5afd              addi            s5,zero,-1
0x000000008000cb8e:  4901              mv              s2,zero
0x000000008000cb90:  07f00b13          addi            s6,zero,127
0x000000008000cb94:  000c2783          lw              a5,0(s8)
0x000000008000cb98:  8526              mv              a0,s1
0x000000008000cb9a:  004c2c83          lw              s9,4(s8)
0x000000008000cb9e:  0087d693          srli            a3,a5,8
0x000000008000cba2:  0ff6f693          andi            a3,a3,255
0x000000008000cba6:  0187959b          slliw           a1,a5,24
0x000000008000cbaa:  0106969b          slliw           a3,a3,16
0x000000008000cbae:  0107d713          srli            a4,a5,16
0x000000008000cbb2:  8dd5              or              a1,a1,a3
0x000000008000cbb4:  0187d79b          srliw           a5,a5,24
0x000000008000cbb8:  0ff77713          andi            a4,a4,255
0x000000008000cbbc:  8ddd              or              a1,a1,a5
0x000000008000cbbe:  0087179b          slliw           a5,a4,8
0x000000008000cbc2:  8ddd              or              a1,a1,a5
0x000000008000cbc4:  2581              sext.w          a1,a1
0x000000008000cbc6:  92afe0ef          jal             ra,-7894        # 0x8000acf0

----------------
IN: 
Priv: 3; Virt: 0
0x000000008000cbca:  85aa              mv              a1,a0
0x000000008000cbcc:  2909              addiw           s2,s2,2
0x000000008000cbce:  8526              mv              a0,s1
0x000000008000cbd0:  0405c663          bltz            a1,76           # 0x8000cc1c

----------------
IN: 
Priv: 3; Virt: 0
0x000000008000cbd4:  840fe0ef          jal             ra,-8128        # 0x8000ac14

----------------
IN: 
Priv: 3; Virt: 0
0x000000008000cbd8:  85aa              mv              a1,a0
0x000000008000cbda:  f8c40613          addi            a2,s0,-116
0x000000008000cbde:  8526              mv              a0,s1
0x000000008000cbe0:  8fdff0ef          jal             ra,-1796        # 0x8000c4dc

----------------
IN: 
Priv: 3; Virt: 0
0x000000008000cbe4:  008cd793          srli            a5,s9,8
0x000000008000cbe8:  0ff7f793          andi            a5,a5,255
0x000000008000cbec:  018c969b          slliw           a3,s9,24
0x000000008000cbf0:  010cd713          srli            a4,s9,16
0x000000008000cbf4:  0107979b          slliw           a5,a5,16
0x000000008000cbf8:  8fd5              or              a5,a5,a3
0x000000008000cbfa:  018cdc9b          srliw           s9,s9,24
0x000000008000cbfe:  0ff77713          andi            a4,a4,255
0x000000008000cc02:  0197e7b3          or              a5,a5,s9
0x000000008000cc06:  0087171b          slliw           a4,a4,8
0x000000008000cc0a:  8fd9              or              a5,a5,a4
0x000000008000cc0c:  2781              sext.w          a5,a5
0x000000008000cc0e:  e519              bnez            a0,14           # 0x8000cc1c

----------------
IN: 
Priv: 3; Virt: 0
0x000000008000cc10:  f8c42703          lw              a4,-116(s0)
0x000000008000cc14:  00eb6463          bgtu            a4,s6,8         # 0x8000cc1c

----------------
IN: 
Priv: 3; Virt: 0
0x000000008000cc18:  04fb8363          beq             s7,a5,70        # 0x8000cc5e

----------------
IN: 
Priv: 3; Virt: 0
0x000000008000cc5e:  87ba              mv              a5,a4
0x000000008000cc60:  02eaeb63          bgtu            a4,s5,54        # 0x8000cc96

----------------
IN: 
Priv: 3; Virt: 0
0x000000008000cc64:  86ba              mv              a3,a4
0x000000008000cc66:  00078a9b          sext.w          s5,a5
0x000000008000cc6a:  01476d63          bgtu            s4,a4,26        # 0x8000cc84

----------------
IN: 
Priv: 3; Virt: 0
0x000000008000cc6e:  00c9a783          lw              a5,12(s3)
0x000000008000cc72:  00068a1b          sext.w          s4,a3
0x000000008000cc76:  2785              addiw           a5,a5,1
0x000000008000cc78:  00f9a623          sw              a5,12(s3)
0x000000008000cc7c:  b745              j               -96             # 0x8000cc1c

----------------
IN: 
Priv: 3; Virt: 0
0x000000008000cc1c:  f8842783          lw              a5,-120(s0)
0x000000008000cc20:  0c21              addi            s8,s8,8
0x000000008000cc22:  f6f949e3          bgt             a5,s2,-142      # 0x8000cb94

----------------
IN: 
Priv: 3; Virt: 0
0x000000008000cb94:  000c2783          lw              a5,0(s8)
0x000000008000cb98:  8526              mv              a0,s1
0x000000008000cb9a:  004c2c83          lw              s9,4(s8)
0x000000008000cb9e:  0087d693          srli            a3,a5,8
0x000000008000cba2:  0ff6f693          andi            a3,a3,255
0x000000008000cba6:  0187959b          slliw           a1,a5,24
0x000000008000cbaa:  0106969b          slliw           a3,a3,16
0x000000008000cbae:  0107d713          srli            a4,a5,16
0x000000008000cbb2:  8dd5              or              a1,a1,a3
0x000000008000cbb4:  0187d79b          srliw           a5,a5,24
0x000000008000cbb8:  0ff77713          andi            a4,a4,255
0x000000008000cbbc:  8ddd              or              a1,a1,a5
0x000000008000cbbe:  0087179b          slliw           a5,a4,8
0x000000008000cbc2:  8ddd              or              a1,a1,a5
0x000000008000cbc4:  2581              sext.w          a1,a1
0x000000008000cbc6:  92afe0ef          jal             ra,-7894        # 0x8000acf0

----------------
IN: 
Priv: 3; Virt: 0
0x000000008000cc26:  075a6f63          bgtu            s5,s4,126       # 0x8000cca4

----------------
IN: 
Priv: 3; Virt: 0
0x000000008000cc2a:  00c9a703          lw              a4,12(s3)
0x000000008000cc2e:  2a05              addiw           s4,s4,1
0x000000008000cc30:  415a07bb          subw            a5,s4,s5
0x000000008000cc34:  0159a423          sw              s5,8(s3)
0x000000008000cc38:  04f76363          bgtu            a5,a4,70        # 0x8000cc7e

----------------
IN: 
Priv: 3; Virt: 0
0x000000008000cc3c:  4785              addi            a5,zero,1
0x000000008000cc3e:  00f9a823          sw              a5,16(s3)
0x000000008000cc42:  4501              mv              a0,zero
0x000000008000cc44:  70e6              ld              ra,120(sp)
0x000000008000cc46:  7446              ld              s0,112(sp)
0x000000008000cc48:  74a6              ld              s1,104(sp)
0x000000008000cc4a:  7906              ld              s2,96(sp)
0x000000008000cc4c:  69e6              ld              s3,88(sp)
0x000000008000cc4e:  6a46              ld              s4,80(sp)
0x000000008000cc50:  6aa6              ld              s5,72(sp)
0x000000008000cc52:  6b06              ld              s6,64(sp)
0x000000008000cc54:  7be2              ld              s7,56(sp)
0x000000008000cc56:  7c42              ld              s8,48(sp)
0x000000008000cc58:  7ca2              ld              s9,40(sp)
0x000000008000cc5a:  6109              addi            sp,sp,128
0x000000008000cc5c:  8082              ret             

----------------
IN: 
Priv: 3; Virt: 0
0x000000008000b59a:  e501              bnez            a0,8            # 0x8000b5a2

----------------
IN: 
Priv: 3; Virt: 0
0x000000008000b59c:  8526              mv              a0,s1
0x000000008000b59e:  d7cfd0ef          jal             ra,-10884       # 0x80008b1a

----------------
IN: 
Priv: 3; Virt: 0
0x0000000080008b1a:  1141              addi            sp,sp,-16
0x0000000080008b1c:  e422              sd              s0,8(sp)
0x0000000080008b1e:  0800              addi            s0,sp,16
0x0000000080008b20:  c905              beqz            a0,48           # 0x80008b50

----------------
IN: 
Priv: 3; Virt: 0
0x0000000080008b22:  611c              ld              a5,0(a0)
0x0000000080008b24:  4554              lw              a3,12(a0)
0x0000000080008b26:  ed1c              sd              a5,24(a0)
0x0000000080008b28:  c285              beqz            a3,32           # 0x80008b48

----------------
IN: 
Priv: 3; Virt: 0
0x0000000080008b2a:  451c              lw              a5,8(a0)
0x0000000080008b2c:  0000c617          auipc           a2,49152        # 0x80014b2c
0x0000000080008b30:  8bc60613          addi            a2,a2,-1860
0x0000000080008b34:  9ebd              addw            a3,a3,a5
0x0000000080008b36:  02079593          slli            a1,a5,32
0x0000000080008b3a:  01d5d713          srli            a4,a1,29
0x0000000080008b3e:  9732              add             a4,a4,a2
0x0000000080008b40:  e308              sd              a0,0(a4)
0x0000000080008b42:  2785              addiw           a5,a5,1
0x0000000080008b44:  fed799e3          bne             a5,a3,-14       # 0x80008b36

----------------
IN: 
Priv: 3; Virt: 0
0x0000000080008b48:  4501              mv              a0,zero
0x0000000080008b4a:  6422              ld              s0,8(sp)
0x0000000080008b4c:  0141              addi            sp,sp,16
0x0000000080008b4e:  8082              ret             

----------------
IN: 
Priv: 3; Virt: 0
0x000000008000b5a2:  60e2              ld              ra,24(sp)
0x000000008000b5a4:  6442              ld              s0,16(sp)
0x000000008000b5a6:  64a2              ld              s1,8(sp)
0x000000008000b5a8:  6105              addi            sp,sp,32
0x000000008000b5aa:  8082              ret             

----------------
IN: 
Priv: 3; Virt: 0
0x000000008000b55a:  f945              bnez            a0,-80          # 0x8000b50a

----------------
IN: 
Priv: 3; Virt: 0
0x000000008000b55c:  012a3023          sd              s2,0(s4)
0x000000008000b560:  bfd1              j               -44             # 0x8000b534

----------------
IN: 
Priv: 3; Virt: 0
0x000000008000b534:  00093603          ld              a2,0(s2)
0x000000008000b538:  85a6              mv              a1,s1
0x000000008000b53a:  fc840693          addi            a3,s0,-56
0x000000008000b53e:  854e              mv              a0,s3
0x000000008000b540:  4d7000ef          jal             ra,3286         # 0x8000c216

----------------
IN: 
Priv: 3; Virt: 0
0x000000008000b086:  60a6              ld              ra,72(sp)
0x000000008000b088:  6406              ld              s0,64(sp)
0x000000008000b08a:  74e2              ld              s1,56(sp)
0x000000008000b08c:  7942              ld              s2,48(sp)
0x000000008000b08e:  79a2              ld              s3,40(sp)
0x000000008000b090:  7a02              ld              s4,32(sp)
0x000000008000b092:  6ae2              ld              s5,24(sp)
0x000000008000b094:  6161              addi            sp,sp,80
0x000000008000b096:  8082              ret             

----------------
IN: 
Priv: 3; Virt: 0
0x000000008000b4fa:  00007797          auipc           a5,28672        # 0x800124fa
0x000000008000b4fe:  b3e7b783          ld              a5,-1218(a5)
0x000000008000b502:  6b9c              ld              a5,16(a5)
0x000000008000b504:  4501              mv              a0,zero
0x000000008000b506:  c391              beqz            a5,4            # 0x8000b50a

----------------
IN: 
Priv: 3; Virt: 0
0x000000008000b508:  9782              jalr            ra,a5,0

----------------
IN: 
Priv: 3; Virt: 0
0x0000000080008ad0:  1141              addi            sp,sp,-16
0x0000000080008ad2:  e422              sd              s0,8(sp)
0x0000000080008ad4:  0800              addi            s0,sp,16
0x0000000080008ad6:  f14027f3          csrrs           a5,mhartid,zero

----------------
IN: 
Priv: 3; Virt: 0
0x0000000080008ada:  07f00713          addi            a4,zero,127
0x0000000080008ade:  2781              sext.w          a5,a5
0x0000000080008ae0:  02f76963          bgtu            a5,a4,50        # 0x80008b12

----------------
IN: 
Priv: 3; Virt: 0
0x0000000080008ae4:  02079713          slli            a4,a5,32
0x0000000080008ae8:  01d75693          srli            a3,a4,29
0x0000000080008aec:  0000c717          auipc           a4,49152        # 0x80014aec
0x0000000080008af0:  8fc70713          addi            a4,a4,-1796
0x0000000080008af4:  9736              add             a4,a4,a3
0x0000000080008af6:  6318              ld              a4,0(a4)
0x0000000080008af8:  cf09              beqz            a4,26           # 0x80008b12

----------------
IN: 
Priv: 3; Virt: 0
0x0000000080008afa:  0140000f          fence           w,o
0x0000000080008afe:  4714              lw              a3,8(a4)
0x0000000080008b00:  6f18              ld              a4,24(a4)
0x0000000080008b02:  9f95              subw            a5,a5,a3
0x0000000080008b04:  02079693          slli            a3,a5,32
0x0000000080008b08:  01e6d793          srli            a5,a3,30
0x0000000080008b0c:  97ba              add             a5,a5,a4
0x0000000080008b0e:  4701              mv              a4,zero
0x0000000080008b10:  c398              sw              a4,0(a5)
0x0000000080008b12:  6422              ld              s0,8(sp)
0x0000000080008b14:  4501              mv              a0,zero
0x0000000080008b16:  0141              addi            sp,sp,16
0x0000000080008b18:  8082              ret             

----------------
IN: 
Priv: 3; Virt: 0
0x000000008000b50a:  70e2              ld              ra,56(sp)
0x000000008000b50c:  7442              ld              s0,48(sp)
0x000000008000b50e:  74a2              ld              s1,40(sp)
0x000000008000b510:  7902              ld              s2,32(sp)
0x000000008000b512:  69e2              ld              s3,24(sp)
0x000000008000b514:  6a42              ld              s4,16(sp)
0x000000008000b516:  6121              addi            sp,sp,64
0x000000008000b518:  8082              ret             

----------------
IN: 
Priv: 3; Virt: 0
0x000000008000117e:  e501              bnez            a0,8            # 0x80001186

----------------
IN: 
Priv: 3; Virt: 0
0x0000000080001180:  30446073          csrrsi          zero,mie,8

----------------
IN: 
Priv: 3; Virt: 0
0x0000000080001184:  4501              mv              a0,zero
0x0000000080001186:  60e2              ld              ra,24(sp)
0x0000000080001188:  6442              ld              s0,16(sp)
0x000000008000118a:  64a2              ld              s1,8(sp)
0x000000008000118c:  6902              ld              s2,0(sp)
0x000000008000118e:  6105              addi            sp,sp,32
0x0000000080001190:  8082              ret             

----------------
IN: 
Priv: 3; Virt: 0
0x0000000080000a30:  862a              mv              a2,a0
0x0000000080000a32:  cd09              beqz            a0,26           # 0x80000a4c

----------------
IN: 
Priv: 3; Virt: 0
0x0000000080000a4c:  4585              addi            a1,zero,1
0x0000000080000a4e:  8526              mv              a0,s1
0x0000000080000a50:  458010ef          jal             ra,5208         # 0x80001ea8

----------------
IN: 
Priv: 3; Virt: 0
0x0000000080001ea8:  7139              addi            sp,sp,-64
0x0000000080001eaa:  f822              sd              s0,48(sp)
0x0000000080001eac:  f426              sd              s1,40(sp)
0x0000000080001eae:  fc06              sd              ra,56(sp)
0x0000000080001eb0:  f04a              sd              s2,32(sp)
0x0000000080001eb2:  ec4e              sd              s3,24(sp)
0x0000000080001eb4:  e852              sd              s4,16(sp)
0x0000000080001eb6:  e456              sd              s5,8(sp)
0x0000000080001eb8:  e05a              sd              s6,0(sp)
0x0000000080001eba:  0080              addi            s0,sp,64
0x0000000080001ebc:  03053983          ld              s3,48(a0)
0x0000000080001ec0:  84aa              mv              s1,a0
0x0000000080001ec2:  e1ad              bnez            a1,98           # 0x80001f24

----------------
IN: 
Priv: 3; Virt: 0
0x0000000080001f24:  0000e597          auipc           a1,57344        # 0x8000ff24
0x0000000080001f28:  66458593          addi            a1,a1,1636
0x0000000080001f2c:  4521              addi            a0,zero,8
0x0000000080001f2e:  cbcff0ef          jal             ra,-2884        # 0x800013ea

----------------
IN: 
Priv: 3; Virt: 0
0x0000000080001f32:  00011a17          auipc           s4,69632        # 0x80012f32
0x0000000080001f36:  126a0a13          addi            s4,s4,294
0x0000000080001f3a:  00aa3023          sd              a0,0(s4)
0x0000000080001f3e:  cd51              beqz            a0,156          # 0x80001fda

----------------
IN: 
Priv: 3; Virt: 0
0x0000000080001f40:  0000e597          auipc           a1,57344        # 0x8000ff40
0x0000000080001f44:  65858593          addi            a1,a1,1624
0x0000000080001f48:  4561              addi            a0,zero,24
0x0000000080001f4a:  ca0ff0ef          jal             ra,-2912        # 0x800013ea

----------------
IN: 
Priv: 3; Virt: 0
0x0000000080001f4e:  00011a97          auipc           s5,69632        # 0x80012f4e
0x0000000080001f52:  102a8a93          addi            s5,s5,258
0x0000000080001f56:  00aab023          sd              a0,0(s5)
0x0000000080001f5a:  c551              beqz            a0,140          # 0x80001fe6

----------------
IN: 
Priv: 3; Virt: 0
0x0000000080001f5c:  0000e597          auipc           a1,57344        # 0x8000ff5c
0x0000000080001f60:  64c58593          addi            a1,a1,1612
0x0000000080001f64:  1c000513          addi            a0,zero,448
0x0000000080001f68:  c82ff0ef          jal             ra,-2942        # 0x800013ea

----------------
IN: 
Priv: 3; Virt: 0
0x0000000080001f6c:  00011b17          auipc           s6,69632        # 0x80012f6c
0x0000000080001f70:  0dcb0b13          addi            s6,s6,220
0x0000000080001f74:  00ab3023          sd              a0,0(s6)
0x0000000080001f78:  cd35              beqz            a0,124          # 0x80001ff4

----------------
IN: 
Priv: 3; Virt: 0
0x0000000080001f7a:  00010517          auipc           a0,65536        # 0x80011f7a
0x0000000080001f7e:  13650513          addi            a0,a0,310
0x0000000080001f82:  876ff0ef          jal             ra,-3978        # 0x80000ff8

----------------
IN: 
Priv: 3; Virt: 0
0x0000000080000ff8:  1141              addi            sp,sp,-16
0x0000000080000ffa:  e422              sd              s0,8(sp)
0x0000000080000ffc:  0800              addi            s0,sp,16
0x0000000080000ffe:  cd1d              beqz            a0,62           # 0x8000103c

----------------
IN: 
Priv: 3; Virt: 0
0x0000000080001000:  791c              ld              a5,48(a0)
0x0000000080001002:  862a              mv              a2,a0
0x0000000080001004:  cf85              beqz            a5,56           # 0x8000103c

----------------
IN: 
Priv: 3; Virt: 0
0x0000000080001006:  00012597          auipc           a1,73728        # 0x80013006
0x000000008000100a:  10a58593          addi            a1,a1,266
0x000000008000100e:  87ae              mv              a5,a1
0x0000000080001010:  4501              mv              a0,zero
0x0000000080001012:  04000693          addi            a3,zero,64
0x0000000080001016:  a021              j               8               # 0x8000101e

----------------
IN: 
Priv: 3; Virt: 0
0x000000008000101e:  6398              ld              a4,0(a5)
0x0000000080001020:  07a1              addi            a5,a5,8
0x0000000080001022:  fb7d              bnez            a4,-10          # 0x80001018

----------------
IN: 
Priv: 3; Virt: 0
0x0000000080001018:  2505              addiw           a0,a0,1
0x000000008000101a:  00d50c63          beq             a0,a3,24        # 0x80001032

----------------
IN: 
Priv: 3; Virt: 0
0x0000000080001024:  00351793          slli            a5,a0,3
0x0000000080001028:  95be              add             a1,a1,a5
0x000000008000102a:  e190              sd              a2,0(a1)
0x000000008000102c:  6422              ld              s0,8(sp)
0x000000008000102e:  0141              addi            sp,sp,16
0x0000000080001030:  8082              ret             

----------------
IN: 
Priv: 3; Virt: 0
0x0000000080001f86:  892a              mv              s2,a0
0x0000000080001f88:  02054a63          bltz            a0,52           # 0x80001fbc

----------------
IN: 
Priv: 3; Virt: 0
0x0000000080001f8c:  00010797          auipc           a5,65536        # 0x80011f8c
0x0000000080001f90:  08a7a423          sw              a0,136(a5)
0x0000000080001f94:  04098163          beqz            s3,66           # 0x80001fd6

----------------
IN: 
Priv: 3; Virt: 0
0x0000000080001f98:  0589b783          ld              a5,88(s3)
0x0000000080001f9c:  6705              lui             a4,4096
0x0000000080001f9e:  67dc              ld              a5,136(a5)
0x0000000080001fa0:  c399              beqz            a5,6            # 0x80001fa6

----------------
IN: 
Priv: 3; Virt: 0
0x0000000080001fa2:  9782              jalr            ra,a5,0

----------------
IN: 
Priv: 3; Virt: 0
0x0000000080002698:  00011797          auipc           a5,69632        # 0x80013698
0x000000008000269c:  9d07b783          ld              a5,-1584(a5)
0x00000000800026a0:  c395              beqz            a5,36           # 0x800026c4

----------------
IN: 
Priv: 3; Virt: 0
0x00000000800026c4:  6505              lui             a0,4096
0x00000000800026c6:  8082              ret             

----------------
IN: 
Priv: 3; Virt: 0
0x0000000080001fa4:  872a              mv              a4,a0
0x0000000080001fa6:  000a3783          ld              a5,0(s4)
0x0000000080001faa:  000ab503          ld              a0,0(s5)
0x0000000080001fae:  000b3583          ld              a1,0(s6)
0x0000000080001fb2:  00011697          auipc           a3,69632        # 0x80012fb2
0x0000000080001fb6:  08e6b723          sd              a4,142(a3)
0x0000000080001fba:  bf3d              j               -194            # 0x80001ef8

----------------
IN: 
Priv: 3; Virt: 0
0x0000000080001ef8:  97a6              add             a5,a5,s1
0x0000000080001efa:  0007b023          sd              zero,0(a5)
0x0000000080001efe:  03800693          addi            a3,zero,56
0x0000000080001f02:  4621              addi            a2,zero,8
0x0000000080001f04:  95a6              add             a1,a1,s1
0x0000000080001f06:  9526              add             a0,a0,s1
0x0000000080001f08:  534030ef          jal             ra,13620        # 0x8000543c

----------------
IN: 
Priv: 3; Virt: 0
0x000000008000543c:  8732              mv              a4,a2
0x000000008000543e:  02d60633          mul             a2,a2,a3
0x0000000080005442:  1141              addi            sp,sp,-16
0x0000000080005444:  e022              sd              s0,0(sp)
0x0000000080005446:  e406              sd              ra,8(sp)
0x0000000080005448:  0800              addi            s0,sp,16
0x000000008000544a:  87aa              mv              a5,a0
0x000000008000544c:  e38c              sd              a1,0(a5)
0x000000008000544e:  852e              mv              a0,a1
0x0000000080005450:  00e79923          sh              a4,18(a5)
0x0000000080005454:  00d79823          sh              a3,16(a5)
0x0000000080005458:  0007b423          sd              zero,8(a5)
0x000000008000545c:  0007aa23          sw              zero,20(a5)
0x0000000080005460:  4581              mv              a1,zero
0x0000000080005462:  9f2fc0ef          jal             ra,-15886       # 0x80001654

----------------
IN: 
Priv: 3; Virt: 0
0x0000000080001654:  1141              addi            sp,sp,-16
0x0000000080001656:  e422              sd              s0,8(sp)
0x0000000080001658:  0800              addi            s0,sp,16
0x000000008000165a:  00c50733          add             a4,a0,a2
0x000000008000165e:  ca09              beqz            a2,18           # 0x80001670

----------------
IN: 
Priv: 3; Virt: 0
0x0000000080001660:  0ff5f593          andi            a1,a1,255
0x0000000080001664:  87aa              mv              a5,a0
0x0000000080001666:  0785              addi            a5,a5,1
0x0000000080001668:  feb78fa3          sb              a1,-1(a5)
0x000000008000166c:  fee79de3          bne             a5,a4,-6        # 0x80001666

----------------
IN: 
Priv: 3; Virt: 0
0x0000000080001666:  0785              addi            a5,a5,1
0x0000000080001668:  feb78fa3          sb              a1,-1(a5)
0x000000008000166c:  fee79de3          bne             a5,a4,-6        # 0x80001666

----------------
IN: 
Priv: 3; Virt: 0
0x0000000080001670:  6422              ld              s0,8(sp)
0x0000000080001672:  0141              addi            sp,sp,16
0x0000000080001674:  8082              ret             

----------------
IN: 
Priv: 3; Virt: 0
0x0000000080005466:  60a2              ld              ra,8(sp)
0x0000000080005468:  6402              ld              s0,0(sp)
0x000000008000546a:  0141              addi            sp,sp,16
0x000000008000546c:  8082              ret             

----------------
IN: 
Priv: 3; Virt: 0
0x0000000080001f0c:  4901              mv              s2,zero
0x0000000080001f0e:  70e2              ld              ra,56(sp)
0x0000000080001f10:  7442              ld              s0,48(sp)
0x0000000080001f12:  74a2              ld              s1,40(sp)
0x0000000080001f14:  69e2              ld              s3,24(sp)
0x0000000080001f16:  6a42              ld              s4,16(sp)
0x0000000080001f18:  6aa2              ld              s5,8(sp)
0x0000000080001f1a:  6b02              ld              s6,0(sp)
0x0000000080001f1c:  854a              mv              a0,s2
0x0000000080001f1e:  7902              ld              s2,32(sp)
0x0000000080001f20:  6121              addi            sp,sp,64
0x0000000080001f22:  8082              ret             

----------------
IN: 
Priv: 3; Virt: 0
0x0000000080000a54:  862a              mv              a2,a0
0x0000000080000a56:  cd09              beqz            a0,26           # 0x80000a70

----------------
IN: 
Priv: 3; Virt: 0
0x0000000080000a70:  4585              addi            a1,zero,1
0x0000000080000a72:  8526              mv              a0,s1
0x0000000080000a74:  611000ef          jal             ra,3600         # 0x80001884

----------------
IN: 
Priv: 3; Virt: 0
0x0000000080001884:  7179              addi            sp,sp,-48
0x0000000080001886:  f022              sd              s0,32(sp)
0x0000000080001888:  ec26              sd              s1,24(sp)
0x000000008000188a:  e84a              sd              s2,16(sp)
0x000000008000188c:  f406              sd              ra,40(sp)
0x000000008000188e:  e44e              sd              s3,8(sp)
0x0000000080001890:  1800              addi            s0,sp,48
0x0000000080001892:  03053983          ld              s3,48(a0)
0x0000000080001896:  84aa              mv              s1,a0
0x0000000080001898:  892e              mv              s2,a1
0x000000008000189a:  e1c9              bnez            a1,130          # 0x8000191c

----------------
IN: 
Priv: 3; Virt: 0
0x000000008000191c:  0000f597          auipc           a1,61440        # 0x8001091c
0x0000000080001920:  c3c58593          addi            a1,a1,-964
0x0000000080001924:  4521              addi            a0,zero,8
0x0000000080001926:  ac5ff0ef          jal             ra,-1340        # 0x800013ea

----------------
IN: 
Priv: 3; Virt: 0
0x000000008000192a:  00011717          auipc           a4,69632        # 0x8001292a
0x000000008000192e:  70a73723          sd              a0,1806(a4)
0x0000000080001932:  87aa              mv              a5,a0
0x0000000080001934:  f92d              bnez            a0,-142         # 0x800018a6

----------------
IN: 
Priv: 3; Virt: 0
0x00000000800018a6:  97a6              add             a5,a5,s1
0x00000000800018a8:  0007b023          sd              zero,0(a5)
0x00000000800018ac:  02098063          beqz            s3,32           # 0x800018cc

----------------
IN: 
Priv: 3; Virt: 0
0x00000000800018b0:  0589b783          ld              a5,88(s3)
0x00000000800018b4:  77dc              ld              a5,168(a5)
0x00000000800018b6:  cb99              beqz            a5,22           # 0x800018cc

----------------
IN: 
Priv: 3; Virt: 0
0x00000000800018b8:  854a              mv              a0,s2
0x00000000800018ba:  9782              jalr            ra,a5,0

----------------
IN: 
Priv: 3; Virt: 0
0x0000000080008916:  7139              addi            sp,sp,-64
0x0000000080008918:  f822              sd              s0,48(sp)
0x000000008000891a:  fc06              sd              ra,56(sp)
0x000000008000891c:  f426              sd              s1,40(sp)
0x000000008000891e:  f04a              sd              s2,32(sp)
0x0000000080008920:  ec4e              sd              s3,24(sp)
0x0000000080008922:  e852              sd              s4,16(sp)
0x0000000080008924:  0080              addi            s0,sp,64
0x0000000080008926:  e10d              bnez            a0,34           # 0x80008948

----------------
IN: 
Priv: 3; Virt: 0
0x0000000080008948:  340027f3          csrrs           a5,mscratch,zero

----------------
IN: 
Priv: 3; Virt: 0
0x000000008000894c:  0107b983          ld              s3,16(a5)
0x0000000080008950:  54fd              addi            s1,zero,-1
0x0000000080008952:  0000a917          auipc           s2,40960        # 0x80012952
0x0000000080008956:  a5e90913          addi            s2,s2,-1442
0x000000008000895a:  00009a17          auipc           s4,36864        # 0x8001195a
0x000000008000895e:  6cea0a13          addi            s4,s4,1742
0x0000000080008962:  00093603          ld              a2,0(s2)
0x0000000080008966:  85a6              mv              a1,s1
0x0000000080008968:  fc840693          addi            a3,s0,-56
0x000000008000896c:  854e              mv              a0,s3
0x000000008000896e:  0a9030ef          jal             ra,14504        # 0x8000c216

----------------
IN: 
Priv: 3; Virt: 0
0x0000000080008972:  84aa              mv              s1,a0
0x0000000080008974:  85a6              mv              a1,s1
0x0000000080008976:  854e              mv              a0,s3
0x0000000080008978:  fa04c8e3          bltz            s1,-80          # 0x80008928

----------------
IN: 
Priv: 3; Virt: 0
0x000000008000897c:  00893783          ld              a5,8(s2)
0x0000000080008980:  c789              beqz            a5,10           # 0x8000898a

----------------
IN: 
Priv: 3; Virt: 0
0x0000000080008982:  fc843603          ld              a2,-56(s0)
0x0000000080008986:  9782              jalr            ra,a5,0

----------------
IN: 
Priv: 3; Virt: 0
0x0000000080008990:  0000a717          auipc           a4,40960        # 0x80012990
0x0000000080008994:  70870713          addi            a4,a4,1800
0x0000000080008998:  631c              ld              a5,0(a4)
0x000000008000899a:  46bd              addi            a3,zero,15
0x000000008000899c:  04f6e763          bgtu            a5,a3,78        # 0x800089ea

----------------
IN: 
Priv: 3; Virt: 0
0x00000000800089a0:  1101              addi            sp,sp,-32
0x00000000800089a2:  e426              sd              s1,8(sp)
0x00000000800089a4:  05800493          addi            s1,zero,88
0x00000000800089a8:  029784b3          mul             s1,a5,s1
0x00000000800089ac:  e822              sd              s0,16(sp)
0x00000000800089ae:  e04a              sd              s2,0(sp)
0x00000000800089b0:  ec06              sd              ra,24(sp)
0x00000000800089b2:  1000              addi            s0,sp,32
0x00000000800089b4:  0785              addi            a5,a5,1
0x00000000800089b6:  0000b697          auipc           a3,45056        # 0x800139b6
0x00000000800089ba:  4b268693          addi            a3,a3,1202
0x00000000800089be:  e31c              sd              a5,0(a4)
0x00000000800089c0:  4705              addi            a4,zero,1
0x00000000800089c2:  4901              mv              s2,zero
0x00000000800089c4:  94b6              add             s1,s1,a3
0x00000000800089c6:  00e78363          beq             a5,a4,6         # 0x800089cc

----------------
IN: 
Priv: 3; Virt: 0
0x00000000800089cc:  86a6              mv              a3,s1
0x00000000800089ce:  4605              addi            a2,zero,1
0x00000000800089d0:  12e040ef          jal             ra,16686        # 0x8000cafe

----------------
IN: 
Priv: 3; Virt: 0
0x000000008000cb22:  4b9d              addi            s7,zero,7
0x000000008000cb24:  18094063          bltz            s2,384          # 0x8000cca4

----------------
IN: 
Priv: 3; Virt: 0
0x00000000800089d4:  e509              bnez            a0,10           # 0x800089de

----------------
IN: 
Priv: 3; Virt: 0
0x00000000800089d6:  85ca              mv              a1,s2
0x00000000800089d8:  8526              mv              a0,s1
0x00000000800089da:  2e6000ef          jal             ra,742          # 0x80008cc0

----------------
IN: 
Priv: 3; Virt: 0
0x0000000080008cc0:  1141              addi            sp,sp,-16
0x0000000080008cc2:  e422              sd              s0,8(sp)
0x0000000080008cc4:  0800              addi            s0,sp,16
0x0000000080008cc6:  c93d              beqz            a0,118          # 0x80008d3c

----------------
IN: 
Priv: 3; Virt: 0
0x0000000080008cc8:  6118              ld              a4,0(a0)
0x0000000080008cca:  67b1              lui             a5,49152
0x0000000080008ccc:  17e1              addi            a5,a5,-8
0x0000000080008cce:  97ba              add             a5,a5,a4
0x0000000080008cd0:  6611              lui             a2,16384
0x0000000080008cd2:  fd1c              sd              a5,56(a0)
0x0000000080008cd4:  4914              lw              a3,16(a0)
0x0000000080008cd6:  00000797          auipc           a5,0            # 0x80008cd6
0x0000000080008cda:  d3678793          addi            a5,a5,-714
0x0000000080008cde:  9732              add             a4,a4,a2
0x0000000080008ce0:  e53c              sd              a5,72(a0)
0x0000000080008ce2:  00000797          auipc           a5,0            # 0x80008ce2
0x0000000080008ce6:  d5678793          addi            a5,a5,-682
0x0000000080008cea:  f10c              sd              a1,32(a0)
0x0000000080008cec:  02053423          sd              zero,40(a0)
0x0000000080008cf0:  02053823          sd              zero,48(a0)
0x0000000080008cf4:  e138              sd              a4,64(a0)
0x0000000080008cf6:  e93c              sd              a5,80(a0)
0x0000000080008cf8:  e69d              bnez            a3,46           # 0x80008d26

----------------
IN: 
Priv: 3; Virt: 0
0x0000000080008d26:  00000797          auipc           a5,0            # 0x80008d26
0x0000000080008d2a:  cca78793          addi            a5,a5,-822
0x0000000080008d2e:  e53c              sd              a5,72(a0)
0x0000000080008d30:  00000797          auipc           a5,0            # 0x80008d30
0x0000000080008d34:  cce78793          addi            a5,a5,-818
0x0000000080008d38:  e93c              sd              a5,80(a0)
0x0000000080008d3a:  b7c1              j               -64             # 0x80008cfa

----------------
IN: 
Priv: 3; Virt: 0
0x0000000080008cfa:  4554              lw              a3,12(a0)
0x0000000080008cfc:  c28d              beqz            a3,34           # 0x80008d1e

----------------
IN: 
Priv: 3; Virt: 0
0x0000000080008cfe:  451c              lw              a5,8(a0)
0x0000000080008d00:  0000b617          auipc           a2,45056        # 0x80013d00
0x0000000080008d04:  6e860613          addi            a2,a2,1768
0x0000000080008d08:  9ebd              addw            a3,a3,a5
0x0000000080008d0a:  02079593          slli            a1,a5,32
0x0000000080008d0e:  01d5d713          srli            a4,a1,29
0x0000000080008d12:  9732              add             a4,a4,a2
0x0000000080008d14:  40a73023          sd              a0,1024(a4)
0x0000000080008d18:  2785              addiw           a5,a5,1
0x0000000080008d1a:  fed798e3          bne             a5,a3,-16       # 0x80008d0a

----------------
IN: 
Priv: 3; Virt: 0
0x0000000080008d1e:  4501              mv              a0,zero
0x0000000080008d20:  6422              ld              s0,8(sp)
0x0000000080008d22:  0141              addi            sp,sp,16
0x0000000080008d24:  8082              ret             

----------------
IN: 
Priv: 3; Virt: 0
0x00000000800089de:  60e2              ld              ra,24(sp)
0x00000000800089e0:  6442              ld              s0,16(sp)
0x00000000800089e2:  64a2              ld              s1,8(sp)
0x00000000800089e4:  6902              ld              s2,0(sp)
0x00000000800089e6:  6105              addi            sp,sp,32
0x00000000800089e8:  8082              ret             

----------------
IN: 
Priv: 3; Virt: 0
0x0000000080008988:  f945              bnez            a0,-80          # 0x80008938

----------------
IN: 
Priv: 3; Virt: 0
0x000000008000898a:  012a3023          sd              s2,0(s4)
0x000000008000898e:  bfd1              j               -44             # 0x80008962

----------------
IN: 
Priv: 3; Virt: 0
0x0000000080008962:  00093603          ld              a2,0(s2)
0x0000000080008966:  85a6              mv              a1,s1
0x0000000080008968:  fc840693          addi            a3,s0,-56
0x000000008000896c:  854e              mv              a0,s3
0x000000008000896e:  0a9030ef          jal             ra,14504        # 0x8000c216

----------------
IN: 
Priv: 3; Virt: 0
0x0000000080008928:  00009797          auipc           a5,36864        # 0x80011928
0x000000008000892c:  7007b783          ld              a5,1792(a5)
0x0000000080008930:  6b9c              ld              a5,16(a5)
0x0000000080008932:  4501              mv              a0,zero
0x0000000080008934:  c391              beqz            a5,4            # 0x80008938

----------------
IN: 
Priv: 3; Virt: 0
0x0000000080008936:  9782              jalr            ra,a5,0

----------------
IN: 
Priv: 3; Virt: 0
0x0000000080008c0e:  7179              addi            sp,sp,-48
0x0000000080008c10:  f022              sd              s0,32(sp)
0x0000000080008c12:  f406              sd              ra,40(sp)
0x0000000080008c14:  ec26              sd              s1,24(sp)
0x0000000080008c16:  e84a              sd              s2,16(sp)
0x0000000080008c18:  e44e              sd              s3,8(sp)
0x0000000080008c1a:  e052              sd              s4,0(sp)
0x0000000080008c1c:  1800              addi            s0,sp,48
0x0000000080008c1e:  f14025f3          csrrs           a1,mhartid,zero

----------------
IN: 
Priv: 3; Virt: 0
0x0000000080008c22:  02059793          slli            a5,a1,32
0x0000000080008c26:  01d7d713          srli            a4,a5,29
0x0000000080008c2a:  0000b797          auipc           a5,45056        # 0x80013c2a
0x0000000080008c2e:  7be78793          addi            a5,a5,1982
0x0000000080008c32:  97ba              add             a5,a5,a4
0x0000000080008c34:  4007b903          ld              s2,1024(a5)
0x0000000080008c38:  08090163          beqz            s2,130          # 0x80008cba

----------------
IN: 
Priv: 3; Virt: 0
0x0000000080008c3c:  02093983          ld              s3,32(s2)
0x0000000080008c40:  0005849b          sext.w          s1,a1
0x0000000080008c44:  00098863          beqz            s3,16           # 0x80008c54

----------------
IN: 
Priv: 3; Virt: 0
0x0000000080008c54:  00892683          lw              a3,8(s2)
0x0000000080008c58:  04093703          ld              a4,64(s2)
0x0000000080008c5c:  05093783          ld              a5,80(s2)
0x0000000080008c60:  40d485bb          subw            a1,s1,a3
0x0000000080008c64:  02059693          slli            a3,a1,32
0x0000000080008c68:  01d6d593          srli            a1,a3,29
0x0000000080008c6c:  557d              addi            a0,zero,-1
0x0000000080008c6e:  95ba              add             a1,a1,a4
0x0000000080008c70:  9782              jalr            ra,a5,0

----------------
IN: 
Priv: 3; Virt: 0
0x00000000800089fe:  1141              addi            sp,sp,-16
0x0000000080008a00:  e422              sd              s0,8(sp)
0x0000000080008a02:  0800              addi            s0,sp,16
0x0000000080008a04:  e188              sd              a0,0(a1)
0x0000000080008a06:  6422              ld              s0,8(sp)
0x0000000080008a08:  0141              addi            sp,sp,16
0x0000000080008a0a:  8082              ret             

----------------
IN: 
Priv: 3; Virt: 0
0x0000000080008c72:  4501              mv              a0,zero
0x0000000080008c74:  70a2              ld              ra,40(sp)
0x0000000080008c76:  7402              ld              s0,32(sp)
0x0000000080008c78:  64e2              ld              s1,24(sp)
0x0000000080008c7a:  6942              ld              s2,16(sp)
0x0000000080008c7c:  69a2              ld              s3,8(sp)
0x0000000080008c7e:  6a02              ld              s4,0(sp)
0x0000000080008c80:  6145              addi            sp,sp,48
0x0000000080008c82:  8082              ret             

----------------
IN: 
Priv: 3; Virt: 0
0x0000000080008938:  70e2              ld              ra,56(sp)
0x000000008000893a:  7442              ld              s0,48(sp)
0x000000008000893c:  74a2              ld              s1,40(sp)
0x000000008000893e:  7902              ld              s2,32(sp)
0x0000000080008940:  69e2              ld              s3,24(sp)
0x0000000080008942:  6a42              ld              s4,16(sp)
0x0000000080008944:  6121              addi            sp,sp,64
0x0000000080008946:  8082              ret             

----------------
IN: 
Priv: 3; Virt: 0
0x00000000800018bc:  c901              beqz            a0,16           # 0x800018cc

----------------
IN: 
Priv: 3; Virt: 0
0x00000000800018cc:  4591              addi            a1,zero,4
0x00000000800018ce:  8526              mv              a0,s1
0x00000000800018d0:  7ef030ef          jal             ra,16366        # 0x800058be

----------------
IN: 
Priv: 3; Virt: 0
0x00000000800058be:  1141              addi            sp,sp,-16
0x00000000800058c0:  e422              sd              s0,8(sp)
0x00000000800058c2:  0800              addi            s0,sp,16
0x00000000800058c4:  0000d797          auipc           a5,53248        # 0x800128c4
0x00000000800058c8:  7c47b783          ld              a5,1988(a5)
0x00000000800058cc:  953e              add             a0,a0,a5
0x00000000800058ce:  611c              ld              a5,0(a0)
0x00000000800058d0:  6422              ld              s0,8(sp)
0x00000000800058d2:  00f5f533          and             a0,a1,a5
0x00000000800058d6:  00a03533          snez            a0,a0
0x00000000800058da:  0141              addi            sp,sp,16
0x00000000800058dc:  8082              ret             

----------------
IN: 
Priv: 3; Virt: 0
0x00000000800018d4:  e505              bnez            a0,40           # 0x800018fc

----------------
IN: 
Priv: 3; Virt: 0
0x00000000800018fc:  70a2              ld              ra,40(sp)
0x00000000800018fe:  7402              ld              s0,32(sp)
0x0000000080001900:  00000797          auipc           a5,0            # 0x80001900
0x0000000080001904:  e6c78793          addi            a5,a5,-404
0x0000000080001908:  00011717          auipc           a4,69632        # 0x80012908
0x000000008000190c:  72f73423          sd              a5,1832(a4)
0x0000000080001910:  64e2              ld              s1,24(sp)
0x0000000080001912:  6942              ld              s2,16(sp)
0x0000000080001914:  69a2              ld              s3,8(sp)
0x0000000080001916:  4501              mv              a0,zero
0x0000000080001918:  6145              addi            sp,sp,48
0x000000008000191a:  8082              ret             

----------------
IN: 
Priv: 3; Virt: 0
0x0000000080000a78:  862a              mv              a2,a0
0x0000000080000a7a:  cd09              beqz            a0,26           # 0x80000a94

----------------
IN: 
Priv: 3; Virt: 0
0x0000000080000a94:  2a0040ef          jal             ra,17056        # 0x80004d34

----------------
IN: 
Priv: 3; Virt: 0
0x0000000080004d34:  1141              addi            sp,sp,-16
0x0000000080004d36:  e022              sd              s0,0(sp)
0x0000000080004d38:  e406              sd              ra,8(sp)
0x0000000080004d3a:  0800              addi            s0,sp,16
0x0000000080004d3c:  0000d517          auipc           a0,53248        # 0x80011d3c
0x0000000080004d40:  5dc50513          addi            a0,a0,1500
0x0000000080004d44:  e71ff0ef          jal             ra,-400         # 0x80004bb4

----------------
IN: 
Priv: 3; Virt: 0
0x0000000080004bb4:  1141              addi            sp,sp,-16
0x0000000080004bb6:  e422              sd              s0,8(sp)
0x0000000080004bb8:  0800              addi            s0,sp,16
0x0000000080004bba:  c139              beqz            a0,70           # 0x80004c00

----------------
IN: 
Priv: 3; Virt: 0
0x0000000080004bbc:  85aa              mv              a1,a0
0x0000000080004bbe:  6990              ld              a2,16(a1)
0x0000000080004bc0:  6d08              ld              a0,24(a0)
0x0000000080004bc2:  02c56f63          bgtu            a2,a0,62        # 0x80004c00

----------------
IN: 
Priv: 3; Virt: 0
0x0000000080004bc6:  759c              ld              a5,40(a1)
0x0000000080004bc8:  cf85              beqz            a5,56           # 0x80004c00

----------------
IN: 
Priv: 3; Virt: 0
0x0000000080004bca:  0000d697          auipc           a3,53248        # 0x80011bca
0x0000000080004bce:  61e68693          addi            a3,a3,1566
0x0000000080004bd2:  629c              ld              a5,0(a3)
0x0000000080004bd4:  00d78b63          beq             a5,a3,22        # 0x80004bea

----------------
IN: 
Priv: 3; Virt: 0
0x0000000080004bea:  e18c              sd              a1,0(a1)
0x0000000080004bec:  e58c              sd              a1,8(a1)
0x0000000080004bee:  669c              ld              a5,8(a3)
0x0000000080004bf0:  e194              sd              a3,0(a1)
0x0000000080004bf2:  4501              mv              a0,zero
0x0000000080004bf4:  e59c              sd              a5,8(a1)
0x0000000080004bf6:  e38c              sd              a1,0(a5)
0x0000000080004bf8:  e68c              sd              a1,8(a3)
0x0000000080004bfa:  6422              ld              s0,8(sp)
0x0000000080004bfc:  0141              addi            sp,sp,16
0x0000000080004bfe:  8082              ret             

----------------
IN: 
Priv: 3; Virt: 0
0x0000000080004d48:  c509              beqz            a0,10           # 0x80004d52

----------------
IN: 
Priv: 3; Virt: 0
0x0000000080004d52:  0000d517          auipc           a0,53248        # 0x80011d52
0x0000000080004d56:  59650513          addi            a0,a0,1430
0x0000000080004d5a:  e5bff0ef          jal             ra,-422         # 0x80004bb4

----------------
IN: 
Priv: 3; Virt: 0
0x0000000080004bd8:  6f98              ld              a4,24(a5)
0x0000000080004bda:  00c76563          bgtu            a2,a4,10        # 0x80004be4

----------------
IN: 
Priv: 3; Virt: 0
0x0000000080004bde:  6b98              ld              a4,16(a5)
0x0000000080004be0:  02e57063          bleu            a4,a0,32        # 0x80004c00

----------------
IN: 
Priv: 3; Virt: 0
0x0000000080004be4:  639c              ld              a5,0(a5)
0x0000000080004be6:  fed799e3          bne             a5,a3,-14       # 0x80004bd8

----------------
IN: 
Priv: 3; Virt: 0
0x0000000080004d5e:  f575              bnez            a0,-20          # 0x80004d4a

----------------
IN: 
Priv: 3; Virt: 0
0x0000000080004d60:  0000d517          auipc           a0,53248        # 0x80011d60
0x0000000080004d64:  55850513          addi            a0,a0,1368
0x0000000080004d68:  e4dff0ef          jal             ra,-436         # 0x80004bb4

----------------
IN: 
Priv: 3; Virt: 0
0x0000000080004d6c:  fd79              bnez            a0,-34          # 0x80004d4a

----------------
IN: 
Priv: 3; Virt: 0
0x0000000080004d6e:  0000d517          auipc           a0,53248        # 0x80011d6e
0x0000000080004d72:  48a50513          addi            a0,a0,1162
0x0000000080004d76:  e3fff0ef          jal             ra,-450         # 0x80004bb4

----------------
IN: 
Priv: 3; Virt: 0
0x0000000080004d7a:  f961              bnez            a0,-48          # 0x80004d4a

----------------
IN: 
Priv: 3; Virt: 0
0x0000000080004d7c:  0000d517          auipc           a0,53248        # 0x80011d7c
0x0000000080004d80:  4ac50513          addi            a0,a0,1196
0x0000000080004d84:  e31ff0ef          jal             ra,-464         # 0x80004bb4

----------------
IN: 
Priv: 3; Virt: 0
0x0000000080004d88:  f169              bnez            a0,-62          # 0x80004d4a

----------------
IN: 
Priv: 3; Virt: 0
0x0000000080004d8a:  0000d517          auipc           a0,53248        # 0x80011d8a
0x0000000080004d8e:  4fe50513          addi            a0,a0,1278
0x0000000080004d92:  e23ff0ef          jal             ra,-478         # 0x80004bb4

----------------
IN: 
Priv: 3; Virt: 0
0x0000000080004d96:  f955              bnez            a0,-76          # 0x80004d4a

----------------
IN: 
Priv: 3; Virt: 0
0x0000000080004d98:  0000d517          auipc           a0,53248        # 0x80011d98
0x0000000080004d9c:  4c050513          addi            a0,a0,1216
0x0000000080004da0:  e15ff0ef          jal             ra,-492         # 0x80004bb4

----------------
IN: 
Priv: 3; Virt: 0
0x0000000080004da4:  f15d              bnez            a0,-90          # 0x80004d4a

----------------
IN: 
Priv: 3; Virt: 0
0x0000000080004da6:  0000d517          auipc           a0,53248        # 0x80011da6
0x0000000080004daa:  5a250513          addi            a0,a0,1442
0x0000000080004dae:  e07ff0ef          jal             ra,-506         # 0x80004bb4

----------------
IN: 
Priv: 3; Virt: 0
0x0000000080004db2:  bf61              j               -104            # 0x80004d4a

----------------
IN: 
Priv: 3; Virt: 0
0x0000000080004d4a:  60a2              ld              ra,8(sp)
0x0000000080004d4c:  6402              ld              s0,0(sp)
0x0000000080004d4e:  0141              addi            sp,sp,16
0x0000000080004d50:  8082              ret             

----------------
IN: 
Priv: 3; Virt: 0
0x0000000080000a98:  862a              mv              a2,a0
0x0000000080000a9a:  cd09              beqz            a0,26           # 0x80000ab4

----------------
IN: 
Priv: 3; Virt: 0
0x0000000080000ab4:  68bc              ld              a5,80(s1)
0x0000000080000ab6:  8b85              andi            a5,a5,1
0x0000000080000ab8:  ebc9              bnez            a5,146          # 0x80000b4a

----------------
IN: 
Priv: 3; Virt: 0
0x0000000080000aba:  0304bb03          ld              s6,48(s1)
0x0000000080000abe:  0a0b0863          beqz            s6,176          # 0x80000b6e

----------------
IN: 
Priv: 3; Virt: 0
0x0000000080000ac2:  008b0593          addi            a1,s6,8
0x0000000080000ac6:  0000f517          auipc           a0,61440        # 0x8000fac6
0x0000000080000aca:  74a50513          addi            a0,a0,1866
0x0000000080000ace:  49a030ef          jal             ra,13466        # 0x80003f68

----------------
IN: 
Priv: 3; Virt: 0
0x0000000080003c24:  0009b603          ld              a2,0(s3)
0x0000000080003c28:  2aa1              addiw           s5,s5,8
0x0000000080003c2a:  09a1              addi            s3,s3,8
0x0000000080003c2c:  0e060863          beqz            a2,240          # 0x80003d1c

----------------
IN: 
Priv: 3; Virt: 0
0x0000000080003c30:  8742              mv              a4,a6
0x0000000080003c32:  86be              mv              a3,a5
0x0000000080003c34:  85ea              mv              a1,s10
0x0000000080003c36:  8552              mv              a0,s4
0x0000000080003c38:  c01ff0ef          jal             ra,-1024        # 0x80003838

----------------
IN: 
Priv: 3; Virt: 0
0x0000000080003896:  c8cd              beqz            s1,178          # 0x80003948

----------------
IN: 
Priv: 3; Virt: 0
0x0000000080003c3c:  01950cbb          addw            s9,a0,s9
0x0000000080003c40:  00148e13          addi            t3,s1,1
0x0000000080003c44:  b7bd              j               -146            # 0x80003bb2

----------------
IN: 
Priv: 3; Virt: 0
0x0000000080000ad2:  08000613          addi            a2,zero,128
0x0000000080000ad6:  855a              mv              a0,s6
0x0000000080000ad8:  f2040593          addi            a1,s0,-224
0x0000000080000adc:  782000ef          jal             ra,1922         # 0x8000125e

----------------
IN: 
Priv: 3; Virt: 0
0x000000008000125e:  c171              beqz            a0,196          # 0x80001322

----------------
IN: 
Priv: 3; Virt: 0
0x0000000080001260:  711d              addi            sp,sp,-96
0x0000000080001262:  e8a2              sd              s0,80(sp)
0x0000000080001264:  e4a6              sd              s1,72(sp)
0x0000000080001266:  ec86              sd              ra,88(sp)
0x0000000080001268:  e0ca              sd              s2,64(sp)
0x000000008000126a:  fc4e              sd              s3,56(sp)
0x000000008000126c:  f852              sd              s4,48(sp)
0x000000008000126e:  f456              sd              s5,40(sp)
0x0000000080001270:  f05a              sd              s6,32(sp)
0x0000000080001272:  ec5e              sd              s7,24(sp)
0x0000000080001274:  e862              sd              s8,16(sp)
0x0000000080001276:  e466              sd              s9,8(sp)
0x0000000080001278:  e06a              sd              s10,0(sp)
0x000000008000127a:  1080              addi            s0,sp,96
0x000000008000127c:  84ae              mv              s1,a1
0x000000008000127e:  c199              beqz            a1,6            # 0x80001284

----------------
IN: 
Priv: 3; Virt: 0
0x0000000080001280:  89b2              mv              s3,a2
0x0000000080001282:  ee19              bnez            a2,30           # 0x800012a0

----------------
IN: 
Priv: 3; Virt: 0
0x00000000800012a0:  892a              mv              s2,a0
0x00000000800012a2:  4581              mv              a1,zero
0x00000000800012a4:  8526              mv              a0,s1
0x00000000800012a6:  3ae000ef          jal             ra,942          # 0x80001654

----------------
IN: 
Priv: 3; Virt: 0
0x00000000800012aa:  04893b83          ld              s7,72(s2)
0x00000000800012ae:  060b8163          beqz            s7,98           # 0x80001310

----------------
IN: 
Priv: 3; Virt: 0
0x00000000800012b2:  4a11              addi            s4,zero,4
0x00000000800012b4:  4a81              mv              s5,zero
0x00000000800012b6:  4905              addi            s2,zero,1
0x00000000800012b8:  0000fc17          auipc           s8,61440        # 0x800102b8
0x00000000800012bc:  260c0c13          addi            s8,s8,608
0x00000000800012c0:  00098d1b          sext.w          s10,s3
0x00000000800012c4:  0000fc97          auipc           s9,61440        # 0x800102c4
0x00000000800012c8:  21cc8c93          addi            s9,s9,540
0x00000000800012cc:  fff90793          addi            a5,s2,-1
0x00000000800012d0:  078e              slli            a5,a5,3
0x00000000800012d2:  01797733          and             a4,s2,s7
0x00000000800012d6:  97e2              add             a5,a5,s8
0x00000000800012d8:  3a7d              addiw           s4,s4,-1
0x00000000800012da:  c315              beqz            a4,36           # 0x800012fe

----------------
IN: 
Priv: 3; Virt: 0
0x00000000800012dc:  0007bb03          ld              s6,0(a5)
0x00000000800012e0:  8666              mv              a2,s9
0x00000000800012e2:  85ea              mv              a1,s10
0x00000000800012e4:  86da              mv              a3,s6
0x00000000800012e6:  01548533          add             a0,s1,s5
0x00000000800012ea:  000b0a63          beqz            s6,20           # 0x800012fe

----------------
IN: 
Priv: 3; Virt: 0
0x00000000800012ee:  43d020ef          jal             ra,11324        # 0x80003f2a

----------------
IN: 
Priv: 3; Virt: 0
0x0000000080003f2a:  711d              addi            sp,sp,-96
0x0000000080003f2c:  f022              sd              s0,32(sp)
0x0000000080003f2e:  f406              sd              ra,40(sp)
0x0000000080003f30:  1800              addi            s0,sp,48
0x0000000080003f32:  00840313          addi            t1,s0,8
0x0000000080003f36:  8e2e              mv              t3,a1
0x0000000080003f38:  fca43c23          sd              a0,-40(s0)
0x0000000080003f3c:  e414              sd              a3,8(s0)
0x0000000080003f3e:  fd440593          addi            a1,s0,-44
0x0000000080003f42:  fd840513          addi            a0,s0,-40
0x0000000080003f46:  869a              mv              a3,t1
0x0000000080003f48:  e818              sd              a4,16(s0)
0x0000000080003f4a:  ec1c              sd              a5,24(s0)
0x0000000080003f4c:  03043023          sd              a6,32(s0)
0x0000000080003f50:  03143423          sd              a7,40(s0)
0x0000000080003f54:  fdc42a23          sw              t3,-44(s0)
0x0000000080003f58:  fe643423          sd              t1,-24(s0)
0x0000000080003f5c:  b5bff0ef          jal             ra,-1190        # 0x80003ab6

----------------
IN: 
Priv: 3; Virt: 0
0x0000000080003898:  609c              ld              a5,0(s1)
0x000000008000389a:  c385              beqz            a5,32           # 0x800038ba

----------------
IN: 
Priv: 3; Virt: 0
0x000000008000389c:  0a098963          beqz            s3,178          # 0x8000394e

----------------
IN: 
Priv: 3; Virt: 0
0x00000000800038a0:  0009a703          lw              a4,0(s3)
0x00000000800038a4:  c74d              beqz            a4,170          # 0x8000394e

----------------
IN: 
Priv: 3; Virt: 0
0x00000000800038a6:  00a78023          sb              a0,0(a5)
0x00000000800038aa:  609c              ld              a5,0(s1)
0x00000000800038ac:  0785              addi            a5,a5,1
0x00000000800038ae:  e09c              sd              a5,0(s1)
0x00000000800038b0:  0009a783          lw              a5,0(s3)
0x00000000800038b4:  37fd              addiw           a5,a5,-1
0x00000000800038b6:  00f9a023          sw              a5,0(s3)
0x00000000800038ba:  00194503          lbu             a0,1(s2)
0x00000000800038be:  012a8b3b          addw            s6,s5,s2
0x00000000800038c2:  0905              addi            s2,s2,1
0x00000000800038c4:  f969              bnez            a0,-46          # 0x80003896

----------------
IN: 
Priv: 3; Virt: 0
0x00000000800037f6:  6118              ld              a4,0(a0)
0x00000000800037f8:  87aa              mv              a5,a0
0x00000000800037fa:  cf09              beqz            a4,26           # 0x80003814

----------------
IN: 
Priv: 3; Virt: 0
0x00000000800037fc:  cd89              beqz            a1,26           # 0x80003816

----------------
IN: 
Priv: 3; Virt: 0
0x00000000800037fe:  4194              lw              a3,0(a1)
0x0000000080003800:  ca99              beqz            a3,22           # 0x80003816

----------------
IN: 
Priv: 3; Virt: 0
0x0000000080003802:  00c70023          sb              a2,0(a4)
0x0000000080003806:  6118              ld              a4,0(a0)
0x0000000080003808:  0705              addi            a4,a4,1
0x000000008000380a:  e118              sd              a4,0(a0)
0x000000008000380c:  419c              lw              a5,0(a1)
0x000000008000380e:  37fd              addiw           a5,a5,-1
0x0000000080003810:  c19c              sw              a5,0(a1)
0x0000000080003812:  8082              ret             

----------------
IN: 
Priv: 3; Virt: 0
0x0000000080003bbe:  000a3783          ld              a5,0(s4)
0x0000000080003bc2:  00078023          sb              zero,0(a5)
0x0000000080003bc6:  60ea              ld              ra,152(sp)
0x0000000080003bc8:  644a              ld              s0,144(sp)
0x0000000080003bca:  64aa              ld              s1,136(sp)
0x0000000080003bcc:  690a              ld              s2,128(sp)
0x0000000080003bce:  79e6              ld              s3,120(sp)
0x0000000080003bd0:  7a46              ld              s4,112(sp)
0x0000000080003bd2:  7aa6              ld              s5,104(sp)
0x0000000080003bd4:  7b06              ld              s6,96(sp)
0x0000000080003bd6:  6be6              ld              s7,88(sp)
0x0000000080003bd8:  6c46              ld              s8,80(sp)
0x0000000080003bda:  6d06              ld              s10,64(sp)
0x0000000080003bdc:  7de2              ld              s11,56(sp)
0x0000000080003bde:  8566              mv              a0,s9
0x0000000080003be0:  6ca6              ld              s9,72(sp)
0x0000000080003be2:  610d              addi            sp,sp,160
0x0000000080003be4:  8082              ret             

----------------
IN: 
Priv: 3; Virt: 0
0x0000000080003f60:  70a2              ld              ra,40(sp)
0x0000000080003f62:  7402              ld              s0,32(sp)
0x0000000080003f64:  6125              addi            sp,sp,96
0x0000000080003f66:  8082              ret             

----------------
IN: 
Priv: 3; Virt: 0
0x00000000800012f2:  855a              mv              a0,s6
0x00000000800012f4:  23c000ef          jal             ra,572          # 0x80001530

----------------
IN: 
Priv: 3; Virt: 0
0x00000000800012f8:  2a85              addiw           s5,s5,1
0x00000000800012fa:  00aa8abb          addw            s5,s5,a0
0x00000000800012fe:  0906              slli            s2,s2,1
0x0000000080001300:  fc0a16e3          bnez            s4,-52          # 0x800012cc

----------------
IN: 
Priv: 3; Virt: 0
0x00000000800012cc:  fff90793          addi            a5,s2,-1
0x00000000800012d0:  078e              slli            a5,a5,3
0x00000000800012d2:  01797733          and             a4,s2,s7
0x00000000800012d6:  97e2              add             a5,a5,s8
0x00000000800012d8:  3a7d              addiw           s4,s4,-1
0x00000000800012da:  c315              beqz            a4,36           # 0x800012fe

----------------
IN: 
Priv: 3; Virt: 0
0x00000000800012fe:  0906              slli            s2,s2,1
0x0000000080001300:  fc0a16e3          bnez            s4,-52          # 0x800012cc

----------------
IN: 
Priv: 3; Virt: 0
0x0000000080001304:  000a8663          beqz            s5,12           # 0x80001310

----------------
IN: 
Priv: 3; Virt: 0
0x0000000080001308:  94d6              add             s1,s1,s5
0x000000008000130a:  fe048fa3          sb              zero,-1(s1)
0x000000008000130e:  bf9d              j               -138            # 0x80001284

----------------
IN: 
Priv: 3; Virt: 0
0x0000000080001284:  60e6              ld              ra,88(sp)
0x0000000080001286:  6446              ld              s0,80(sp)
0x0000000080001288:  64a6              ld              s1,72(sp)
0x000000008000128a:  6906              ld              s2,64(sp)
0x000000008000128c:  79e2              ld              s3,56(sp)
0x000000008000128e:  7a42              ld              s4,48(sp)
0x0000000080001290:  7aa2              ld              s5,40(sp)
0x0000000080001292:  7b02              ld              s6,32(sp)
0x0000000080001294:  6be2              ld              s7,24(sp)
0x0000000080001296:  6c42              ld              s8,16(sp)
0x0000000080001298:  6ca2              ld              s9,8(sp)
0x000000008000129a:  6d02              ld              s10,0(sp)
0x000000008000129c:  6125              addi            sp,sp,96
0x000000008000129e:  8082              ret             

----------------
IN: 
Priv: 3; Virt: 0
0x0000000080000ae0:  f2040593          addi            a1,s0,-224
0x0000000080000ae4:  0000f517          auipc           a0,61440        # 0x8000fae4
0x0000000080000ae8:  74c50513          addi            a0,a0,1868
0x0000000080000aec:  47c030ef          jal             ra,13436        # 0x80003f68

----------------
IN: 
Priv: 3; Virt: 0
0x0000000080000af0:  050b2583          lw              a1,80(s6)
0x0000000080000af4:  0000f517          auipc           a0,61440        # 0x8000faf4
0x0000000080000af8:  75c50513          addi            a0,a0,1884
0x0000000080000afc:  46c030ef          jal             ra,13420        # 0x80003f68

----------------
IN: 
Priv: 3; Virt: 0
0x0000000080003cd4:  0009e603          lwu             a2,0(s3)
0x0000000080003cd8:  06100893          addi            a7,zero,97
0x0000000080003cdc:  4701              mv              a4,zero
0x0000000080003cde:  46a9              addi            a3,zero,10
0x0000000080003ce0:  bf8d              j               -142            # 0x80003c52

----------------
IN: 
Priv: 3; Virt: 0
0x0000000080003c52:  85ea              mv              a1,s10
0x0000000080003c54:  8552              mv              a0,s4
0x0000000080003c56:  d3fff0ef          jal             ra,-706         # 0x80003994

----------------
IN: 
Priv: 3; Virt: 0
0x0000000080000b00:  608c              ld              a1,0(s1)
0x0000000080000b02:  0000f517          auipc           a0,61440        # 0x8000fb02
0x0000000080000b06:  76e50513          addi            a0,a0,1902
0x0000000080000b0a:  45e030ef          jal             ra,13406        # 0x80003f68

----------------
IN: 
Priv: 3; Virt: 0
0x0000000080003c68:  0014c703          lbu             a4,1(s1)
0x0000000080003c6c:  06c00693          addi            a3,zero,108
0x0000000080003c70:  10d70e63          beq             a4,a3,284       # 0x80003d8c

----------------
IN: 
Priv: 3; Virt: 0
0x0000000080003c74:  07500693          addi            a3,zero,117
0x0000000080003c78:  0009b603          ld              a2,0(s3)
0x0000000080003c7c:  00148e13          addi            t3,s1,1
0x0000000080003c80:  09a1              addi            s3,s3,8
0x0000000080003c82:  0ad70e63          beq             a4,a3,188       # 0x80003d3e

----------------
IN: 
Priv: 3; Virt: 0
0x0000000080003c86:  07800693          addi            a3,zero,120
0x0000000080003c8a:  2aa1              addiw           s5,s5,8
0x0000000080003c8c:  0ed70b63          beq             a4,a3,246       # 0x80003d82

----------------
IN: 
Priv: 3; Virt: 0
0x0000000080003d82:  f7c43423          sd              t3,-152(s0)
0x0000000080003d86:  06100893          addi            a7,zero,97
0x0000000080003d8a:  b7ed              j               -22             # 0x80003d74

----------------
IN: 
Priv: 3; Virt: 0
0x0000000080003d74:  f7043823          sd              a6,-144(s0)
0x0000000080003d78:  f6f43c23          sd              a5,-136(s0)
0x0000000080003d7c:  4701              mv              a4,zero
0x0000000080003d7e:  46c1              addi            a3,zero,16
0x0000000080003d80:  bfc9              j               -46             # 0x80003d52

----------------
IN: 
Priv: 3; Virt: 0
0x0000000080003d52:  85ea              mv              a1,s10
0x0000000080003d54:  8552              mv              a0,s4
0x0000000080003d56:  c3fff0ef          jal             ra,-962         # 0x80003994

----------------
IN: 
Priv: 3; Virt: 0
0x0000000080003a22:  03c37633          remu            a2,t1,t3
0x0000000080003a26:  8e9a              mv              t4,t1
0x0000000080003a28:  14fd              addi            s1,s1,-1
0x0000000080003a2a:  03c35333          divu            t1,t1,t3
0x0000000080003a2e:  00c87363          bleu            a2,a6,6         # 0x80003a34

----------------
IN: 
Priv: 3; Virt: 0
0x0000000080003d5a:  f6843e03          ld              t3,-152(s0)
0x0000000080003d5e:  f7843783          ld              a5,-136(s0)
0x0000000080003d62:  f7043803          ld              a6,-144(s0)
0x0000000080003d66:  84f2              mv              s1,t3
0x0000000080003d68:  01950cbb          addw            s9,a0,s9
0x0000000080003d6c:  0e05              addi            t3,t3,1
0x0000000080003d6e:  bdb5              j               -388            # 0x80003bea

----------------
IN: 
Priv: 3; Virt: 0
0x0000000080003bea:  0004c683          lbu             a3,0(s1)
0x0000000080003bee:  06300713          addi            a4,zero,99
0x0000000080003bf2:  fce690e3          bne             a3,a4,-64       # 0x80003bb2

----------------
IN: 
Priv: 3; Virt: 0
0x0000000080000b0e:  648c              ld              a1,8(s1)
0x0000000080000b10:  0000f517          auipc           a0,61440        # 0x8000fb10
0x0000000080000b14:  78850513          addi            a0,a0,1928
0x0000000080000b18:  81a9              srli            a1,a1,10
0x0000000080000b1a:  2581              sext.w          a1,a1
0x0000000080000b1c:  44c030ef          jal             ra,13388        # 0x80003f68

----------------
IN: 
Priv: 3; Virt: 0
0x0000000080000b20:  020040ef          jal             ra,16416        # 0x80004b40

----------------
IN: 
Priv: 3; Virt: 0
0x0000000080004b40:  1141              addi            sp,sp,-16
0x0000000080004b42:  e422              sd              s0,8(sp)
0x0000000080004b44:  0800              addi            s0,sp,16
0x0000000080004b46:  6422              ld              s0,8(sp)
0x0000000080004b48:  4501              mv              a0,zero
0x0000000080004b4a:  0141              addi            sp,sp,16
0x0000000080004b4c:  8082              ret             

----------------
IN: 
Priv: 3; Virt: 0
0x0000000080000b24:  8b2a              mv              s6,a0
0x0000000080000b26:  028040ef          jal             ra,16424        # 0x80004b4e

----------------
IN: 
Priv: 3; Virt: 0
0x0000000080004b4e:  1141              addi            sp,sp,-16
0x0000000080004b50:  e422              sd              s0,8(sp)
0x0000000080004b52:  0800              addi            s0,sp,16
0x0000000080004b54:  6422              ld              s0,8(sp)
0x0000000080004b56:  4509              addi            a0,zero,2
0x0000000080004b58:  0141              addi            sp,sp,16
0x0000000080004b5a:  8082              ret             

----------------
IN: 
Priv: 3; Virt: 0
0x0000000080000b2a:  0005061b          sext.w          a2,a0
0x0000000080000b2e:  000b059b          sext.w          a1,s6
0x0000000080000b32:  0000f517          auipc           a0,61440        # 0x8000fb32
0x0000000080000b36:  78e50513          addi            a0,a0,1934
0x0000000080000b3a:  42e030ef          jal             ra,13358        # 0x80003f68

----------------
IN: 
Priv: 3; Virt: 0
0x0000000080000b3e:  0000f517          auipc           a0,61440        # 0x8000fb3e
0x0000000080000b42:  60a50513          addi            a0,a0,1546
0x0000000080000b46:  422030ef          jal             ra,13346        # 0x80003f68

----------------
IN: 
Priv: 3; Virt: 0
0x0000000080000b4a:  85ca              mv              a1,s2
0x0000000080000b4c:  8526              mv              a0,s1
0x0000000080000b4e:  5c7030ef          jal             ra,15814        # 0x80004914

----------------
IN: 
Priv: 3; Virt: 0
0x0000000080004914:  715d              addi            sp,sp,-80
0x0000000080004916:  e0a2              sd              s0,64(sp)
0x0000000080004918:  e85a              sd              s6,16(sp)
0x000000008000491a:  e45e              sd              s7,8(sp)
0x000000008000491c:  e486              sd              ra,72(sp)
0x000000008000491e:  fc26              sd              s1,56(sp)
0x0000000080004920:  f84a              sd              s2,48(sp)
0x0000000080004922:  f44e              sd              s3,40(sp)
0x0000000080004924:  f052              sd              s4,32(sp)
0x0000000080004926:  ec56              sd              s5,24(sp)
0x0000000080004928:  e062              sd              s8,0(sp)
0x000000008000492a:  0880              addi            s0,sp,80
0x000000008000492c:  791c              ld              a5,48(a0)
0x000000008000492e:  8b2a              mv              s6,a0
0x0000000080004930:  8bae              mv              s7,a1
0x0000000080004932:  c39d              beqz            a5,38           # 0x80004958

----------------
IN: 
Priv: 3; Virt: 0
0x0000000080004934:  6fbc              ld              a5,88(a5)
0x0000000080004936:  7f9c              ld              a5,56(a5)
0x0000000080004938:  c385              beqz            a5,32           # 0x80004958

----------------
IN: 
Priv: 3; Virt: 0
0x000000008000493a:  9782              jalr            ra,a5,0

----------------
IN: 
Priv: 3; Virt: 0
0x0000000080002740:  1141              addi            sp,sp,-16
0x0000000080002742:  e022              sd              s0,0(sp)
0x0000000080002744:  e406              sd              ra,8(sp)
0x0000000080002746:  0800              addi            s0,sp,16
0x0000000080002748:  340027f3          csrrs           a5,mscratch,zero

----------------
IN: 
Priv: 3; Virt: 0
0x000000008000274c:  6b88              ld              a0,16(a5)
0x000000008000274e:  19b090ef          jal             ra,39322        # 0x8000c0e8

----------------
IN: 
Priv: 3; Virt: 0
0x000000008000c0e8:  c971              beqz            a0,212          # 0x8000c1bc

----------------
IN: 
Priv: 3; Virt: 0
0x000000008000c0ea:  7139              addi            sp,sp,-64
0x000000008000c0ec:  f822              sd              s0,48(sp)
0x000000008000c0ee:  f04a              sd              s2,32(sp)
0x000000008000c0f0:  fc06              sd              ra,56(sp)
0x000000008000c0f2:  f426              sd              s1,40(sp)
0x000000008000c0f4:  ec4e              sd              s3,24(sp)
0x000000008000c0f6:  0080              addi            s0,sp,64
0x000000008000c0f8:  00004597          auipc           a1,16384        # 0x800100f8
0x000000008000c0fc:  7c058593          addi            a1,a1,1984
0x000000008000c100:  892a              mv              s2,a0
0x000000008000c102:  d94fe0ef          jal             ra,-6764        # 0x8000a696

----------------
IN: 
Priv: 3; Virt: 0
0x000000008000c106:  85aa              mv              a1,a0
0x000000008000c108:  04054a63          bltz            a0,84           # 0x8000c15c

----------------
IN: 
Priv: 3; Virt: 0
0x000000008000c10c:  57fd              addi            a5,zero,-1
0x000000008000c10e:  fcf42223          sw              a5,-60(s0)
0x000000008000c112:  f14029f3          csrrs           s3,mhartid,zero

----------------
IN: 
Priv: 3; Virt: 0
0x000000008000c116:  854a              mv              a0,s2
0x000000008000c118:  a17fd0ef          jal             ra,-9706        # 0x80009b2e

----------------
IN: 
Priv: 3; Virt: 0
0x000000008000c11c:  2981              sext.w          s3,s3
0x000000008000c11e:  84aa              mv              s1,a0
0x000000008000c120:  02054563          bltz            a0,42           # 0x8000c14a

----------------
IN: 
Priv: 3; Virt: 0
0x000000008000c124:  85a6              mv              a1,s1
0x000000008000c126:  fc840613          addi            a2,s0,-56
0x000000008000c12a:  854a              mv              a0,s2
0x000000008000c12c:  3b0000ef          jal             ra,944          # 0x8000c4dc

----------------
IN: 
Priv: 3; Virt: 0
0x000000008000c130:  87aa              mv              a5,a0
0x000000008000c132:  85a6              mv              a1,s1
0x000000008000c134:  854a              mv              a0,s2
0x000000008000c136:  e789              bnez            a5,10           # 0x8000c140

----------------
IN: 
Priv: 3; Virt: 0
0x000000008000c138:  fc842783          lw              a5,-56(s0)
0x000000008000c13c:  03378763          beq             a5,s3,46        # 0x8000c16a

----------------
IN: 
Priv: 3; Virt: 0
0x000000008000c16a:  fcc40693          addi            a3,s0,-52
0x000000008000c16e:  00005617          auipc           a2,20480        # 0x8001116e
0x000000008000c172:  7ca60613          addi            a2,a2,1994
0x000000008000c176:  e32fe0ef          jal             ra,-6606        # 0x8000a7a8

----------------
IN: 
Priv: 3; Virt: 0
0x000000008000c17a:  d961              beqz            a0,-48          # 0x8000c14a

----------------
IN: 
Priv: 3; Virt: 0
0x000000008000c14a:  00000617          auipc           a2,0            # 0x8000c14a
0x000000008000c14e:  90660613          addi            a2,a2,-1786
0x000000008000c152:  fc440593          addi            a1,s0,-60
0x000000008000c156:  854a              mv              a0,s2
0x000000008000c158:  f40ff0ef          jal             ra,-2240        # 0x8000b898

----------------
IN: 
Priv: 3; Virt: 0
0x000000008000b898:  c951              beqz            a0,148          # 0x8000b92c

----------------
IN: 
Priv: 3; Virt: 0
0x000000008000b89a:  7139              addi            sp,sp,-64
0x000000008000b89c:  f822              sd              s0,48(sp)
0x000000008000b89e:  e852              sd              s4,16(sp)
0x000000008000b8a0:  fc06              sd              ra,56(sp)
0x000000008000b8a2:  f426              sd              s1,40(sp)
0x000000008000b8a4:  f04a              sd              s2,32(sp)
0x000000008000b8a6:  ec4e              sd              s3,24(sp)
0x000000008000b8a8:  e456              sd              s5,8(sp)
0x000000008000b8aa:  0080              addi            s0,sp,64
0x000000008000b8ac:  8a32              mv              s4,a2
0x000000008000b8ae:  ce2d              beqz            a2,122          # 0x8000b928

----------------
IN: 
Priv: 3; Virt: 0
0x000000008000b8b0:  89ae              mv              s3,a1
0x000000008000b8b2:  00006597          auipc           a1,24576        # 0x800118b2
0x000000008000b8b6:  d1658593          addi            a1,a1,-746
0x000000008000b8ba:  892a              mv              s2,a0
0x000000008000b8bc:  ddbfe0ef          jal             ra,-4646        # 0x8000a696

----------------
IN: 
Priv: 3; Virt: 0
0x000000008000b8c0:  85aa              mv              a1,a0
0x000000008000b8c2:  04054963          bltz            a0,82           # 0x8000b914

----------------
IN: 
Priv: 3; Virt: 0
0x000000008000b8c6:  00006617          auipc           a2,24576        # 0x800118c6
0x000000008000b8ca:  fb260613          addi            a2,a2,-78
0x000000008000b8ce:  854a              mv              a0,s2
0x000000008000b8d0:  f38ff0ef          jal             ra,-2248        # 0x8000b008

----------------
IN: 
Priv: 3; Virt: 0
0x000000008000b8d4:  85aa              mv              a1,a0
0x000000008000b8d6:  02054f63          bltz            a0,62           # 0x8000b914

----------------
IN: 
Priv: 3; Virt: 0
0x000000008000b914:  4501              mv              a0,zero
0x000000008000b916:  70e2              ld              ra,56(sp)
0x000000008000b918:  7442              ld              s0,48(sp)
0x000000008000b91a:  74a2              ld              s1,40(sp)
0x000000008000b91c:  7902              ld              s2,32(sp)
0x000000008000b91e:  69e2              ld              s3,24(sp)
0x000000008000b920:  6a42              ld              s4,16(sp)
0x000000008000b922:  6aa2              ld              s5,8(sp)
0x000000008000b924:  6121              addi            sp,sp,64
0x000000008000b926:  8082              ret             

----------------
IN: 
Priv: 3; Virt: 0
0x000000008000c15c:  70e2              ld              ra,56(sp)
0x000000008000c15e:  7442              ld              s0,48(sp)
0x000000008000c160:  74a2              ld              s1,40(sp)
0x000000008000c162:  7902              ld              s2,32(sp)
0x000000008000c164:  69e2              ld              s3,24(sp)
0x000000008000c166:  6121              addi            sp,sp,64
0x000000008000c168:  8082              ret             

----------------
IN: 
Priv: 3; Virt: 0
0x0000000080002752:  60a2              ld              ra,8(sp)
0x0000000080002754:  6402              ld              s0,0(sp)
0x0000000080002756:  0141              addi            sp,sp,16
0x0000000080002758:  8082              ret             

----------------
IN: 
Priv: 3; Virt: 0
0x000000008000493c:  8c2a              mv              s8,a0
0x000000008000493e:  cd09              beqz            a0,26           # 0x80004958

----------------
IN: 
Priv: 3; Virt: 0
0x0000000080004958:  0000fa97          auipc           s5,61440        # 0x80013958
0x000000008000495c:  fb8a8a93          addi            s5,s5,-72
0x0000000080004960:  048ab903          ld              s2,72(s5)
0x0000000080004964:  0000f997          auipc           s3,61440        # 0x80013964
0x0000000080004968:  ffc98993          addi            s3,s3,-4
0x000000008000496c:  07f00a13          addi            s4,zero,127
0x0000000080004970:  00091863          bnez            s2,16           # 0x80004980

----------------
IN: 
Priv: 3; Virt: 0
0x0000000080004980:  06892483          lw              s1,104(s2)
0x0000000080004984:  4064d793          srai            a5,s1,6
0x0000000080004988:  078e              slli            a5,a5,3
0x000000008000498a:  03f4f613          andi            a2,s1,63
0x000000008000498e:  fe9a64e3          bgtu            s1,s4,-24       # 0x80004976

----------------
IN: 
Priv: 3; Virt: 0
0x0000000080004992:  05893703          ld              a4,88(s2)
0x0000000080004996:  02049593          slli            a1,s1,32
0x000000008000499a:  01d5d693          srli            a3,a1,29
0x000000008000499e:  973e              add             a4,a4,a5
0x00000000800049a0:  6318              ld              a4,0(a4)
0x00000000800049a2:  96d6              add             a3,a3,s5
0x00000000800049a4:  00c75733          srl             a4,a4,a2
0x00000000800049a8:  8b05              andi            a4,a4,1
0x00000000800049aa:  d771              beqz            a4,-52          # 0x80004976

----------------
IN: 
Priv: 3; Virt: 0
0x00000000800049ac:  1486b703          ld              a4,328(a3)
0x00000000800049b0:  fd2713e3          bne             a4,s2,-58       # 0x80004976

----------------
IN: 
Priv: 3; Virt: 0
0x00000000800049b4:  00890713          addi            a4,s2,8
0x00000000800049b8:  97ba              add             a5,a5,a4
0x00000000800049ba:  639c              ld              a5,0(a5)
0x00000000800049bc:  00c7d7b3          srl             a5,a5,a2
0x00000000800049c0:  8b85              andi            a5,a5,1
0x00000000800049c2:  dbd5              beqz            a5,-76          # 0x80004976

----------------
IN: 
Priv: 3; Virt: 0
0x00000000800049c4:  07893683          ld              a3,120(s2)
0x00000000800049c8:  8626              mv              a2,s1
0x00000000800049ca:  4581              mv              a1,zero
0x00000000800049cc:  855a              mv              a0,s6
0x00000000800049ce:  03749f63          bne             s1,s7,62        # 0x80004a0c

----------------
IN: 
Priv: 3; Virt: 0
0x00000000800049d2:  00db3c23          sd              a3,24(s6)
0x00000000800049d6:  08093783          ld              a5,128(s2)
0x00000000800049da:  09a1              addi            s3,s3,8
0x00000000800049dc:  02fb3023          sd              a5,32(s6)
0x00000000800049e0:  07093783          ld              a5,112(s2)
0x00000000800049e4:  00fb3823          sd              a5,16(s6)
0x00000000800049e8:  ff89b903          ld              s2,-8(s3)
0x00000000800049ec:  f8091ae3          bnez            s2,-108         # 0x80004980

----------------
IN: 
Priv: 3; Virt: 0
0x00000000800049f0:  4c01              mv              s8,zero
0x00000000800049f2:  60a6              ld              ra,72(sp)
0x00000000800049f4:  6406              ld              s0,64(sp)
0x00000000800049f6:  74e2              ld              s1,56(sp)
0x00000000800049f8:  7942              ld              s2,48(sp)
0x00000000800049fa:  79a2              ld              s3,40(sp)
0x00000000800049fc:  7a02              ld              s4,32(sp)
0x00000000800049fe:  6ae2              ld              s5,24(sp)
0x0000000080004a00:  6b42              ld              s6,16(sp)
0x0000000080004a02:  6ba2              ld              s7,8(sp)
0x0000000080004a04:  8562              mv              a0,s8
0x0000000080004a06:  6c02              ld              s8,0(sp)
0x0000000080004a08:  6161              addi            sp,sp,80
0x0000000080004a0a:  8082              ret             

----------------
IN: 
Priv: 3; Virt: 0
0x0000000080000b52:  862a              mv              a2,a0
0x0000000080000b54:  c921              beqz            a0,80           # 0x80000ba4

----------------
IN: 
Priv: 3; Virt: 0
0x0000000080000ba4:  68bc              ld              a5,80(s1)
0x0000000080000ba6:  8b85              andi            a5,a5,1
0x0000000080000ba8:  e799              bnez            a5,14           # 0x80000bb6

----------------
IN: 
Priv: 3; Virt: 0
0x0000000080000baa:  0000f517          auipc           a0,61440        # 0x8000fbaa
0x0000000080000bae:  76650513          addi            a0,a0,1894
0x0000000080000bb2:  0bb030ef          jal             ra,14522        # 0x8000446c

----------------
IN: 
Priv: 3; Virt: 0
0x000000008000446c:  7179              addi            sp,sp,-48
0x000000008000446e:  f022              sd              s0,32(sp)
0x0000000080004470:  e84a              sd              s2,16(sp)
0x0000000080004472:  f406              sd              ra,40(sp)
0x0000000080004474:  ec26              sd              s1,24(sp)
0x0000000080004476:  e44e              sd              s3,8(sp)
0x0000000080004478:  1800              addi            s0,sp,48
0x000000008000447a:  892a              mv              s2,a0
0x000000008000447c:  0000f517          auipc           a0,61440        # 0x8001347c
0x0000000080004480:  4dc53503          ld              a0,1244(a0)
0x0000000080004484:  c11d              beqz            a0,38           # 0x800044aa

----------------
IN: 
Priv: 3; Virt: 0
0x0000000080004486:  0000f497          auipc           s1,61440        # 0x80013486
0x000000008000448a:  4da48493          addi            s1,s1,1242
0x000000008000448e:  0000c997          auipc           s3,49152        # 0x8001048e
0x0000000080004492:  cba98993          addi            s3,s3,-838
0x0000000080004496:  85ca              mv              a1,s2
0x0000000080004498:  cefff0ef          jal             ra,-786         # 0x80004186

----------------
IN: 
Priv: 3; Virt: 0
0x0000000080004186:  711d              addi            sp,sp,-96
0x0000000080004188:  ec86              sd              ra,88(sp)
0x000000008000418a:  e8a2              sd              s0,80(sp)
0x000000008000418c:  e4a6              sd              s1,72(sp)
0x000000008000418e:  1080              addi            s0,sp,96
0x0000000080004190:  e0ca              sd              s2,64(sp)
0x0000000080004192:  fc4e              sd              s3,56(sp)
0x0000000080004194:  f852              sd              s4,48(sp)
0x0000000080004196:  f456              sd              s5,40(sp)
0x0000000080004198:  f05a              sd              s6,32(sp)
0x000000008000419a:  ec5e              sd              s7,24(sp)
0x000000008000419c:  e862              sd              s8,16(sp)
0x000000008000419e:  e466              sd              s9,8(sp)
0x00000000800041a0:  e06a              sd              s10,0(sp)
0x00000000800041a2:  89ae              mv              s3,a1
0x00000000800041a4:  410c              lw              a1,0(a0)
0x00000000800041a6:  892a              mv              s2,a0
0x00000000800041a8:  01850693          addi            a3,a0,24
0x00000000800041ac:  864e              mv              a2,s3
0x00000000800041ae:  0000d517          auipc           a0,53248        # 0x800111ae
0x00000000800041b2:  c7250513          addi            a0,a0,-910
0x00000000800041b6:  db3ff0ef          jal             ra,-590         # 0x80003f68

----------------
IN: 
Priv: 3; Virt: 0
0x00000000800041ba:  06892683          lw              a3,104(s2)
0x00000000800041be:  00092583          lw              a1,0(s2)
0x00000000800041c2:  864e              mv              a2,s3
0x00000000800041c4:  0000d517          auipc           a0,53248        # 0x800111c4
0x00000000800041c8:  c7c50513          addi            a0,a0,-900
0x00000000800041cc:  d9dff0ef          jal             ra,-612         # 0x80003f68

----------------
IN: 
Priv: 3; Virt: 0
0x00000000800041d0:  00092583          lw              a1,0(s2)
0x00000000800041d4:  864e              mv              a2,s3
0x00000000800041d6:  0000d517          auipc           a0,53248        # 0x800111d6
0x00000000800041da:  c8a50513          addi            a0,a0,-886
0x00000000800041de:  d8bff0ef          jal             ra,-630         # 0x80003f68

----------------
IN: 
Priv: 3; Virt: 0
0x00000000800041e2:  05893503          ld              a0,88(s2)
0x00000000800041e6:  08000593          addi            a1,zero,128
0x00000000800041ea:  9feff0ef          jal             ra,-3586        # 0x800033e8

----------------
IN: 
Priv: 3; Virt: 0
0x00000000800041ee:  0005049b          sext.w          s1,a0
0x00000000800041f2:  07f00793          addi            a5,zero,127
0x00000000800041f6:  0697ed63          bgtu            s1,a5,122       # 0x80004270

----------------
IN: 
Priv: 3; Virt: 0
0x00000000800041fa:  0000c597          auipc           a1,49152        # 0x800101fa
0x00000000800041fe:  e2658593          addi            a1,a1,-474
0x0000000080004202:  00890a13          addi            s4,s2,8
0x0000000080004206:  4d05              addi            s10,zero,1
0x0000000080004208:  0000db97          auipc           s7,53248        # 0x80011208
0x000000008000420c:  bf0b8b93          addi            s7,s7,-1040
0x0000000080004210:  8cae              mv              s9,a1
0x0000000080004212:  0000db17          auipc           s6,53248        # 0x80011212
0x0000000080004216:  c6eb0b13          addi            s6,s6,-914
0x000000008000421a:  07f00a93          addi            s5,zero,127
0x000000008000421e:  0000dc17          auipc           s8,53248        # 0x8001121e
0x0000000080004222:  bd2c0c13          addi            s8,s8,-1070
0x0000000080004226:  4064d793          srai            a5,s1,6
0x000000008000422a:  078e              slli            a5,a5,3
0x000000008000422c:  97d2              add             a5,a5,s4
0x000000008000422e:  639c              ld              a5,0(a5)
0x0000000080004230:  8626              mv              a2,s1
0x0000000080004232:  855a              mv              a0,s6
0x0000000080004234:  0097d7b3          srl             a5,a5,s1
0x0000000080004238:  8b85              andi            a5,a5,1
0x000000008000423a:  86de              mv              a3,s7
0x000000008000423c:  e391              bnez            a5,4            # 0x80004240

----------------
IN: 
Priv: 3; Virt: 0
0x0000000080004240:  d29ff0ef          jal             ra,-728         # 0x80003f68

----------------
IN: 
Priv: 3; Virt: 0
0x0000000080004244:  0014861b          addiw           a2,s1,1
0x0000000080004248:  05893503          ld              a0,88(s2)
0x000000008000424c:  1602              slli            a2,a2,32
0x000000008000424e:  9201              srli            a2,a2,32
0x0000000080004250:  08000593          addi            a1,zero,128
0x0000000080004254:  b4eff0ef          jal             ra,-3250        # 0x800035a2

----------------
IN: 
Priv: 3; Virt: 0
0x0000000080004258:  0005049b          sext.w          s1,a0
0x000000008000425c:  009aea63          bgtu            s1,s5,20        # 0x80004270

----------------
IN: 
Priv: 3; Virt: 0
0x0000000080004270:  0000c517          auipc           a0,49152        # 0x80010270
0x0000000080004274:  ed850513          addi            a0,a0,-296
0x0000000080004278:  cf1ff0ef          jal             ra,-784         # 0x80003f68

----------------
IN: 
Priv: 3; Virt: 0
0x000000008000427c:  06093483          ld              s1,96(s2)
0x0000000080004280:  4a01              mv              s4,zero
0x0000000080004282:  6094              ld              a3,0(s1)
0x0000000080004284:  cac1              beqz            a3,144          # 0x80004314

----------------
IN: 
Priv: 3; Virt: 0
0x0000000080004286:  4c85              addi            s9,zero,1
0x0000000080004288:  03f00b13          addi            s6,zero,63
0x000000008000428c:  0000da97          auipc           s5,53248        # 0x8001128c
0x0000000080004290:  c6ca8a93          addi            s5,s5,-916
0x0000000080004294:  0000dc17          auipc           s8,53248        # 0x80011294
0x0000000080004298:  b6cc0c13          addi            s8,s8,-1172
0x000000008000429c:  01fc9b93          slli            s7,s9,31
0x00000000800042a0:  0000dd17          auipc           s10,53248       # 0x800112a0
0x00000000800042a4:  b68d0d13          addi            s10,s10,-1176
0x00000000800042a8:  6498              ld              a4,8(s1)
0x00000000800042aa:  57fd              addi            a5,zero,-1
0x00000000800042ac:  00db6763          bgtu            a3,s6,14        # 0x800042ba

----------------
IN: 
Priv: 3; Virt: 0
0x00000000800042b0:  00dc96b3          sll             a3,s9,a3
0x00000000800042b4:  fff70793          addi            a5,a4,-1
0x00000000800042b8:  97b6              add             a5,a5,a3
0x00000000800042ba:  00092583          lw              a1,0(s2)
0x00000000800042be:  86ce              mv              a3,s3
0x00000000800042c0:  8652              mv              a2,s4
0x00000000800042c2:  8556              mv              a0,s5
0x00000000800042c4:  ca5ff0ef          jal             ra,-860         # 0x80003f68

----------------
IN: 
Priv: 3; Virt: 0
0x0000000080003b20:  0014c603          lbu             a2,1(s1)
0x0000000080003b24:  00286813          ori             a6,a6,2
0x0000000080003b28:  0485              addi            s1,s1,1
0x0000000080003b2a:  ffb60be3          beq             a2,s11,-10      # 0x80003b20

----------------
IN: 
Priv: 3; Virt: 0
0x0000000080003b3c:  4781              mv              a5,zero
0x0000000080003b3e:  45a5              addi            a1,zero,9
0x0000000080003b40:  0014c603          lbu             a2,1(s1)
0x0000000080003b44:  0027971b          slliw           a4,a5,2
0x0000000080003b48:  9f3d              addw            a4,a4,a5
0x0000000080003b4a:  0017171b          slliw           a4,a4,1
0x0000000080003b4e:  00e687bb          addw            a5,a3,a4
0x0000000080003b52:  fd06069b          addiw           a3,a2,-48
0x0000000080003b56:  0ff6f713          andi            a4,a3,255
0x0000000080003b5a:  0485              addi            s1,s1,1
0x0000000080003b5c:  fee5f2e3          bleu            a4,a1,-28       # 0x80003b40

----------------
IN: 
Priv: 3; Virt: 0
0x000000008000385e:  12050763          beqz            a0,302          # 0x8000398c

----------------
IN: 
Priv: 3; Virt: 0
0x0000000080003862:  87b2              mv              a5,a2
0x0000000080003864:  4605              addi            a2,zero,1
0x0000000080003866:  4126063b          subw            a2,a2,s2
0x000000008000386a:  0017c683          lbu             a3,1(a5)
0x000000008000386e:  00f60b3b          addw            s6,a2,a5
0x0000000080003872:  0785              addi            a5,a5,1
0x0000000080003874:  fafd              bnez            a3,-10          # 0x8000386a

----------------
IN: 
Priv: 3; Virt: 0
0x0000000080003876:  094b4e63          bgt             s4,s6,156       # 0x80003912

----------------
IN: 
Priv: 3; Virt: 0
0x0000000080003912:  416a0b3b          subw            s6,s4,s6
0x0000000080003916:  00277793          andi            a5,a4,2
0x000000008000391a:  02000b93          addi            s7,zero,32
0x000000008000391e:  efa1              bnez            a5,88           # 0x80003976

----------------
IN: 
Priv: 3; Virt: 0
0x0000000080003976:  03000b93          addi            s7,zero,48
0x000000008000397a:  b75d              j               -90             # 0x80003920

----------------
IN: 
Priv: 3; Virt: 0
0x0000000080003920:  8b05              andi            a4,a4,1
0x0000000080003922:  8a5a              mv              s4,s6
0x0000000080003924:  e32d              bnez            a4,98           # 0x80003986

----------------
IN: 
Priv: 3; Virt: 0
0x0000000080003926:  07605563          blez            s6,106          # 0x80003990

----------------
IN: 
Priv: 3; Virt: 0
0x000000008000392a:  3a7d              addiw           s4,s4,-1
0x000000008000392c:  865e              mv              a2,s7
0x000000008000392e:  85ce              mv              a1,s3
0x0000000080003930:  8526              mv              a0,s1
0x0000000080003932:  ec3ff0ef          jal             ra,-318         # 0x800037f4

----------------
IN: 
Priv: 3; Virt: 0
0x0000000080003936:  fe0a1ae3          bnez            s4,-12          # 0x8000392a

----------------
IN: 
Priv: 3; Virt: 0
0x000000008000393a:  00094503          lbu             a0,0(s2)
0x000000008000393e:  dd55              beqz            a0,-68          # 0x800038fa

----------------
IN: 
Priv: 3; Virt: 0
0x0000000080003b40:  0014c603          lbu             a2,1(s1)
0x0000000080003b44:  0027971b          slliw           a4,a5,2
0x0000000080003b48:  9f3d              addw            a4,a4,a5
0x0000000080003b4a:  0017171b          slliw           a4,a4,1
0x0000000080003b4e:  00e687bb          addw            a5,a3,a4
0x0000000080003b52:  fd06069b          addiw           a3,a2,-48
0x0000000080003b56:  0ff6f713          andi            a4,a3,255
0x0000000080003b5a:  0485              addi            s1,s1,1
0x0000000080003b5c:  fee5f2e3          bleu            a4,a1,-28       # 0x80003b40

----------------
IN: 
Priv: 3; Virt: 0
0x000000008000386a:  0017c683          lbu             a3,1(a5)
0x000000008000386e:  00f60b3b          addw            s6,a2,a5
0x0000000080003872:  0785              addi            a5,a5,1
0x0000000080003874:  fafd              bnez            a3,-10          # 0x8000386a

----------------
IN: 
Priv: 3; Virt: 0
0x0000000080003a32:  967a              add             a2,a2,t5
0x0000000080003a34:  0306061b          addiw           a2,a2,48
0x0000000080003a38:  00c48023          sb              a2,0(s1)
0x0000000080003a3c:  ffcef3e3          bleu            t3,t4,-26       # 0x80003a22

----------------
IN: 
Priv: 3; Virt: 0
0x00000000800042c8:  689c              ld              a5,16(s1)
0x00000000800042ca:  0087f713          andi            a4,a5,8
0x00000000800042ce:  12071863          bnez            a4,304          # 0x800043fe

----------------
IN: 
Priv: 3; Virt: 0
0x00000000800042d2:  0177f733          and             a4,a5,s7
0x00000000800042d6:  cf79              beqz            a4,222          # 0x800043b4

----------------
IN: 
Priv: 3; Virt: 0
0x00000000800043b4:  0017f713          andi            a4,a5,1
0x00000000800043b8:  02800593          addi            a1,zero,40
0x00000000800043bc:  c73d              beqz            a4,110          # 0x8000442a

----------------
IN: 
Priv: 3; Virt: 0
0x000000008000442a:  0027f713          andi            a4,a5,2
0x000000008000442e:  c701              beqz            a4,8            # 0x80004436

----------------
IN: 
Priv: 3; Virt: 0
0x0000000080004436:  8b91              andi            a5,a5,4
0x0000000080004438:  02800593          addi            a1,zero,40
0x000000008000443c:  fbcd              bnez            a5,-78          # 0x800043ee

----------------
IN: 
Priv: 3; Virt: 0
0x000000008000443e:  85ea              mv              a1,s10
0x0000000080004440:  b5c1              j               -320            # 0x80004300

----------------
IN: 
Priv: 3; Virt: 0
0x0000000080004300:  0000d517          auipc           a0,53248        # 0x80011300
0x0000000080004304:  ca850513          addi            a0,a0,-856
0x0000000080004308:  04e1              addi            s1,s1,24
0x000000008000430a:  c5fff0ef          jal             ra,-930         # 0x80003f68

----------------
IN: 
Priv: 3; Virt: 0
0x000000008000430e:  6094              ld              a3,0(s1)
0x0000000080004310:  2a05              addiw           s4,s4,1
0x0000000080004312:  fad9              bnez            a3,-106         # 0x800042a8

----------------
IN: 
Priv: 3; Virt: 0
0x00000000800042a8:  6498              ld              a4,8(s1)
0x00000000800042aa:  57fd              addi            a5,zero,-1
0x00000000800042ac:  00db6763          bgtu            a3,s6,14        # 0x800042ba

----------------
IN: 
Priv: 3; Virt: 0
0x00000000800042ba:  00092583          lw              a1,0(s2)
0x00000000800042be:  86ce              mv              a3,s3
0x00000000800042c0:  8652              mv              a2,s4
0x00000000800042c2:  8556              mv              a0,s5
0x00000000800042c4:  ca5ff0ef          jal             ra,-860         # 0x80003f68

----------------
IN: 
Priv: 3; Virt: 0
0x000000008000387a:  00277a13          andi            s4,a4,2
0x000000008000387e:  0e0a1f63          bnez            s4,254          # 0x8000397c

----------------
IN: 
Priv: 3; Virt: 0
0x000000008000397c:  03000b93          addi            s7,zero,48
0x0000000080003980:  4b01              mv              s6,zero
0x0000000080003982:  4a01              mv              s4,zero
0x0000000080003984:  bf75              j               -68             # 0x80003940

----------------
IN: 
Priv: 3; Virt: 0
0x00000000800043be:  0000d517          auipc           a0,53248        # 0x800113be
0x00000000800043c2:  b7a50513          addi            a0,a0,-1158
0x00000000800043c6:  ba3ff0ef          jal             ra,-1118        # 0x80003f68

----------------
IN: 
Priv: 3; Virt: 0
0x0000000080003be6:  00148e13          addi            t3,s1,1
0x0000000080003bea:  0004c683          lbu             a3,0(s1)
0x0000000080003bee:  06300713          addi            a4,zero,99
0x0000000080003bf2:  fce690e3          bne             a3,a4,-64       # 0x80003bb2

----------------
IN: 
Priv: 3; Virt: 0
0x0000000080003bf6:  0009a883          lw              a7,0(s3)
0x0000000080003bfa:  8742              mv              a4,a6
0x0000000080003bfc:  86be              mv              a3,a5
0x0000000080003bfe:  f8840613          addi            a2,s0,-120
0x0000000080003c02:  85ea              mv              a1,s10
0x0000000080003c04:  8552              mv              a0,s4
0x0000000080003c06:  f7c43c23          sd              t3,-136(s0)
0x0000000080003c0a:  f9140423          sb              a7,-120(s0)
0x0000000080003c0e:  f80404a3          sb              zero,-119(s0)
0x0000000080003c12:  c27ff0ef          jal             ra,-986         # 0x80003838

----------------
IN: 
Priv: 3; Virt: 0
0x0000000080003c16:  f7843e03          ld              t3,-136(s0)
0x0000000080003c1a:  09a1              addi            s3,s3,8
0x0000000080003c1c:  00ac8cbb          addw            s9,s9,a0
0x0000000080003c20:  2a91              addiw           s5,s5,4
0x0000000080003c22:  bf41              j               -112            # 0x80003bb2

----------------
IN: 
Priv: 3; Virt: 0
0x00000000800043ca:  689c              ld              a5,16(s1)
0x00000000800043cc:  0027f713          andi            a4,a5,2
0x00000000800043d0:  cb11              beqz            a4,20           # 0x800043e4

----------------
IN: 
Priv: 3; Virt: 0
0x00000000800043d2:  02c00593          addi            a1,zero,44
0x00000000800043d6:  0000d517          auipc           a0,53248        # 0x800113d6
0x00000000800043da:  b6a50513          addi            a0,a0,-1174
0x00000000800043de:  b8bff0ef          jal             ra,-1142        # 0x80003f68

----------------
IN: 
Priv: 3; Virt: 0
0x00000000800043e2:  689c              ld              a5,16(s1)
0x00000000800043e4:  8b91              andi            a5,a5,4
0x00000000800043e6:  f0078ce3          beqz            a5,-232         # 0x800042fe

----------------
IN: 
Priv: 3; Virt: 0
0x00000000800043ea:  02c00593          addi            a1,zero,44
0x00000000800043ee:  0000d517          auipc           a0,53248        # 0x800113ee
0x00000000800043f2:  b5a50513          addi            a0,a0,-1190
0x00000000800043f6:  b73ff0ef          jal             ra,-1166        # 0x80003f68

----------------
IN: 
Priv: 3; Virt: 0
0x00000000800043fa:  85e2              mv              a1,s8
0x00000000800043fc:  b711              j               -252            # 0x80004300

----------------
IN: 
Priv: 3; Virt: 0
0x0000000080004314:  07893683          ld              a3,120(s2)
0x0000000080004318:  00092583          lw              a1,0(s2)
0x000000008000431c:  864e              mv              a2,s3
0x000000008000431e:  0000d517          auipc           a0,53248        # 0x8001131e
0x0000000080004322:  b6a50513          addi            a0,a0,-1174
0x0000000080004326:  c43ff0ef          jal             ra,-958         # 0x80003f68

----------------
IN: 
Priv: 3; Virt: 0
0x000000008000432a:  07093683          ld              a3,112(s2)
0x000000008000432e:  00092583          lw              a1,0(s2)
0x0000000080004332:  864e              mv              a2,s3
0x0000000080004334:  0000d517          auipc           a0,53248        # 0x80011334
0x0000000080004338:  b7c50513          addi            a0,a0,-1156
0x000000008000433c:  c2dff0ef          jal             ra,-980         # 0x80003f68

----------------
IN: 
Priv: 3; Virt: 0
0x0000000080004340:  00092583          lw              a1,0(s2)
0x0000000080004344:  864e              mv              a2,s3
0x0000000080004346:  0000d517          auipc           a0,53248        # 0x80011346
0x000000008000434a:  b9250513          addi            a0,a0,-1134
0x000000008000434e:  c1bff0ef          jal             ra,-998         # 0x80003f68

----------------
IN: 
Priv: 3; Virt: 0
0x0000000080004352:  08093783          ld              a5,128(s2)
0x0000000080004356:  4705              addi            a4,zero,1
0x0000000080004358:  10e78363          beq             a5,a4,262       # 0x8000445e

----------------
IN: 
Priv: 3; Virt: 0
0x000000008000445e:  0000d517          auipc           a0,53248        # 0x8001145e
0x0000000080004462:  afa50513          addi            a0,a0,-1286
0x0000000080004466:  b03ff0ef          jal             ra,-1278        # 0x80003f68

----------------
IN: 
Priv: 3; Virt: 0
0x000000008000446a:  b719              j               -250            # 0x80004370

----------------
IN: 
Priv: 3; Virt: 0
0x0000000080004370:  08892783          lw              a5,136(s2)
0x0000000080004374:  00092583          lw              a1,0(s2)
0x0000000080004378:  0000d697          auipc           a3,53248        # 0x80011378
0x000000008000437c:  a9868693          addi            a3,a3,-1384
0x0000000080004380:  e789              bnez            a5,10           # 0x8000438a

----------------
IN: 
Priv: 3; Virt: 0
0x000000008000438a:  864e              mv              a2,s3
0x000000008000438c:  0000d517          auipc           a0,53248        # 0x8001138c
0x0000000080004390:  bec50513          addi            a0,a0,-1044
0x0000000080004394:  bd5ff0ef          jal             ra,-1068        # 0x80003f68

----------------
IN: 
Priv: 3; Virt: 0
0x0000000080004398:  60e6              ld              ra,88(sp)
0x000000008000439a:  6446              ld              s0,80(sp)
0x000000008000439c:  64a6              ld              s1,72(sp)
0x000000008000439e:  6906              ld              s2,64(sp)
0x00000000800043a0:  79e2              ld              s3,56(sp)
0x00000000800043a2:  7a42              ld              s4,48(sp)
0x00000000800043a4:  7aa2              ld              s5,40(sp)
0x00000000800043a6:  7b02              ld              s6,32(sp)
0x00000000800043a8:  6be2              ld              s7,24(sp)
0x00000000800043aa:  6c42              ld              s8,16(sp)
0x00000000800043ac:  6ca2              ld              s9,8(sp)
0x00000000800043ae:  6d02              ld              s10,0(sp)
0x00000000800043b0:  6125              addi            sp,sp,96
0x00000000800043b2:  8082              ret             

----------------
IN: 
Priv: 3; Virt: 0
0x000000008000449c:  854e              mv              a0,s3
0x000000008000449e:  04a1              addi            s1,s1,8
0x00000000800044a0:  ac9ff0ef          jal             ra,-1336        # 0x80003f68

----------------
IN: 
Priv: 3; Virt: 0
0x00000000800044a4:  ff84b503          ld              a0,-8(s1)
0x00000000800044a8:  f57d              bnez            a0,-18          # 0x80004496

----------------
IN: 
Priv: 3; Virt: 0
0x00000000800044aa:  70a2              ld              ra,40(sp)
0x00000000800044ac:  7402              ld              s0,32(sp)
0x00000000800044ae:  64e2              ld              s1,24(sp)
0x00000000800044b0:  6942              ld              s2,16(sp)
0x00000000800044b2:  69a2              ld              s3,8(sp)
0x00000000800044b4:  6145              addi            sp,sp,48
0x00000000800044b6:  8082              ret             

----------------
IN: 
Priv: 3; Virt: 0
0x0000000080000bb6:  8526              mv              a0,s1
0x0000000080000bb8:  405040ef          jal             ra,19460        # 0x800057bc

----------------
IN: 
Priv: 3; Virt: 0
0x00000000800057bc:  715d              addi            sp,sp,-80
0x00000000800057be:  e0a2              sd              s0,64(sp)
0x00000000800057c0:  e486              sd              ra,72(sp)
0x00000000800057c2:  fc26              sd              s1,56(sp)
0x00000000800057c4:  f84a              sd              s2,48(sp)
0x00000000800057c6:  f44e              sd              s3,40(sp)
0x00000000800057c8:  f052              sd              s4,32(sp)
0x00000000800057ca:  ec56              sd              s5,24(sp)
0x00000000800057cc:  e85a              sd              s6,16(sp)
0x00000000800057ce:  e45e              sd              s7,8(sp)
0x00000000800057d0:  e062              sd              s8,0(sp)
0x00000000800057d2:  0880              addi            s0,sp,80
0x00000000800057d4:  f1402773          csrrs           a4,mhartid,zero

----------------
IN: 
Priv: 3; Virt: 0
0x00000000800057d8:  0000e497          auipc           s1,57344        # 0x800137d8
0x00000000800057dc:  8b048493          addi            s1,s1,-1872
0x00000000800057e0:  609c              ld              a5,0(s1)
0x00000000800057e2:  97aa              add             a5,a5,a0
0x00000000800057e4:  0087a983          lw              s3,8(a5)
0x00000000800057e8:  00099f63          bnez            s3,30           # 0x80005806

----------------
IN: 
Priv: 3; Virt: 0
0x0000000080005806:  8aaa              mv              s5,a0
0x0000000080005808:  6b88              ld              a0,16(a5)
0x000000008000580a:  02071793          slli            a5,a4,32
0x000000008000580e:  01d7d713          srli            a4,a5,29
0x0000000080005812:  0000e797          auipc           a5,57344        # 0x80013812
0x0000000080005816:  24678793          addi            a5,a5,582
0x000000008000581a:  97ba              add             a5,a5,a4
0x000000008000581c:  0007ba03          ld              s4,0(a5)
0x0000000080005820:  10c020ef          jal             ra,8460         # 0x8000792c

----------------
IN: 
Priv: 3; Virt: 0
0x0000000080005824:  609c              ld              a5,0(s1)
0x0000000080005826:  060a3483          ld              s1,96(s4)
0x000000008000582a:  9abe              add             s5,s5,a5
0x000000008000582c:  00caa783          lw              a5,12(s5)
0x0000000080005830:  6094              ld              a3,0(s1)
0x0000000080005832:  fff7871b          addiw           a4,a5,-1
0x0000000080005836:  4785              addi            a5,zero,1
0x0000000080005838:  00e797b3          sll             a5,a5,a4
0x000000008000583c:  fff78a93          addi            s5,a5,-1
0x0000000080005840:  00faeab3          or              s5,s5,a5
0x0000000080005844:  d6c5              beqz            a3,-88          # 0x800057ec

----------------
IN: 
Priv: 3; Virt: 0
0x0000000080005846:  02051913          slli            s2,a0,32
0x000000008000584a:  02095913          srli            s2,s2,32
0x000000008000584e:  4c01              mv              s8,zero
0x0000000080005850:  0a61              addi            s4,s4,24
0x0000000080005852:  0000cb97          auipc           s7,49152        # 0x80011852
0x0000000080005856:  adeb8b93          addi            s7,s7,-1314
0x000000008000585a:  0000cb17          auipc           s6,49152        # 0x8001185a
0x000000008000585e:  afeb0b13          addi            s6,s6,-1282
0x0000000080005862:  a839              j               30              # 0x80005880

----------------
IN: 
Priv: 3; Virt: 0
0x0000000080005880:  689c              ld              a5,16(s1)
0x0000000080005882:  0027f713          andi            a4,a5,2
0x0000000080005886:  0017f593          andi            a1,a5,1
0x000000008000588a:  c319              beqz            a4,6            # 0x80005890

----------------
IN: 
Priv: 3; Virt: 0
0x0000000080005890:  0047f713          andi            a4,a5,4
0x0000000080005894:  c319              beqz            a4,6            # 0x8000589a

----------------
IN: 
Priv: 3; Virt: 0
0x000000008000589a:  8ba1              andi            a5,a5,8
0x000000008000589c:  c399              beqz            a5,6            # 0x800058a2

----------------
IN: 
Priv: 3; Virt: 0
0x00000000800058a2:  6490              ld              a2,8(s1)
0x00000000800058a4:  fd26e0e3          bgtu            s2,a3,-64       # 0x80005864

----------------
IN: 
Priv: 3; Virt: 0
0x00000000800058a8:  00265793          srli            a5,a2,2
0x00000000800058ac:  fb57fce3          bleu            s5,a5,-72       # 0x80005864

----------------
IN: 
Priv: 3; Virt: 0
0x00000000800058b0:  1582              slli            a1,a1,32
0x00000000800058b2:  8562              mv              a0,s8
0x00000000800058b4:  9181              srli            a1,a1,32
0x00000000800058b6:  2c05              addiw           s8,s8,1
0x00000000800058b8:  ecafd0ef          jal             ra,-10550       # 0x80002f82

----------------
IN: 
Priv: 3; Virt: 0
0x0000000080002f82:  03f00793          addi            a5,zero,63
0x0000000080002f86:  0ca7e963          bgtu            a0,a5,210       # 0x80003058

----------------
IN: 
Priv: 3; Virt: 0
0x0000000080002f8a:  715d              addi            sp,sp,-80
0x0000000080002f8c:  e0a2              sd              s0,64(sp)
0x0000000080002f8e:  ec56              sd              s5,24(sp)
0x0000000080002f90:  e486              sd              ra,72(sp)
0x0000000080002f92:  fc26              sd              s1,56(sp)
0x0000000080002f94:  f84a              sd              s2,48(sp)
0x0000000080002f96:  f44e              sd              s3,40(sp)
0x0000000080002f98:  f052              sd              s4,32(sp)
0x0000000080002f9a:  e85a              sd              s6,16(sp)
0x0000000080002f9c:  e45e              sd              s7,8(sp)
0x0000000080002f9e:  0880              addi            s0,sp,80
0x0000000080002fa0:  ffe68793          addi            a5,a3,-2
0x0000000080002fa4:  03e00713          addi            a4,zero,62
0x0000000080002fa8:  8ab6              mv              s5,a3
0x0000000080002faa:  0af76963          bgtu            a5,a4,178       # 0x8000305c

----------------
IN: 
Priv: 3; Virt: 0
0x0000000080002fae:  00255a1b          srliw           s4,a0,2
0x0000000080002fb2:  3a0a0a1b          addiw           s4,s4,928
0x0000000080002fb6:  00351b1b          slliw           s6,a0,3
0x0000000080002fba:  ffea7a13          andi            s4,s4,-2
0x0000000080002fbe:  038b7b13          andi            s6,s6,56
0x0000000080002fc2:  0ff00793          addi            a5,zero,255
0x0000000080002fc6:  4709              addi            a4,zero,2
0x0000000080002fc8:  84ae              mv              s1,a1
0x0000000080002fca:  8932              mv              s2,a2
0x0000000080002fcc:  2a01              sext.w          s4,s4
0x0000000080002fce:  3b05099b          addiw           s3,a0,944
0x0000000080002fd2:  01679bb3          sll             s7,a5,s6
0x0000000080002fd6:  06e68363          beq             a3,a4,102       # 0x8000303c

----------------
IN: 
Priv: 3; Virt: 0
0x0000000080002fda:  8552              mv              a0,s4
0x0000000080002fdc:  b7fff0ef          jal             ra,-1154        # 0x80002b5a

----------------
IN: 
Priv: 3; Virt: 0
0x0000000080002b5a:  1141              addi            sp,sp,-16
0x0000000080002b5c:  e422              sd              s0,8(sp)
0x0000000080002b5e:  c605051b          addiw           a0,a0,-928
0x0000000080002b62:  0800              addi            s0,sp,16
0x0000000080002b64:  0005071b          sext.w          a4,a0
0x0000000080002b68:  04f00793          addi            a5,zero,79
0x0000000080002b6c:  20e7e063          bgtu            a4,a5,512       # 0x80002d6c

----------------
IN: 
Priv: 3; Virt: 0
0x0000000080002b70:  02051793          slli            a5,a0,32
0x0000000080002b74:  0000e717          auipc           a4,57344        # 0x80010b74
0x0000000080002b78:  f4870713          addi            a4,a4,-184
0x0000000080002b7c:  01e7d513          srli            a0,a5,30
0x0000000080002b80:  953a              add             a0,a0,a4
0x0000000080002b82:  411c              lw              a5,0(a0)
0x0000000080002b84:  97ba              add             a5,a5,a4
0x0000000080002b86:  8782              jr              a5

----------------
IN: 
Priv: 3; Virt: 0
0x0000000080002d60:  3a002573          csrrs           a0,pmpcfg3,zero

----------------
IN: 
Priv: 3; Virt: 0
0x0000000080002d64:  b525              j               -472            # 0x80002b8c

----------------
IN: 
Priv: 3; Virt: 0
0x0000000080002b8c:  6422              ld              s0,8(sp)
0x0000000080002b8e:  0141              addi            sp,sp,16
0x0000000080002b90:  8082              ret             

----------------
IN: 
Priv: 3; Virt: 0
0x0000000080002fe0:  0184e593          ori             a1,s1,24
0x0000000080002fe4:  016594b3          sll             s1,a1,s6
0x0000000080002fe8:  8ca9              xor             s1,s1,a0
0x0000000080002fea:  0174f4b3          and             s1,s1,s7
0x0000000080002fee:  04000793          addi            a5,zero,64
0x0000000080002ff2:  8ca9              xor             s1,s1,a0
0x0000000080002ff4:  55fd              addi            a1,zero,-1
0x0000000080002ff6:  02fa8063          beq             s5,a5,32        # 0x80003016

----------------
IN: 
Priv: 3; Virt: 0
0x0000000080002ffa:  3af9              addiw           s5,s5,-2
0x0000000080002ffc:  4585              addi            a1,zero,1
0x0000000080002ffe:  015595b3          sll             a1,a1,s5

----------------
IN: 
Priv: 3; Virt: 0
0x0000000080003002:  40b007b3          neg             a5,a1
0x0000000080003006:  00295913          srli            s2,s2,2
0x000000008000300a:  15fd              addi            a1,a1,-1
0x000000008000300c:  0127f933          and             s2,a5,s2
0x0000000080003010:  8185              srli            a1,a1,1
0x0000000080003012:  0125e5b3          or              a1,a1,s2
0x0000000080003016:  854e              mv              a0,s3
0x0000000080003018:  d59ff0ef          jal             ra,-680         # 0x80002d70

----------------
IN: 
Priv: 3; Virt: 0
0x0000000080002d70:  1141              addi            sp,sp,-16
0x0000000080002d72:  e422              sd              s0,8(sp)
0x0000000080002d74:  c605051b          addiw           a0,a0,-928
0x0000000080002d78:  0800              addi            s0,sp,16
0x0000000080002d7a:  0005071b          sext.w          a4,a0
0x0000000080002d7e:  04f00793          addi            a5,zero,79
0x0000000080002d82:  02e7e063          bgtu            a4,a5,32        # 0x80002da2

----------------
IN: 
Priv: 3; Virt: 0
0x0000000080002d86:  02051793          slli            a5,a0,32
0x0000000080002d8a:  0000e717          auipc           a4,57344        # 0x80010d8a
0x0000000080002d8e:  e7270713          addi            a4,a4,-398
0x0000000080002d92:  01e7d513          srli            a0,a5,30
0x0000000080002d96:  953a              add             a0,a0,a4
0x0000000080002d98:  411c              lw              a5,0(a0)
0x0000000080002d9a:  97ba              add             a5,a5,a4
0x0000000080002d9c:  8782              jr              a5

----------------
IN: 
Priv: 3; Virt: 0
0x0000000080002f1c:  3b059073          csrrw           zero,pmpaddr0,a1

----------------
IN: 
Priv: 3; Virt: 0
0x0000000080002f20:  b549              j               -382            # 0x80002da2

----------------
IN: 
Priv: 3; Virt: 0
0x0000000080002da2:  6422              ld              s0,8(sp)
0x0000000080002da4:  0141              addi            sp,sp,16
0x0000000080002da6:  8082              ret             

----------------
IN: 
Priv: 3; Virt: 0
0x000000008000301c:  8552              mv              a0,s4
0x000000008000301e:  85a6              mv              a1,s1
0x0000000080003020:  d51ff0ef          jal             ra,-688         # 0x80002d70

----------------
IN: 
Priv: 3; Virt: 0
0x0000000080002f7c:  3a059073          csrrw           zero,pmpcfg3,a1

----------------
IN: 
Priv: 3; Virt: 0
0x0000000080002f80:  b50d              j               -478            # 0x80002da2

----------------
IN: 
Priv: 3; Virt: 0
0x0000000080003024:  4501              mv              a0,zero
0x0000000080003026:  60a6              ld              ra,72(sp)
0x0000000080003028:  6406              ld              s0,64(sp)
0x000000008000302a:  74e2              ld              s1,56(sp)
0x000000008000302c:  7942              ld              s2,48(sp)
0x000000008000302e:  79a2              ld              s3,40(sp)
0x0000000080003030:  7a02              ld              s4,32(sp)
0x0000000080003032:  6ae2              ld              s5,24(sp)
0x0000000080003034:  6b42              ld              s6,16(sp)
0x0000000080003036:  6ba2              ld              s7,8(sp)
0x0000000080003038:  6161              addi            sp,sp,80
0x000000008000303a:  8082              ret             

----------------
IN: 
Priv: 3; Virt: 0
0x00000000800058bc:  bf6d              j               -70             # 0x80005876

----------------
IN: 
Priv: 3; Virt: 0
0x0000000080005876:  6c94              ld              a3,24(s1)
0x0000000080005878:  04e1              addi            s1,s1,24
0x000000008000587a:  daad              beqz            a3,-142         # 0x800057ec

----------------
IN: 
Priv: 3; Virt: 0
0x000000008000587c:  f73c78e3          bleu            s3,s8,-144      # 0x800057ec

----------------
IN: 
Priv: 3; Virt: 0
0x000000008000588c:  0025e593          ori             a1,a1,2
0x0000000080005890:  0047f713          andi            a4,a5,4
0x0000000080005894:  c319              beqz            a4,6            # 0x8000589a

----------------
IN: 
Priv: 3; Virt: 0
0x0000000080005896:  0045e593          ori             a1,a1,4
0x000000008000589a:  8ba1              andi            a5,a5,8
0x000000008000589c:  c399              beqz            a5,6            # 0x800058a2

----------------
IN: 
Priv: 3; Virt: 0
0x0000000080003016:  854e              mv              a0,s3
0x0000000080003018:  d59ff0ef          jal             ra,-680         # 0x80002d70

----------------
IN: 
Priv: 3; Virt: 0
0x0000000080002f16:  3b159073          csrrw           zero,pmpaddr1,a1

----------------
IN: 
Priv: 3; Virt: 0
0x0000000080002f1a:  b561              j               -376            # 0x80002da2

----------------
IN: 
Priv: 3; Virt: 0
0x00000000800057ec:  60a6              ld              ra,72(sp)
0x00000000800057ee:  6406              ld              s0,64(sp)
0x00000000800057f0:  74e2              ld              s1,56(sp)
0x00000000800057f2:  7942              ld              s2,48(sp)
0x00000000800057f4:  79a2              ld              s3,40(sp)
0x00000000800057f6:  7a02              ld              s4,32(sp)
0x00000000800057f8:  6ae2              ld              s5,24(sp)
0x00000000800057fa:  6b42              ld              s6,16(sp)
0x00000000800057fc:  6ba2              ld              s7,8(sp)
0x00000000800057fe:  6c02              ld              s8,0(sp)
0x0000000080005800:  4501              mv              a0,zero
0x0000000080005802:  6161              addi            sp,sp,80
0x0000000080005804:  8082              ret             

----------------
IN: 
Priv: 3; Virt: 0
0x0000000080000bbc:  862a              mv              a2,a0
0x0000000080000bbe:  8b2a              mv              s6,a0
0x0000000080000bc0:  cd09              beqz            a0,26           # 0x80000bda

----------------
IN: 
Priv: 3; Virt: 0
0x0000000080000bda:  020a8663          beqz            s5,44           # 0x80000c06

----------------
IN: 
Priv: 3; Virt: 0
0x0000000080000bde:  058ab783          ld              a5,88(s5)
0x0000000080000be2:  679c              ld              a5,8(a5)
0x0000000080000be4:  c38d              beqz            a5,34           # 0x80000c06

----------------
IN: 
Priv: 3; Virt: 0
0x0000000080000be6:  4505              addi            a0,zero,1
0x0000000080000be8:  9782              jalr            ra,a5,0

----------------
IN: 
Priv: 3; Virt: 0
0x000000008000279c:  1101              addi            sp,sp,-32
0x000000008000279e:  e822              sd              s0,16(sp)
0x00000000800027a0:  e426              sd              s1,8(sp)
0x00000000800027a2:  e04a              sd              s2,0(sp)
0x00000000800027a4:  ec06              sd              ra,24(sp)
0x00000000800027a6:  1000              addi            s0,sp,32
0x00000000800027a8:  00011917          auipc           s2,69632        # 0x800137a8
0x00000000800027ac:  8c090913          addi            s2,s2,-1856
0x00000000800027b0:  00093783          ld              a5,0(s2)
0x00000000800027b4:  84aa              mv              s1,a0
0x00000000800027b6:  cb89              beqz            a5,18           # 0x800027c8

----------------
IN: 
Priv: 3; Virt: 0
0x00000000800027c8:  e881              bnez            s1,16           # 0x800027d8

----------------
IN: 
Priv: 3; Virt: 0
0x00000000800027d8:  340027f3          csrrs           a5,mscratch,zero

----------------
IN: 
Priv: 3; Virt: 0
0x00000000800027dc:  6b84              ld              s1,16(a5)
0x00000000800027de:  8526              mv              a0,s1
0x00000000800027e0:  50e0a0ef          jal             ra,42254        # 0x8000ccee

----------------
IN: 
Priv: 3; Virt: 0
0x000000008000ccee:  711d              addi            sp,sp,-96
0x000000008000ccf0:  e8a2              sd              s0,80(sp)
0x000000008000ccf2:  e0ca              sd              s2,64(sp)
0x000000008000ccf4:  ec86              sd              ra,88(sp)
0x000000008000ccf6:  e4a6              sd              s1,72(sp)
0x000000008000ccf8:  fc4e              sd              s3,56(sp)
0x000000008000ccfa:  f852              sd              s4,48(sp)
0x000000008000ccfc:  f456              sd              s5,40(sp)
0x000000008000ccfe:  f05a              sd              s6,32(sp)
0x000000008000cd00:  ec5e              sd              s7,24(sp)
0x000000008000cd02:  1080              addi            s0,sp,96
0x000000008000cd04:  892a              mv              s2,a0
0x000000008000cd06:  f1402773          csrrs           a4,mhartid,zero

----------------
IN: 
Priv: 3; Virt: 0
0x000000008000cd0a:  00454603          lbu             a2,4(a0)
0x000000008000cd0e:  00554683          lbu             a3,5(a0)
0x000000008000cd12:  00754583          lbu             a1,7(a0)
0x000000008000cd16:  00654783          lbu             a5,6(a0)
0x000000008000cd1a:  0106969b          slliw           a3,a3,16
0x000000008000cd1e:  0186161b          slliw           a2,a2,24
0x000000008000cd22:  8e55              or              a2,a2,a3
0x000000008000cd24:  8e4d              or              a2,a2,a1
0x000000008000cd26:  0087979b          slliw           a5,a5,8
0x000000008000cd2a:  02071693          slli            a3,a4,32
0x000000008000cd2e:  8e5d              or              a2,a2,a5
0x000000008000cd30:  01d6d713          srli            a4,a3,29
0x000000008000cd34:  00007797          auipc           a5,28672        # 0x80013d34
0x000000008000cd38:  d2478793          addi            a5,a5,-732
0x000000008000cd3c:  97ba              add             a5,a5,a4
0x000000008000cd3e:  0206061b          addiw           a2,a2,32
0x000000008000cd42:  85aa              mv              a1,a0
0x000000008000cd44:  0007bb03          ld              s6,0(a5)
0x000000008000cd48:  6ce020ef          jal             ra,9934         # 0x8000f416

----------------
IN: 
Priv: 3; Virt: 0
0x000000008000f416:  7159              addi            sp,sp,-112
0x000000008000f418:  f0a2              sd              s0,96(sp)
0x000000008000f41a:  eca6              sd              s1,88(sp)
0x000000008000f41c:  e8ca              sd              s2,80(sp)
0x000000008000f41e:  e4ce              sd              s3,72(sp)
0x000000008000f420:  e0d2              sd              s4,64(sp)
0x000000008000f422:  f486              sd              ra,104(sp)
0x000000008000f424:  fc56              sd              s5,56(sp)
0x000000008000f426:  f85a              sd              s6,48(sp)
0x000000008000f428:  f45e              sd              s7,40(sp)
0x000000008000f42a:  f062              sd              s8,32(sp)
0x000000008000f42c:  ec66              sd              s9,24(sp)
0x000000008000f42e:  e86a              sd              s10,16(sp)
0x000000008000f430:  1880              addi            s0,sp,112
0x000000008000f432:  00454c03          lbu             s8,4(a0)
0x000000008000f436:  00554a83          lbu             s5,5(a0)
0x000000008000f43a:  00654b83          lbu             s7,6(a0)
0x000000008000f43e:  00754d03          lbu             s10,7(a0)
0x000000008000f442:  84aa              mv              s1,a0
0x000000008000f444:  89ae              mv              s3,a1
0x000000008000f446:  8a32              mv              s4,a2
0x000000008000f448:  fdff90ef          jal             ra,-24610       # 0x80009426

----------------
IN: 
Priv: 3; Virt: 0
0x000000008000f44c:  892a              mv              s2,a0
0x000000008000f44e:  18054163          bltz            a0,386          # 0x8000f5d0

----------------
IN: 
Priv: 3; Virt: 0
0x000000008000f452:  8526              mv              a0,s1
0x000000008000f454:  ca5fa0ef          jal             ra,-21340       # 0x8000a0f8

----------------
IN: 
Priv: 3; Virt: 0
0x000000008000a0f8:  1101              addi            sp,sp,-32
0x000000008000a0fa:  e822              sd              s0,16(sp)
0x000000008000a0fc:  e426              sd              s1,8(sp)
0x000000008000a0fe:  e04a              sd              s2,0(sp)
0x000000008000a100:  ec06              sd              ra,24(sp)
0x000000008000a102:  1000              addi            s0,sp,32
0x000000008000a104:  84aa              mv              s1,a0
0x000000008000a106:  4901              mv              s2,zero
0x000000008000a108:  a099              j               70              # 0x8000a14e

----------------
IN: 
Priv: 3; Virt: 0
0x000000008000a14e:  85ca              mv              a1,s2
0x000000008000a150:  8526              mv              a0,s1
0x000000008000a152:  b15ff0ef          jal             ra,-1260        # 0x80009c66

----------------
IN: 
Priv: 3; Virt: 0
0x0000000080009c66:  1141              addi            sp,sp,-16
0x0000000080009c68:  e422              sd              s0,8(sp)
0x0000000080009c6a:  0800              addi            s0,sp,16
0x0000000080009c6c:  01054783          lbu             a5,16(a0)
0x0000000080009c70:  01154683          lbu             a3,17(a0)
0x0000000080009c74:  01354603          lbu             a2,19(a0)
0x0000000080009c78:  01254703          lbu             a4,18(a0)
0x0000000080009c7c:  0106969b          slliw           a3,a3,16
0x0000000080009c80:  0187979b          slliw           a5,a5,24
0x0000000080009c84:  8fd5              or              a5,a5,a3
0x0000000080009c86:  0087171b          slliw           a4,a4,8
0x0000000080009c8a:  8fd1              or              a5,a5,a2
0x0000000080009c8c:  8fd9              or              a5,a5,a4
0x0000000080009c8e:  0045971b          slliw           a4,a1,4
0x0000000080009c92:  0007869b          sext.w          a3,a5
0x0000000080009c96:  9f3d              addw            a4,a4,a5
0x0000000080009c98:  04d76263          bgtu            a3,a4,68        # 0x80009cdc

----------------
IN: 
Priv: 3; Virt: 0
0x0000000080009c9c:  00454783          lbu             a5,4(a0)
0x0000000080009ca0:  00554803          lbu             a6,5(a0)
0x0000000080009ca4:  00754883          lbu             a7,7(a0)
0x0000000080009ca8:  00654603          lbu             a2,6(a0)
0x0000000080009cac:  0187979b          slliw           a5,a5,24
0x0000000080009cb0:  0108181b          slliw           a6,a6,16
0x0000000080009cb4:  0107e7b3          or              a5,a5,a6
0x0000000080009cb8:  0117e7b3          or              a5,a5,a7
0x0000000080009cbc:  0086161b          slliw           a2,a2,8
0x0000000080009cc0:  8fd1              or              a5,a5,a2
0x0000000080009cc2:  1782              slli            a5,a5,32
0x0000000080009cc4:  9381              srli            a5,a5,32
0x0000000080009cc6:  17c1              addi            a5,a5,-16
0x0000000080009cc8:  00e7ea63          bgtu            a4,a5,20        # 0x80009cdc

----------------
IN: 
Priv: 3; Virt: 0
0x0000000080009ccc:  6422              ld              s0,8(sp)
0x0000000080009cce:  1682              slli            a3,a3,32
0x0000000080009cd0:  0592              slli            a1,a1,4
0x0000000080009cd2:  9281              srli            a3,a3,32
0x0000000080009cd4:  95b6              add             a1,a1,a3
0x0000000080009cd6:  952e              add             a0,a0,a1
0x0000000080009cd8:  0141              addi            sp,sp,16
0x0000000080009cda:  8082              ret             

----------------
IN: 
Priv: 3; Virt: 0
0x000000008000a156:  f955              bnez            a0,-76          # 0x8000a10a

----------------
IN: 
Priv: 3; Virt: 0
0x000000008000a10a:  00854783          lbu             a5,8(a0)
0x000000008000a10e:  00954703          lbu             a4,9(a0)
0x000000008000a112:  00f54583          lbu             a1,15(a0)
0x000000008000a116:  00a54883          lbu             a7,10(a0)
0x000000008000a11a:  1742              slli            a4,a4,48
0x000000008000a11c:  00b54803          lbu             a6,11(a0)
0x000000008000a120:  17e2              slli            a5,a5,56
0x000000008000a122:  00c54603          lbu             a2,12(a0)
0x000000008000a126:  8fd9              or              a5,a5,a4
0x000000008000a128:  00d54683          lbu             a3,13(a0)
0x000000008000a12c:  8fcd              or              a5,a5,a1
0x000000008000a12e:  18a2              slli            a7,a7,40
0x000000008000a130:  00e54703          lbu             a4,14(a0)
0x000000008000a134:  0117e7b3          or              a5,a5,a7
0x000000008000a138:  02081513          slli            a0,a6,32
0x000000008000a13c:  8fc9              or              a5,a5,a0
0x000000008000a13e:  0662              slli            a2,a2,24
0x000000008000a140:  8fd1              or              a5,a5,a2
0x000000008000a142:  06c2              slli            a3,a3,16
0x000000008000a144:  8fd5              or              a5,a5,a3
0x000000008000a146:  0722              slli            a4,a4,8
0x000000008000a148:  8fd9              or              a5,a5,a4
0x000000008000a14a:  cb81              beqz            a5,16           # 0x8000a15a

----------------
IN: 
Priv: 3; Virt: 0
0x000000008000a15a:  60e2              ld              ra,24(sp)
0x000000008000a15c:  6442              ld              s0,16(sp)
0x000000008000a15e:  64a2              ld              s1,8(sp)
0x000000008000a160:  854a              mv              a0,s2
0x000000008000a162:  6902              ld              s2,0(sp)
0x000000008000a164:  6105              addi            sp,sp,32
0x000000008000a166:  8082              ret             

----------------
IN: 
Priv: 3; Virt: 0
0x000000008000f458:  0144c783          lbu             a5,20(s1)
0x000000008000f45c:  0154c683          lbu             a3,21(s1)
0x000000008000f460:  0174c603          lbu             a2,23(s1)
0x000000008000f464:  0164c703          lbu             a4,22(s1)
0x000000008000f468:  0187979b          slliw           a5,a5,24
0x000000008000f46c:  0106969b          slliw           a3,a3,16
0x000000008000f470:  8fd5              or              a5,a5,a3
0x000000008000f472:  0087171b          slliw           a4,a4,8
0x000000008000f476:  8fd1              or              a5,a5,a2
0x000000008000f478:  00150b1b          addiw           s6,a0,1
0x000000008000f47c:  8fd9              or              a5,a5,a4
0x000000008000f47e:  004b1c9b          slliw           s9,s6,4
0x000000008000f482:  2781              sext.w          a5,a5
0x000000008000f484:  4741              addi            a4,zero,16
0x000000008000f486:  8b66              mv              s6,s9
0x000000008000f488:  16f76363          bgtu            a5,a4,358       # 0x8000f5ee

----------------
IN: 
Priv: 3; Virt: 0
0x000000008000f5ee:  0244c903          lbu             s2,36(s1)
0x000000008000f5f2:  0254c703          lbu             a4,37(s1)
0x000000008000f5f6:  0274c683          lbu             a3,39(s1)
0x000000008000f5fa:  0264c783          lbu             a5,38(s1)
0x000000008000f5fe:  0189191b          slliw           s2,s2,24
0x000000008000f602:  0107171b          slliw           a4,a4,16
0x000000008000f606:  00e96933          or              s2,s2,a4
0x000000008000f60a:  00d96933          or              s2,s2,a3
0x000000008000f60e:  0087979b          slliw           a5,a5,8
0x000000008000f612:  00f96933          or              s2,s2,a5
0x000000008000f616:  2901              sext.w          s2,s2
0x000000008000f618:  864a              mv              a2,s2
0x000000008000f61a:  85e6              mv              a1,s9
0x000000008000f61c:  8526              mv              a0,s1
0x000000008000f61e:  f9242e23          sw              s2,-100(s0)
0x000000008000f622:  f2ffe0ef          jal             ra,-4306        # 0x8000e550

----------------
IN: 
Priv: 3; Virt: 0
0x000000008000e550:  1141              addi            sp,sp,-16
0x000000008000e552:  e422              sd              s0,8(sp)
0x000000008000e554:  0800              addi            s0,sp,16
0x000000008000e556:  872a              mv              a4,a0
0x000000008000e558:  01154783          lbu             a5,17(a0)
0x000000008000e55c:  01054503          lbu             a0,16(a0)
0x000000008000e560:  01374803          lbu             a6,19(a4)
0x000000008000e564:  01274683          lbu             a3,18(a4)
0x000000008000e568:  0185151b          slliw           a0,a0,24
0x000000008000e56c:  0107979b          slliw           a5,a5,16
0x000000008000e570:  8fc9              or              a5,a5,a0
0x000000008000e572:  0086969b          slliw           a3,a3,8
0x000000008000e576:  0107e7b3          or              a5,a5,a6
0x000000008000e57a:  8fd5              or              a5,a5,a3
0x000000008000e57c:  2781              sext.w          a5,a5
0x000000008000e57e:  02700693          addi            a3,zero,39
0x000000008000e582:  4505              addi            a0,zero,1
0x000000008000e584:  02f6fa63          bleu            a5,a3,52        # 0x8000e5b8

----------------
IN: 
Priv: 3; Virt: 0
0x000000008000e588:  00874683          lbu             a3,8(a4)
0x000000008000e58c:  00974803          lbu             a6,9(a4)
0x000000008000e590:  00b74883          lbu             a7,11(a4)
0x000000008000e594:  00a74503          lbu             a0,10(a4)
0x000000008000e598:  0186969b          slliw           a3,a3,24
0x000000008000e59c:  0108181b          slliw           a6,a6,16
0x000000008000e5a0:  0106e6b3          or              a3,a3,a6
0x000000008000e5a4:  0085151b          slliw           a0,a0,8
0x000000008000e5a8:  0116e6b3          or              a3,a3,a7
0x000000008000e5ac:  8ec9              or              a3,a3,a0
0x000000008000e5ae:  2681              sext.w          a3,a3
0x000000008000e5b0:  9dbd              addw            a1,a1,a5
0x000000008000e5b2:  4505              addi            a0,zero,1
0x000000008000e5b4:  00b6f563          bleu            a1,a3,10        # 0x8000e5be

----------------
IN: 
Priv: 3; Virt: 0
0x000000008000e5be:  00c74783          lbu             a5,12(a4)
0x000000008000e5c2:  00d74803          lbu             a6,13(a4)
0x000000008000e5c6:  00f74883          lbu             a7,15(a4)
0x000000008000e5ca:  00e74583          lbu             a1,14(a4)
0x000000008000e5ce:  0187979b          slliw           a5,a5,24
0x000000008000e5d2:  0108181b          slliw           a6,a6,16
0x000000008000e5d6:  0107e7b3          or              a5,a5,a6
0x000000008000e5da:  0117e7b3          or              a5,a5,a7
0x000000008000e5de:  0085959b          slliw           a1,a1,8
0x000000008000e5e2:  8fcd              or              a5,a5,a1
0x000000008000e5e4:  2781              sext.w          a5,a5
0x000000008000e5e6:  9e35              addw            a2,a2,a3
0x000000008000e5e8:  fcc7e8e3          bgtu            a2,a5,-48       # 0x8000e5b8

----------------
IN: 
Priv: 3; Virt: 0
0x000000008000e5ec:  02074503          lbu             a0,32(a4)
0x000000008000e5f0:  02174883          lbu             a7,33(a4)
0x000000008000e5f4:  00474683          lbu             a3,4(a4)
0x000000008000e5f8:  00574803          lbu             a6,5(a4)
0x000000008000e5fc:  02374e03          lbu             t3,35(a4)
0x000000008000e600:  02274583          lbu             a1,34(a4)
0x000000008000e604:  00774303          lbu             t1,7(a4)
0x000000008000e608:  00674603          lbu             a2,6(a4)
0x000000008000e60c:  0185151b          slliw           a0,a0,24
0x000000008000e610:  0186971b          slliw           a4,a3,24
0x000000008000e614:  0108989b          slliw           a7,a7,16
0x000000008000e618:  0108169b          slliw           a3,a6,16
0x000000008000e61c:  8f55              or              a4,a4,a3
0x000000008000e61e:  01156533          or              a0,a0,a7
0x000000008000e622:  6422              ld              s0,8(sp)
0x000000008000e624:  01c56533          or              a0,a0,t3
0x000000008000e628:  0085959b          slliw           a1,a1,8
0x000000008000e62c:  00676733          or              a4,a4,t1
0x000000008000e630:  0086169b          slliw           a3,a2,8
0x000000008000e634:  8d4d              or              a0,a0,a1
0x000000008000e636:  8f55              or              a4,a4,a3
0x000000008000e638:  9d3d              addw            a0,a0,a5
0x000000008000e63a:  0007079b          sext.w          a5,a4
0x000000008000e63e:  00a7b533          sltu            a0,a5,a0
0x000000008000e642:  0141              addi            sp,sp,16
0x000000008000e644:  8082              ret             

----------------
IN: 
Priv: 3; Virt: 0
0x000000008000f626:  e8051de3          bnez            a0,-358         # 0x8000f4c0

----------------
IN: 
Priv: 3; Virt: 0
0x000000008000f62a:  8652              mv              a2,s4
0x000000008000f62c:  85ce              mv              a1,s3
0x000000008000f62e:  8526              mv              a0,s1
0x000000008000f630:  dd0fa0ef          jal             ra,-23088       # 0x80009c00

----------------
IN: 
Priv: 3; Virt: 0
0x0000000080009c00:  7179              addi            sp,sp,-48
0x0000000080009c02:  f022              sd              s0,32(sp)
0x0000000080009c04:  ec26              sd              s1,24(sp)
0x0000000080009c06:  e84a              sd              s2,16(sp)
0x0000000080009c08:  e44e              sd              s3,8(sp)
0x0000000080009c0a:  f406              sd              ra,40(sp)
0x0000000080009c0c:  1800              addi            s0,sp,48
0x0000000080009c0e:  84aa              mv              s1,a0
0x0000000080009c10:  89ae              mv              s3,a1
0x0000000080009c12:  8932              mv              s2,a2
0x0000000080009c14:  813ff0ef          jal             ra,-2030        # 0x80009426

----------------
IN: 
Priv: 3; Virt: 0
0x0000000080009c18:  02054e63          bltz            a0,60           # 0x80009c54

----------------
IN: 
Priv: 3; Virt: 0
0x0000000080009c1c:  0044c783          lbu             a5,4(s1)
0x0000000080009c20:  0054c683          lbu             a3,5(s1)
0x0000000080009c24:  0074c603          lbu             a2,7(s1)
0x0000000080009c28:  0064c703          lbu             a4,6(s1)
0x0000000080009c2c:  0187979b          slliw           a5,a5,24
0x0000000080009c30:  0106969b          slliw           a3,a3,16
0x0000000080009c34:  8fd5              or              a5,a5,a3
0x0000000080009c36:  8fd1              or              a5,a5,a2
0x0000000080009c38:  0087171b          slliw           a4,a4,8
0x0000000080009c3c:  8fd9              or              a5,a5,a4
0x0000000080009c3e:  2781              sext.w          a5,a5
0x0000000080009c40:  02f96163          bgtu            a5,s2,34        # 0x80009c62

----------------
IN: 
Priv: 3; Virt: 0
0x0000000080009c44:  02079613          slli            a2,a5,32
0x0000000080009c48:  9201              srli            a2,a2,32
0x0000000080009c4a:  85a6              mv              a1,s1
0x0000000080009c4c:  854e              mv              a0,s3
0x0000000080009c4e:  a4bf70ef          jal             ra,-34230       # 0x80001698

----------------
IN: 
Priv: 3; Virt: 0
0x0000000080001698:  1141              addi            sp,sp,-16
0x000000008000169a:  e422              sd              s0,8(sp)
0x000000008000169c:  0800              addi            s0,sp,16
0x000000008000169e:  00b50f63          beq             a0,a1,30        # 0x800016bc

----------------
IN: 
Priv: 3; Virt: 0
0x00000000800016bc:  6422              ld              s0,8(sp)
0x00000000800016be:  0141              addi            sp,sp,16
0x00000000800016c0:  8082              ret             

----------------
IN: 
Priv: 3; Virt: 0
0x0000000080009c52:  4501              mv              a0,zero
0x0000000080009c54:  70a2              ld              ra,40(sp)
0x0000000080009c56:  7402              ld              s0,32(sp)
0x0000000080009c58:  64e2              ld              s1,24(sp)
0x0000000080009c5a:  6942              ld              s2,16(sp)
0x0000000080009c5c:  69a2              ld              s3,8(sp)
0x0000000080009c5e:  6145              addi            sp,sp,48
0x0000000080009c60:  8082              ret             

----------------
IN: 
Priv: 3; Virt: 0
0x000000008000f634:  892a              mv              s2,a0
0x000000008000f636:  fd49              bnez            a0,-102         # 0x8000f5d0

----------------
IN: 
Priv: 3; Virt: 0
0x000000008000f638:  f9c42683          lw              a3,-100(s0)
0x000000008000f63c:  008a5793          srli            a5,s4,8
0x000000008000f640:  0ff7f793          andi            a5,a5,255
0x000000008000f644:  0086d713          srli            a4,a3,8
0x000000008000f648:  0ff77713          andi            a4,a4,255
0x000000008000f64c:  0186981b          slliw           a6,a3,24
0x000000008000f650:  0106d593          srli            a1,a3,16
0x000000008000f654:  018a151b          slliw           a0,s4,24
0x000000008000f658:  010a5613          srli            a2,s4,16
0x000000008000f65c:  0107171b          slliw           a4,a4,16
0x000000008000f660:  0107979b          slliw           a5,a5,16
0x000000008000f664:  0186d69b          srliw           a3,a3,24
0x000000008000f668:  01076733          or              a4,a4,a6
0x000000008000f66c:  0ff5f593          andi            a1,a1,255
0x000000008000f670:  8fc9              or              a5,a5,a0
0x000000008000f672:  018a5a1b          srliw           s4,s4,24
0x000000008000f676:  0ff67613          andi            a2,a2,255
0x000000008000f67a:  8f55              or              a4,a4,a3
0x000000008000f67c:  0085959b          slliw           a1,a1,8
0x000000008000f680:  0086169b          slliw           a3,a2,8
0x000000008000f684:  0147e7b3          or              a5,a5,s4
0x000000008000f688:  8fd5              or              a5,a5,a3
0x000000008000f68a:  8f4d              or              a4,a4,a1
0x000000008000f68c:  110006b7          lui             a3,285212672
0x000000008000f690:  00d9aa23          sw              a3,20(s3)
0x000000008000f694:  02e9a223          sw              a4,36(s3)
0x000000008000f698:  00f9a223          sw              a5,4(s3)
0x000000008000f69c:  bf15              j               -204            # 0x8000f5d0

----------------
IN: 
Priv: 3; Virt: 0
0x000000008000f5d0:  70a6              ld              ra,104(sp)
0x000000008000f5d2:  7406              ld              s0,96(sp)
0x000000008000f5d4:  64e6              ld              s1,88(sp)
0x000000008000f5d6:  69a6              ld              s3,72(sp)
0x000000008000f5d8:  6a06              ld              s4,64(sp)
0x000000008000f5da:  7ae2              ld              s5,56(sp)
0x000000008000f5dc:  7b42              ld              s6,48(sp)
0x000000008000f5de:  7ba2              ld              s7,40(sp)
0x000000008000f5e0:  7c02              ld              s8,32(sp)
0x000000008000f5e2:  6ce2              ld              s9,24(sp)
0x000000008000f5e4:  6d42              ld              s10,16(sp)
0x000000008000f5e6:  854a              mv              a0,s2
0x000000008000f5e8:  6946              ld              s2,80(sp)
0x000000008000f5ea:  6165              addi            sp,sp,112
0x000000008000f5ec:  8082              ret             

----------------
IN: 
Priv: 3; Virt: 0
0x000000008000cd4c:  08054c63          bltz            a0,152          # 0x8000cde4

----------------
IN: 
Priv: 3; Virt: 0
0x000000008000cd50:  00004597          auipc           a1,16384        # 0x80010d50
0x000000008000cd54:  b6858593          addi            a1,a1,-1176
0x000000008000cd58:  854a              mv              a0,s2
0x000000008000cd5a:  93dfd0ef          jal             ra,-9924        # 0x8000a696

----------------
IN: 
Priv: 3; Virt: 0
0x000000008000cd5e:  85aa              mv              a1,a0
0x000000008000cd60:  08054263          bltz            a0,132          # 0x8000cde4

----------------
IN: 
Priv: 3; Virt: 0
0x000000008000cd64:  854a              mv              a0,s2
0x000000008000cd66:  dc9fc0ef          jal             ra,-12856       # 0x80009b2e

----------------
IN: 
Priv: 3; Virt: 0
0x000000008000cd6a:  84aa              mv              s1,a0
0x000000008000cd6c:  06054c63          bltz            a0,120          # 0x8000cde4

----------------
IN: 
Priv: 3; Virt: 0
0x000000008000cd70:  00005a17          auipc           s4,20480        # 0x80011d70
0x000000008000cd74:  c70a0a13          addi            s4,s4,-912
0x000000008000cd78:  00005a97          auipc           s5,20480        # 0x80011d78
0x000000008000cd7c:  ae8a8a93          addi            s5,s5,-1304
0x000000008000cd80:  00005b97          auipc           s7,20480        # 0x80011d80
0x000000008000cd84:  af0b8b93          addi            s7,s7,-1296
0x000000008000cd88:  85a6              mv              a1,s1
0x000000008000cd8a:  fac40613          addi            a2,s0,-84
0x000000008000cd8e:  854a              mv              a0,s2
0x000000008000cd90:  f4cff0ef          jal             ra,-2228        # 0x8000c4dc

----------------
IN: 
Priv: 3; Virt: 0
0x0000000080009ee6:  02071513          slli            a0,a4,32
0x0000000080009eea:  9101              srli            a0,a0,32
0x0000000080009eec:  bf91              j               -172            # 0x80009e40

----------------
IN: 
Priv: 3; Virt: 0
0x000000008000cd94:  87aa              mv              a5,a0
0x000000008000cd96:  fa840693          addi            a3,s0,-88
0x000000008000cd9a:  8652              mv              a2,s4
0x000000008000cd9c:  85a6              mv              a1,s1
0x000000008000cd9e:  854a              mv              a0,s2
0x000000008000cda0:  eb9d              bnez            a5,54           # 0x8000cdd6

----------------
IN: 
Priv: 3; Virt: 0
0x000000008000cda2:  a07fd0ef          jal             ra,-9722        # 0x8000a7a8

----------------
IN: 
Priv: 3; Virt: 0
0x000000008000cda6:  fac42583          lw              a1,-84(s0)
0x000000008000cdaa:  89aa              mv              s3,a0
0x000000008000cdac:  855a              mv              a0,s6
0x000000008000cdae:  a84f70ef          jal             ra,-36220       # 0x80004032

----------------
IN: 
Priv: 3; Virt: 0
0x0000000080004032:  1141              addi            sp,sp,-16
0x0000000080004034:  e422              sd              s0,8(sp)
0x0000000080004036:  0800              addi            s0,sp,16
0x0000000080004038:  c911              beqz            a0,20           # 0x8000404c

----------------
IN: 
Priv: 3; Virt: 0
0x000000008000403a:  07f00713          addi            a4,zero,127
0x000000008000403e:  87aa              mv              a5,a0
0x0000000080004040:  4501              mv              a0,zero
0x0000000080004042:  00b77963          bleu            a1,a4,18        # 0x80004054

----------------
IN: 
Priv: 3; Virt: 0
0x0000000080004054:  4065d713          srai            a4,a1,6
0x0000000080004058:  07a1              addi            a5,a5,8
0x000000008000405a:  070e              slli            a4,a4,3
0x000000008000405c:  97ba              add             a5,a5,a4
0x000000008000405e:  6388              ld              a0,0(a5)
0x0000000080004060:  6422              ld              s0,8(sp)
0x0000000080004062:  00b55533          srl             a0,a0,a1
0x0000000080004066:  8905              andi            a0,a0,1
0x0000000080004068:  0141              addi            sp,sp,16
0x000000008000406a:  8082              ret             

----------------
IN: 
Priv: 3; Virt: 0
0x000000008000cdb2:  87aa              mv              a5,a0
0x000000008000cdb4:  8556              mv              a0,s5
0x000000008000cdb6:  c791              beqz            a5,12           # 0x8000cdc2

----------------
IN: 
Priv: 3; Virt: 0
0x000000008000cdb8:  00098563          beqz            s3,10           # 0x8000cdc2

----------------
IN: 
Priv: 3; Virt: 0
0x000000008000cdbc:  fa842783          lw              a5,-88(s0)
0x000000008000cdc0:  eb99              bnez            a5,22           # 0x8000cdd6

----------------
IN: 
Priv: 3; Virt: 0
0x000000008000cdd6:  85a6              mv              a1,s1
0x000000008000cdd8:  854a              mv              a0,s2
0x000000008000cdda:  d83fc0ef          jal             ra,-12926       # 0x80009b5c

----------------
IN: 
Priv: 3; Virt: 0
0x000000008000cdde:  84aa              mv              s1,a0
0x000000008000cde0:  fa0554e3          bgez            a0,-88          # 0x8000cd88

----------------
IN: 
Priv: 3; Virt: 0
0x000000008000cd88:  85a6              mv              a1,s1
0x000000008000cd8a:  fac40613          addi            a2,s0,-84
0x000000008000cd8e:  854a              mv              a0,s2
0x000000008000cd90:  f4cff0ef          jal             ra,-2228        # 0x8000c4dc

----------------
IN: 
Priv: 3; Virt: 0
0x000000008000cde4:  60e6              ld              ra,88(sp)
0x000000008000cde6:  6446              ld              s0,80(sp)
0x000000008000cde8:  64a6              ld              s1,72(sp)
0x000000008000cdea:  6906              ld              s2,64(sp)
0x000000008000cdec:  79e2              ld              s3,56(sp)
0x000000008000cdee:  7a42              ld              s4,48(sp)
0x000000008000cdf0:  7aa2              ld              s5,40(sp)
0x000000008000cdf2:  7b02              ld              s6,32(sp)
0x000000008000cdf4:  6be2              ld              s7,24(sp)
0x000000008000cdf6:  6125              addi            sp,sp,96
0x000000008000cdf8:  8082              ret             

----------------
IN: 
Priv: 3; Virt: 0
0x00000000800027e4:  8526              mv              a0,s1
0x00000000800027e6:  28b0a0ef          jal             ra,43658        # 0x8000d270

----------------
IN: 
Priv: 3; Virt: 0
0x000000008000d270:  1101              addi            sp,sp,-32
0x000000008000d272:  ec06              sd              ra,24(sp)
0x000000008000d274:  e822              sd              s0,16(sp)
0x000000008000d276:  e426              sd              s1,8(sp)
0x000000008000d278:  1000              addi            s0,sp,32
0x000000008000d27a:  00004597          auipc           a1,16384        # 0x8001127a
0x000000008000d27e:  54e58593          addi            a1,a1,1358
0x000000008000d282:  84aa              mv              s1,a0
0x000000008000d284:  b77ff0ef          jal             ra,-1162        # 0x8000cdfa

----------------
IN: 
Priv: 3; Virt: 0
0x000000008000cdfa:  7179              addi            sp,sp,-48
0x000000008000cdfc:  f022              sd              s0,32(sp)
0x000000008000cdfe:  ec26              sd              s1,24(sp)
0x000000008000ce00:  f406              sd              ra,40(sp)
0x000000008000ce02:  1800              addi            s0,sp,48
0x000000008000ce04:  862e              mv              a2,a1
0x000000008000ce06:  4581              mv              a1,zero
0x000000008000ce08:  84aa              mv              s1,a0
0x000000008000ce0a:  9fefe0ef          jal             ra,-7682        # 0x8000b008

----------------
IN: 
Priv: 3; Virt: 0
0x000000008000ce0e:  06054d63          bltz            a0,122          # 0x8000ce88

----------------
IN: 
Priv: 3; Virt: 0
0x000000008000ce12:  85aa              mv              a1,a0
0x000000008000ce14:  fdc40693          addi            a3,s0,-36
0x000000008000ce18:  00005617          auipc           a2,20480        # 0x80011e18
0x000000008000ce1c:  99860613          addi            a2,a2,-1640
0x000000008000ce20:  8526              mv              a0,s1
0x000000008000ce22:  987fd0ef          jal             ra,-9850        # 0x8000a7a8

----------------
IN: 
Priv: 3; Virt: 0
0x000000008000ce26:  c12d              beqz            a0,98           # 0x8000ce88

----------------
IN: 
Priv: 3; Virt: 0
0x000000008000ce28:  fdc42783          lw              a5,-36(s0)
0x000000008000ce2c:  4705              addi            a4,zero,1
0x000000008000ce2e:  8789              srai            a5,a5,2
0x000000008000ce30:  fcf42e23          sw              a5,-36(s0)
0x000000008000ce34:  04f75a63          ble             a5,a4,84        # 0x8000ce88

----------------
IN: 
Priv: 3; Virt: 0
0x000000008000ce38:  0511              addi            a0,a0,4
0x000000008000ce3a:  4581              mv              a1,zero
0x000000008000ce3c:  482d              addi            a6,zero,11
0x000000008000ce3e:  58fd              addi            a7,zero,-1
0x000000008000ce40:  4118              lw              a4,0(a0)
0x000000008000ce42:  2585              addiw           a1,a1,1
0x000000008000ce44:  00875613          srli            a2,a4,8
0x000000008000ce48:  0ff67613          andi            a2,a2,255
0x000000008000ce4c:  0187179b          slliw           a5,a4,24
0x000000008000ce50:  01075693          srli            a3,a4,16
0x000000008000ce54:  0106161b          slliw           a2,a2,16
0x000000008000ce58:  0187571b          srliw           a4,a4,24
0x000000008000ce5c:  8fd1              or              a5,a5,a2
0x000000008000ce5e:  0ff6f693          andi            a3,a3,255
0x000000008000ce62:  8fd9              or              a5,a5,a4
0x000000008000ce64:  0086971b          slliw           a4,a3,8
0x000000008000ce68:  8fd9              or              a5,a5,a4
0x000000008000ce6a:  2781              sext.w          a5,a5
0x000000008000ce6c:  01079463          bne             a5,a6,8         # 0x8000ce74

----------------
IN: 
Priv: 3; Virt: 0
0x000000008000ce70:  01152023          sw              a7,0(a0)
0x000000008000ce74:  fdc42703          lw              a4,-36(s0)
0x000000008000ce78:  0521              addi            a0,a0,8
0x000000008000ce7a:  01f7579b          srliw           a5,a4,31
0x000000008000ce7e:  9fb9              addw            a5,a5,a4
0x000000008000ce80:  4017d79b          sraiw           a5,a5,1
0x000000008000ce84:  faf5cee3          bgt             a5,a1,-68       # 0x8000ce40

----------------
IN: 
Priv: 3; Virt: 0
0x000000008000ce40:  4118              lw              a4,0(a0)
0x000000008000ce42:  2585              addiw           a1,a1,1
0x000000008000ce44:  00875613          srli            a2,a4,8
0x000000008000ce48:  0ff67613          andi            a2,a2,255
0x000000008000ce4c:  0187179b          slliw           a5,a4,24
0x000000008000ce50:  01075693          srli            a3,a4,16
0x000000008000ce54:  0106161b          slliw           a2,a2,16
0x000000008000ce58:  0187571b          srliw           a4,a4,24
0x000000008000ce5c:  8fd1              or              a5,a5,a2
0x000000008000ce5e:  0ff6f693          andi            a3,a3,255
0x000000008000ce62:  8fd9              or              a5,a5,a4
0x000000008000ce64:  0086971b          slliw           a4,a3,8
0x000000008000ce68:  8fd9              or              a5,a5,a4
0x000000008000ce6a:  2781              sext.w          a5,a5
0x000000008000ce6c:  01079463          bne             a5,a6,8         # 0x8000ce74

----------------
IN: 
Priv: 3; Virt: 0
0x000000008000ce74:  fdc42703          lw              a4,-36(s0)
0x000000008000ce78:  0521              addi            a0,a0,8
0x000000008000ce7a:  01f7579b          srliw           a5,a4,31
0x000000008000ce7e:  9fb9              addw            a5,a5,a4
0x000000008000ce80:  4017d79b          sraiw           a5,a5,1
0x000000008000ce84:  faf5cee3          bgt             a5,a1,-68       # 0x8000ce40

----------------
IN: 
Priv: 3; Virt: 0
0x000000008000ce88:  70a2              ld              ra,40(sp)
0x000000008000ce8a:  7402              ld              s0,32(sp)
0x000000008000ce8c:  64e2              ld              s1,24(sp)
0x000000008000ce8e:  6145              addi            sp,sp,48
0x000000008000ce90:  8082              ret             

----------------
IN: 
Priv: 3; Virt: 0
0x000000008000d288:  8526              mv              a0,s1
0x000000008000d28a:  c09ff0ef          jal             ra,-1016        # 0x8000ce92

----------------
IN: 
Priv: 3; Virt: 0
0x000000008000ce92:  7131              addi            sp,sp,-192
0x000000008000ce94:  f922              sd              s0,176(sp)
0x000000008000ce96:  e556              sd              s5,136(sp)
0x000000008000ce98:  fd06              sd              ra,184(sp)
0x000000008000ce9a:  f526              sd              s1,168(sp)
0x000000008000ce9c:  f14a              sd              s2,160(sp)
0x000000008000ce9e:  ed4e              sd              s3,152(sp)
0x000000008000cea0:  e952              sd              s4,144(sp)
0x000000008000cea2:  e15a              sd              s6,128(sp)
0x000000008000cea4:  fcde              sd              s7,120(sp)
0x000000008000cea6:  f8e2              sd              s8,112(sp)
0x000000008000cea8:  f4e6              sd              s9,104(sp)
0x000000008000ceaa:  f0ea              sd              s10,96(sp)
0x000000008000ceac:  ecee              sd              s11,88(sp)
0x000000008000ceae:  0180              addi            s0,sp,192
0x000000008000ceb0:  8aaa              mv              s5,a0
0x000000008000ceb2:  f1402773          csrrs           a4,mhartid,zero

----------------
IN: 
Priv: 3; Virt: 0
0x000000008000ceb6:  02071793          slli            a5,a4,32
0x000000008000ceba:  01d7d713          srli            a4,a5,29
0x000000008000cebe:  00007797          auipc           a5,28672        # 0x80013ebe
0x000000008000cec2:  b9a78793          addi            a5,a5,-1126
0x000000008000cec6:  97ba              add             a5,a5,a4
0x000000008000cec8:  0007b903          ld              s2,0(a5)
0x000000008000cecc:  34002cf3          csrrs           s9,mscratch,zero

----------------
IN: 
Priv: 3; Virt: 0
0x000000008000ced0:  4581              mv              a1,zero
0x000000008000ced2:  3b2010ef          jal             ra,5042         # 0x8000e284

----------------
IN: 
Priv: 3; Virt: 0
0x000000008000ced6:  4581              mv              a1,zero
0x000000008000ced8:  84aa              mv              s1,a0
0x000000008000ceda:  8556              mv              a0,s5
0x000000008000cedc:  422010ef          jal             ra,5154         # 0x8000e2fe

----------------
IN: 
Priv: 3; Virt: 0
0x000000008000cee0:  004ac603          lbu             a2,4(s5)
0x000000008000cee4:  005ac703          lbu             a4,5(s5)
0x000000008000cee8:  007ac583          lbu             a1,7(s5)
0x000000008000ceec:  006ac783          lbu             a5,6(s5)
0x000000008000cef0:  0107171b          slliw           a4,a4,16
0x000000008000cef4:  0186161b          slliw           a2,a2,24
0x000000008000cef8:  8e59              or              a2,a2,a4
0x000000008000cefa:  8e4d              or              a2,a2,a1
0x000000008000cefc:  0087979b          slliw           a5,a5,8
0x000000008000cf00:  8e5d              or              a2,a2,a5
0x000000008000cf02:  89aa              mv              s3,a0
0x000000008000cf04:  4006061b          addiw           a2,a2,1024
0x000000008000cf08:  85d6              mv              a1,s5
0x000000008000cf0a:  8556              mv              a0,s5
0x000000008000cf0c:  50a020ef          jal             ra,9482         # 0x8000f416

----------------
IN: 
Priv: 3; Virt: 0
0x000000008000cf10:  8daa              mv              s11,a0
0x000000008000cf12:  1c054063          bltz            a0,448          # 0x8000d0d2

----------------
IN: 
Priv: 3; Virt: 0
0x000000008000cf16:  00005597          auipc           a1,20480        # 0x80011f16
0x000000008000cf1a:  ada58593          addi            a1,a1,-1318
0x000000008000cf1e:  8556              mv              a0,s5
0x000000008000cf20:  f76fd0ef          jal             ra,-10378       # 0x8000a696

----------------
IN: 
Priv: 3; Virt: 0
0x000000008000a2d6:  54fd              addi            s1,zero,-1
0x000000008000a2d8:  b7d5              j               -28             # 0x8000a2bc

----------------
IN: 
Priv: 3; Virt: 0
0x000000008000cf24:  8daa              mv              s11,a0
0x000000008000cf26:  1c054663          bltz            a0,460          # 0x8000d0f2

----------------
IN: 
Priv: 3; Virt: 0
0x000000008000d0f2:  00005617          auipc           a2,20480        # 0x800120f2
0x000000008000d0f6:  91660613          addi            a2,a2,-1770
0x000000008000d0fa:  4581              mv              a1,zero
0x000000008000d0fc:  8556              mv              a0,s5
0x000000008000d0fe:  272020ef          jal             ra,8818         # 0x8000f370

----------------
IN: 
Priv: 3; Virt: 0
0x000000008000f370:  7179              addi            sp,sp,-48
0x000000008000f372:  f406              sd              ra,40(sp)
0x000000008000f374:  f022              sd              s0,32(sp)
0x000000008000f376:  ec26              sd              s1,24(sp)
0x000000008000f378:  e84a              sd              s2,16(sp)
0x000000008000f37a:  e44e              sd              s3,8(sp)
0x000000008000f37c:  1800              addi            s0,sp,48
0x000000008000f37e:  892a              mv              s2,a0
0x000000008000f380:  8532              mv              a0,a2
0x000000008000f382:  84b2              mv              s1,a2
0x000000008000f384:  89ae              mv              s3,a1
0x000000008000f386:  9aaf20ef          jal             ra,-56918       # 0x80001530

----------------
IN: 
Priv: 3; Virt: 0
0x000000008000f38a:  0005069b          sext.w          a3,a0
0x000000008000f38e:  8626              mv              a2,s1
0x000000008000f390:  85ce              mv              a1,s3
0x000000008000f392:  854a              mv              a0,s2
0x000000008000f394:  eedff0ef          jal             ra,-276         # 0x8000f280

----------------
IN: 
Priv: 3; Virt: 0
0x000000008000f280:  715d              addi            sp,sp,-80
0x000000008000f282:  e0a2              sd              s0,64(sp)
0x000000008000f284:  fc26              sd              s1,56(sp)
0x000000008000f286:  f84a              sd              s2,48(sp)
0x000000008000f288:  f44e              sd              s3,40(sp)
0x000000008000f28a:  f052              sd              s4,32(sp)
0x000000008000f28c:  e486              sd              ra,72(sp)
0x000000008000f28e:  ec56              sd              s5,24(sp)
0x000000008000f290:  e85a              sd              s6,16(sp)
0x000000008000f292:  0880              addi            s0,sp,80
0x000000008000f294:  84aa              mv              s1,a0
0x000000008000f296:  89ae              mv              s3,a1
0x000000008000f298:  8a32              mv              s4,a2
0x000000008000f29a:  8936              mv              s2,a3
0x000000008000f29c:  baaff0ef          jal             ra,-3158        # 0x8000e646

----------------
IN: 
Priv: 3; Virt: 0
0x000000008000e646:  1101              addi            sp,sp,-32
0x000000008000e648:  e822              sd              s0,16(sp)
0x000000008000e64a:  e426              sd              s1,8(sp)
0x000000008000e64c:  ec06              sd              ra,24(sp)
0x000000008000e64e:  e04a              sd              s2,0(sp)
0x000000008000e650:  1000              addi            s0,sp,32
0x000000008000e652:  84aa              mv              s1,a0
0x000000008000e654:  dd3fa0ef          jal             ra,-21038       # 0x80009426

----------------
IN: 
Priv: 3; Virt: 0
0x000000008000e658:  06054763          bltz            a0,110          # 0x8000e6c6

----------------
IN: 
Priv: 3; Virt: 0
0x000000008000e65c:  0154c903          lbu             s2,21(s1)
0x000000008000e660:  0144c703          lbu             a4,20(s1)
0x000000008000e664:  0174c683          lbu             a3,23(s1)
0x000000008000e668:  0164c783          lbu             a5,22(s1)
0x000000008000e66c:  0109191b          slliw           s2,s2,16
0x000000008000e670:  0187171b          slliw           a4,a4,24
0x000000008000e674:  00e96933          or              s2,s2,a4
0x000000008000e678:  0087979b          slliw           a5,a5,8
0x000000008000e67c:  00d96933          or              s2,s2,a3
0x000000008000e680:  00f96933          or              s2,s2,a5
0x000000008000e684:  2901              sext.w          s2,s2
0x000000008000e686:  47c1              addi            a5,zero,16
0x000000008000e688:  0527f563          bleu            s2,a5,74        # 0x8000e6d2

----------------
IN: 
Priv: 3; Virt: 0
0x000000008000e68c:  0244c603          lbu             a2,36(s1)
0x000000008000e690:  0254c703          lbu             a4,37(s1)
0x000000008000e694:  0274c683          lbu             a3,39(s1)
0x000000008000e698:  0264c783          lbu             a5,38(s1)
0x000000008000e69c:  0186161b          slliw           a2,a2,24
0x000000008000e6a0:  0107171b          slliw           a4,a4,16
0x000000008000e6a4:  8e59              or              a2,a2,a4
0x000000008000e6a6:  8e55              or              a2,a2,a3
0x000000008000e6a8:  0087979b          slliw           a5,a5,8
0x000000008000e6ac:  8e5d              or              a2,a2,a5
0x000000008000e6ae:  2601              sext.w          a2,a2
0x000000008000e6b0:  45c1              addi            a1,zero,16
0x000000008000e6b2:  8526              mv              a0,s1
0x000000008000e6b4:  e9dff0ef          jal             ra,-356         # 0x8000e550

----------------
IN: 
Priv: 3; Virt: 0
0x000000008000e6b8:  ed19              bnez            a0,30           # 0x8000e6d6

----------------
IN: 
Priv: 3; Virt: 0
0x000000008000e6ba:  47c5              addi            a5,zero,17
0x000000008000e6bc:  00f90563          beq             s2,a5,10        # 0x8000e6c6

----------------
IN: 
Priv: 3; Virt: 0
0x000000008000e6c6:  60e2              ld              ra,24(sp)
0x000000008000e6c8:  6442              ld              s0,16(sp)
0x000000008000e6ca:  64a2              ld              s1,8(sp)
0x000000008000e6cc:  6902              ld              s2,0(sp)
0x000000008000e6ce:  6105              addi            sp,sp,32
0x000000008000e6d0:  8082              ret             

----------------
IN: 
Priv: 3; Virt: 0
0x000000008000f2a0:  c919              beqz            a0,22           # 0x8000f2b6

----------------
IN: 
Priv: 3; Virt: 0
0x000000008000f2b6:  86ca              mv              a3,s2
0x000000008000f2b8:  8652              mv              a2,s4
0x000000008000f2ba:  85ce              mv              a1,s3
0x000000008000f2bc:  8526              mv              a0,s1
0x000000008000f2be:  f81fa0ef          jal             ra,-20608       # 0x8000a23e

----------------
IN: 
Priv: 3; Virt: 0
0x000000008000f2c2:  0a055563          bgez            a0,170          # 0x8000f36c

----------------
IN: 
Priv: 3; Virt: 0
0x000000008000f2c6:  57fd              addi            a5,zero,-1
0x000000008000f2c8:  fcf51de3          bne             a0,a5,-38       # 0x8000f2a2

----------------
IN: 
Priv: 3; Virt: 0
0x000000008000f2cc:  fbc40613          addi            a2,s0,-68
0x000000008000f2d0:  85ce              mv              a1,s3
0x000000008000f2d2:  8526              mv              a0,s1
0x000000008000f2d4:  dd0fa0ef          jal             ra,-23088       # 0x800098a4

----------------
IN: 
Priv: 3; Virt: 0
0x000000008000f2d8:  4a85              addi            s5,zero,1
0x000000008000f2da:  fbc42983          lw              s3,-68(s0)
0x000000008000f2de:  fbc40613          addi            a2,s0,-68
0x000000008000f2e2:  8526              mv              a0,s1
0x000000008000f2e4:  85ce              mv              a1,s3
0x000000008000f2e6:  dbefa0ef          jal             ra,-23106       # 0x800098a4

----------------
IN: 
Priv: 3; Virt: 0
0x000000008000f2ea:  3575              addiw           a0,a0,-3
0x000000008000f2ec:  feaaf7e3          bleu            a0,s5,-18       # 0x8000f2da

----------------
IN: 
Priv: 3; Virt: 0
0x000000008000f2da:  fbc42983          lw              s3,-68(s0)
0x000000008000f2de:  fbc40613          addi            a2,s0,-68
0x000000008000f2e2:  8526              mv              a0,s1
0x000000008000f2e4:  85ce              mv              a1,s3
0x000000008000f2e6:  dbefa0ef          jal             ra,-23106       # 0x800098a4

----------------
IN: 
Priv: 3; Virt: 0
0x000000008000f2f0:  0084ca83          lbu             s5,8(s1)
0x000000008000f2f4:  0094c703          lbu             a4,9(s1)
0x000000008000f2f8:  00b4c683          lbu             a3,11(s1)
0x000000008000f2fc:  00a4c783          lbu             a5,10(s1)
0x000000008000f300:  018a9a9b          slliw           s5,s5,24
0x000000008000f304:  0107171b          slliw           a4,a4,16
0x000000008000f308:  00eaeab3          or              s5,s5,a4
0x000000008000f30c:  00daeab3          or              s5,s5,a3
0x000000008000f310:  0087979b          slliw           a5,a5,8
0x000000008000f314:  00faeab3          or              s5,s5,a5
0x000000008000f318:  1a82              slli            s5,s5,32
0x000000008000f31a:  020ada93          srli            s5,s5,32
0x000000008000f31e:  00490b1b          addiw           s6,s2,4
0x000000008000f322:  9ace              add             s5,s5,s3
0x000000008000f324:  ffcb7b13          andi            s6,s6,-4
0x000000008000f328:  9aa6              add             s5,s5,s1
0x000000008000f32a:  2b21              addiw           s6,s6,8
0x000000008000f32c:  86da              mv              a3,s6
0x000000008000f32e:  4601              mv              a2,zero
0x000000008000f330:  85d6              mv              a1,s5
0x000000008000f332:  8526              mv              a0,s1
0x000000008000f334:  f26ff0ef          jal             ra,-2266        # 0x8000ea5a

----------------
IN: 
Priv: 3; Virt: 0
0x000000008000ea5a:  7179              addi            sp,sp,-48
0x000000008000ea5c:  f022              sd              s0,32(sp)
0x000000008000ea5e:  ec26              sd              s1,24(sp)
0x000000008000ea60:  e84a              sd              s2,16(sp)
0x000000008000ea62:  e44e              sd              s3,8(sp)
0x000000008000ea64:  f406              sd              ra,40(sp)
0x000000008000ea66:  1800              addi            s0,sp,48
0x000000008000ea68:  84aa              mv              s1,a0
0x000000008000ea6a:  89b2              mv              s3,a2
0x000000008000ea6c:  8936              mv              s2,a3
0x000000008000ea6e:  e3dff0ef          jal             ra,-452         # 0x8000e8aa

----------------
IN: 
Priv: 3; Virt: 0
0x000000008000e8aa:  87aa              mv              a5,a0
0x000000008000e8ac:  00c54703          lbu             a4,12(a0)
0x000000008000e8b0:  00d54e03          lbu             t3,13(a0)
0x000000008000e8b4:  0217c303          lbu             t1,33(a5)
0x000000008000e8b8:  02054503          lbu             a0,32(a0)
0x000000008000e8bc:  00f7cf03          lbu             t5,15(a5)
0x000000008000e8c0:  00e7c883          lbu             a7,14(a5)
0x000000008000e8c4:  0237ce83          lbu             t4,35(a5)
0x000000008000e8c8:  0227c803          lbu             a6,34(a5)
0x000000008000e8cc:  0187171b          slliw           a4,a4,24
0x000000008000e8d0:  010e1e1b          slliw           t3,t3,16
0x000000008000e8d4:  0185151b          slliw           a0,a0,24
0x000000008000e8d8:  0103131b          slliw           t1,t1,16
0x000000008000e8dc:  01c76733          or              a4,a4,t3
0x000000008000e8e0:  00656533          or              a0,a0,t1
0x000000008000e8e4:  01e76733          or              a4,a4,t5
0x000000008000e8e8:  0088989b          slliw           a7,a7,8
0x000000008000e8ec:  01d56533          or              a0,a0,t4
0x000000008000e8f0:  0088181b          slliw           a6,a6,8
0x000000008000e8f4:  01176733          or              a4,a4,a7
0x000000008000e8f8:  01056833          or              a6,a0,a6
0x000000008000e8fc:  0107073b          addw            a4,a4,a6
0x000000008000e900:  973e              add             a4,a4,a5
0x000000008000e902:  06064863          bltz            a2,112          # 0x8000e972

----------------
IN: 
Priv: 3; Virt: 0
0x000000008000e906:  88ae              mv              a7,a1
0x000000008000e908:  95b2              add             a1,a1,a2
0x000000008000e90a:  06b76463          bgtu            a1,a4,104       # 0x8000e972

----------------
IN: 
Priv: 3; Virt: 0
0x000000008000e90e:  06f8e263          bgtu            a5,a7,100       # 0x8000e972

----------------
IN: 
Priv: 3; Virt: 0
0x000000008000e912:  40c68533          sub             a0,a3,a2
0x000000008000e916:  953a              add             a0,a0,a4
0x000000008000e918:  04f56d63          bgtu            a5,a0,90        # 0x8000e972

----------------
IN: 
Priv: 3; Virt: 0
0x000000008000e91c:  0047c803          lbu             a6,4(a5)
0x000000008000e920:  0057ce03          lbu             t3,5(a5)
0x000000008000e924:  0077ce83          lbu             t4,7(a5)
0x000000008000e928:  0067c303          lbu             t1,6(a5)
0x000000008000e92c:  0188181b          slliw           a6,a6,24
0x000000008000e930:  010e1e1b          slliw           t3,t3,16
0x000000008000e934:  01c86833          or              a6,a6,t3
0x000000008000e938:  01d86833          or              a6,a6,t4
0x000000008000e93c:  0083131b          slliw           t1,t1,8
0x000000008000e940:  00686833          or              a6,a6,t1
0x000000008000e944:  1802              slli            a6,a6,32
0x000000008000e946:  02085813          srli            a6,a6,32
0x000000008000e94a:  97c2              add             a5,a5,a6
0x000000008000e94c:  02a7e563          bgtu            a0,a5,42        # 0x8000e976

----------------
IN: 
Priv: 3; Virt: 0
0x000000008000e950:  1141              addi            sp,sp,-16
0x000000008000e952:  e022              sd              s0,0(sp)
0x000000008000e954:  e406              sd              ra,8(sp)
0x000000008000e956:  0800              addi            s0,sp,16
0x000000008000e958:  41170733          sub             a4,a4,a7
0x000000008000e95c:  40c70633          sub             a2,a4,a2
0x000000008000e960:  00d88533          add             a0,a7,a3
0x000000008000e964:  d35f20ef          jal             ra,-53964       # 0x80001698

----------------
IN: 
Priv: 3; Virt: 0
0x00000000800016a2:  02b57063          bleu            a1,a0,32        # 0x800016c2

----------------
IN: 
Priv: 3; Virt: 0
0x00000000800016c2:  fff60713          addi            a4,a2,-1
0x00000000800016c6:  00e507b3          add             a5,a0,a4
0x00000000800016ca:  95ba              add             a1,a1,a4
0x00000000800016cc:  da65              beqz            a2,-16          # 0x800016bc

----------------
IN: 
Priv: 3; Virt: 0
0x00000000800016ce:  fff50693          addi            a3,a0,-1
0x00000000800016d2:  0005c703          lbu             a4,0(a1)
0x00000000800016d6:  17fd              addi            a5,a5,-1
0x00000000800016d8:  15fd              addi            a1,a1,-1
0x00000000800016da:  00e780a3          sb              a4,1(a5)
0x00000000800016de:  fef69ae3          bne             a3,a5,-12       # 0x800016d2

----------------
IN: 
Priv: 3; Virt: 0
0x00000000800016d2:  0005c703          lbu             a4,0(a1)
0x00000000800016d6:  17fd              addi            a5,a5,-1
0x00000000800016d8:  15fd              addi            a1,a1,-1
0x00000000800016da:  00e780a3          sb              a4,1(a5)
0x00000000800016de:  fef69ae3          bne             a3,a5,-12       # 0x800016d2

----------------
IN: 
Priv: 3; Virt: 0
0x00000000800016e2:  6422              ld              s0,8(sp)
0x00000000800016e4:  0141              addi            sp,sp,16
0x00000000800016e6:  8082              ret             

----------------
IN: 
Priv: 3; Virt: 0
0x000000008000e968:  60a2              ld              ra,8(sp)
0x000000008000e96a:  6402              ld              s0,0(sp)
0x000000008000e96c:  4501              mv              a0,zero
0x000000008000e96e:  0141              addi            sp,sp,16
0x000000008000e970:  8082              ret             

----------------
IN: 
Priv: 3; Virt: 0
0x000000008000ea72:  e55d              bnez            a0,174          # 0x8000eb20

----------------
IN: 
Priv: 3; Virt: 0
0x000000008000ea74:  0244c783          lbu             a5,36(s1)
0x000000008000ea78:  0254c803          lbu             a6,37(s1)
0x000000008000ea7c:  00c4c683          lbu             a3,12(s1)
0x000000008000ea80:  00d4c583          lbu             a1,13(s1)
0x000000008000ea84:  0274c303          lbu             t1,39(s1)
0x000000008000ea88:  00f4c883          lbu             a7,15(s1)
0x000000008000ea8c:  0264c603          lbu             a2,38(s1)
0x000000008000ea90:  00e4c703          lbu             a4,14(s1)
0x000000008000ea94:  0108181b          slliw           a6,a6,16
0x000000008000ea98:  0105959b          slliw           a1,a1,16
0x000000008000ea9c:  0187979b          slliw           a5,a5,24
0x000000008000eaa0:  0186969b          slliw           a3,a3,24
0x000000008000eaa4:  0107e7b3          or              a5,a5,a6
0x000000008000eaa8:  8ecd              or              a3,a3,a1
0x000000008000eaaa:  0067e7b3          or              a5,a5,t1
0x000000008000eaae:  0086161b          slliw           a2,a2,8
0x000000008000eab2:  0116e6b3          or              a3,a3,a7
0x000000008000eab6:  0087171b          slliw           a4,a4,8
0x000000008000eaba:  8fd1              or              a5,a5,a2
0x000000008000eabc:  8ed9              or              a3,a3,a4
0x000000008000eabe:  4139093b          subw            s2,s2,s3
0x000000008000eac2:  0127883b          addw            a6,a5,s2
0x000000008000eac6:  012685bb          addw            a1,a3,s2
0x000000008000eaca:  00885313          srli            t1,a6,8
0x000000008000eace:  0085d893          srli            a7,a1,8
0x000000008000ead2:  0ff37313          andi            t1,t1,255
0x000000008000ead6:  0ff8f893          andi            a7,a7,255
0x000000008000eada:  0188179b          slliw           a5,a6,24
0x000000008000eade:  01085613          srli            a2,a6,16
0x000000008000eae2:  0185969b          slliw           a3,a1,24
0x000000008000eae6:  0105d713          srli            a4,a1,16
0x000000008000eaea:  0103131b          slliw           t1,t1,16
0x000000008000eaee:  0108989b          slliw           a7,a7,16
0x000000008000eaf2:  0067e7b3          or              a5,a5,t1
0x000000008000eaf6:  0188581b          srliw           a6,a6,24
0x000000008000eafa:  0ff67613          andi            a2,a2,255
0x000000008000eafe:  0116e6b3          or              a3,a3,a7
0x000000008000eb02:  0185d59b          srliw           a1,a1,24
0x000000008000eb06:  0ff77713          andi            a4,a4,255
0x000000008000eb0a:  0107e7b3          or              a5,a5,a6
0x000000008000eb0e:  0086161b          slliw           a2,a2,8
0x000000008000eb12:  8ecd              or              a3,a3,a1
0x000000008000eb14:  0087171b          slliw           a4,a4,8
0x000000008000eb18:  8fd1              or              a5,a5,a2
0x000000008000eb1a:  8ed9              or              a3,a3,a4
0x000000008000eb1c:  d0dc              sw              a5,36(s1)
0x000000008000eb1e:  c4d4              sw              a3,12(s1)
0x000000008000eb20:  70a2              ld              ra,40(sp)
0x000000008000eb22:  7402              ld              s0,32(sp)
0x000000008000eb24:  64e2              ld              s1,24(sp)
0x000000008000eb26:  6942              ld              s2,16(sp)
0x000000008000eb28:  69a2              ld              s3,8(sp)
0x000000008000eb2a:  6145              addi            sp,sp,48
0x000000008000eb2c:  8082              ret             

----------------
IN: 
Priv: 3; Virt: 0
0x000000008000f338:  f52d              bnez            a0,-150         # 0x8000f2a2

----------------
IN: 
Priv: 3; Virt: 0
0x000000008000f33a:  010007b7          lui             a5,16777216
0x000000008000f33e:  004a8493          addi            s1,s5,4
0x000000008000f342:  00490613          addi            a2,s2,4
0x000000008000f346:  00faa023          sw              a5,0(s5)
0x000000008000f34a:  9a71              andi            a2,a2,-4
0x000000008000f34c:  4581              mv              a1,zero
0x000000008000f34e:  8526              mv              a0,s1
0x000000008000f350:  b04f20ef          jal             ra,-56572       # 0x80001654

----------------
IN: 
Priv: 3; Virt: 0
0x000000008000f354:  864a              mv              a2,s2
0x000000008000f356:  85d2              mv              a1,s4
0x000000008000f358:  8526              mv              a0,s1
0x000000008000f35a:  b1cf20ef          jal             ra,-56548       # 0x80001676

----------------
IN: 
Priv: 3; Virt: 0
0x0000000080001676:  1141              addi            sp,sp,-16
0x0000000080001678:  e422              sd              s0,8(sp)
0x000000008000167a:  0800              addi            s0,sp,16
0x000000008000167c:  ca19              beqz            a2,22           # 0x80001692

----------------
IN: 
Priv: 3; Virt: 0
0x000000008000167e:  962a              add             a2,a2,a0
0x0000000080001680:  87aa              mv              a5,a0
0x0000000080001682:  0005c703          lbu             a4,0(a1)
0x0000000080001686:  0785              addi            a5,a5,1
0x0000000080001688:  0585              addi            a1,a1,1
0x000000008000168a:  fee78fa3          sb              a4,-1(a5)
0x000000008000168e:  fec79ae3          bne             a5,a2,-12       # 0x80001682

----------------
IN: 
Priv: 3; Virt: 0
0x0000000080001682:  0005c703          lbu             a4,0(a1)
0x0000000080001686:  0785              addi            a5,a5,1
0x0000000080001688:  0585              addi            a1,a1,1
0x000000008000168a:  fee78fa3          sb              a4,-1(a5)
0x000000008000168e:  fec79ae3          bne             a5,a2,-12       # 0x80001682

----------------
IN: 
Priv: 3; Virt: 0
0x0000000080001692:  6422              ld              s0,8(sp)
0x0000000080001694:  0141              addi            sp,sp,16
0x0000000080001696:  8082              ret             

----------------
IN: 
Priv: 3; Virt: 0
0x000000008000f35e:  9ada              add             s5,s5,s6
0x000000008000f360:  020007b7          lui             a5,33554432
0x000000008000f364:  fefaae23          sw              a5,-4(s5)
0x000000008000f368:  854e              mv              a0,s3
0x000000008000f36a:  bf25              j               -200            # 0x8000f2a2

----------------
IN: 
Priv: 3; Virt: 0
0x000000008000f2a2:  60a6              ld              ra,72(sp)
0x000000008000f2a4:  6406              ld              s0,64(sp)
0x000000008000f2a6:  74e2              ld              s1,56(sp)
0x000000008000f2a8:  7942              ld              s2,48(sp)
0x000000008000f2aa:  79a2              ld              s3,40(sp)
0x000000008000f2ac:  7a02              ld              s4,32(sp)
0x000000008000f2ae:  6ae2              ld              s5,24(sp)
0x000000008000f2b0:  6b42              ld              s6,16(sp)
0x000000008000f2b2:  6161              addi            sp,sp,80
0x000000008000f2b4:  8082              ret             

----------------
IN: 
Priv: 3; Virt: 0
0x000000008000f398:  70a2              ld              ra,40(sp)
0x000000008000f39a:  7402              ld              s0,32(sp)
0x000000008000f39c:  64e2              ld              s1,24(sp)
0x000000008000f39e:  6942              ld              s2,16(sp)
0x000000008000f3a0:  69a2              ld              s3,8(sp)
0x000000008000f3a2:  6145              addi            sp,sp,48
0x000000008000f3a4:  8082              ret             

----------------
IN: 
Priv: 3; Virt: 0
0x000000008000d102:  8daa              mv              s11,a0
0x000000008000d104:  fc0547e3          bltz            a0,-50          # 0x8000d0d2

----------------
IN: 
Priv: 3; Virt: 0
0x000000008000d108:  85aa              mv              a1,a0
0x000000008000d10a:  4701              mv              a4,zero
0x000000008000d10c:  4681              mv              a3,zero
0x000000008000d10e:  00005617          auipc           a2,20480        # 0x8001210e
0x000000008000d112:  84260613          addi            a2,a2,-1982
0x000000008000d116:  8556              mv              a0,s5
0x000000008000d118:  7cf010ef          jal             ra,8142         # 0x8000f0e6

----------------
IN: 
Priv: 3; Virt: 0
0x000000008000f0e6:  7139              addi            sp,sp,-64
0x000000008000f0e8:  f822              sd              s0,48(sp)
0x000000008000f0ea:  f426              sd              s1,40(sp)
0x000000008000f0ec:  f04a              sd              s2,32(sp)
0x000000008000f0ee:  ec4e              sd              s3,24(sp)
0x000000008000f0f0:  0080              addi            s0,sp,64
0x000000008000f0f2:  fc06              sd              ra,56(sp)
0x000000008000f0f4:  893a              mv              s2,a4
0x000000008000f0f6:  89b6              mv              s3,a3
0x000000008000f0f8:  fc840713          addi            a4,s0,-56
0x000000008000f0fc:  86ca              mv              a3,s2
0x000000008000f0fe:  f07ff0ef          jal             ra,-250         # 0x8000f004

----------------
IN: 
Priv: 3; Virt: 0
0x000000008000f004:  711d              addi            sp,sp,-96
0x000000008000f006:  e8a2              sd              s0,80(sp)
0x000000008000f008:  e4a6              sd              s1,72(sp)
0x000000008000f00a:  fc4e              sd              s3,56(sp)
0x000000008000f00c:  f852              sd              s4,48(sp)
0x000000008000f00e:  f456              sd              s5,40(sp)
0x000000008000f010:  f05a              sd              s6,32(sp)
0x000000008000f012:  ec5e              sd              s7,24(sp)
0x000000008000f014:  ec86              sd              ra,88(sp)
0x000000008000f016:  e0ca              sd              s2,64(sp)
0x000000008000f018:  e862              sd              s8,16(sp)
0x000000008000f01a:  1080              addi            s0,sp,96
0x000000008000f01c:  89aa              mv              s3,a0
0x000000008000f01e:  8aae              mv              s5,a1
0x000000008000f020:  8b32              mv              s6,a2
0x000000008000f022:  8a36              mv              s4,a3
0x000000008000f024:  8bba              mv              s7,a4
0x000000008000f026:  e20ff0ef          jal             ra,-2528        # 0x8000e646

----------------
IN: 
Priv: 3; Virt: 0
0x000000008000f02a:  84aa              mv              s1,a0
0x000000008000f02c:  cd11              beqz            a0,28           # 0x8000f048

----------------
IN: 
Priv: 3; Virt: 0
0x000000008000f048:  fa440693          addi            a3,s0,-92
0x000000008000f04c:  865a              mv              a2,s6
0x000000008000f04e:  85d6              mv              a1,s5
0x000000008000f050:  854e              mv              a0,s3
0x000000008000f052:  c38fb0ef          jal             ra,-19400       # 0x8000a48a

----------------
IN: 
Priv: 3; Virt: 0
0x000000008000a48a:  7179              addi            sp,sp,-48
0x000000008000a48c:  f022              sd              s0,32(sp)
0x000000008000a48e:  ec26              sd              s1,24(sp)
0x000000008000a490:  e84a              sd              s2,16(sp)
0x000000008000a492:  e44e              sd              s3,8(sp)
0x000000008000a494:  e052              sd              s4,0(sp)
0x000000008000a496:  f406              sd              ra,40(sp)
0x000000008000a498:  1800              addi            s0,sp,48
0x000000008000a49a:  84aa              mv              s1,a0
0x000000008000a49c:  8532              mv              a0,a2
0x000000008000a49e:  8932              mv              s2,a2
0x000000008000a4a0:  89b6              mv              s3,a3
0x000000008000a4a2:  8a2e              mv              s4,a1
0x000000008000a4a4:  88cf70ef          jal             ra,-36724       # 0x80001530

----------------
IN: 
Priv: 3; Virt: 0
0x000000008000a4a8:  0144c783          lbu             a5,20(s1)
0x000000008000a4ac:  0154c603          lbu             a2,21(s1)
0x000000008000a4b0:  0174c683          lbu             a3,23(s1)
0x000000008000a4b4:  0164c703          lbu             a4,22(s1)
0x000000008000a4b8:  0187979b          slliw           a5,a5,24
0x000000008000a4bc:  0106161b          slliw           a2,a2,16
0x000000008000a4c0:  8fd1              or              a5,a5,a2
0x000000008000a4c2:  0087171b          slliw           a4,a4,8
0x000000008000a4c6:  8fd5              or              a5,a5,a3
0x000000008000a4c8:  8fd9              or              a5,a5,a4
0x000000008000a4ca:  2781              sext.w          a5,a5
0x000000008000a4cc:  473d              addi            a4,zero,15
0x000000008000a4ce:  02f77363          bleu            a5,a4,38        # 0x8000a4f4

----------------
IN: 
Priv: 3; Virt: 0
0x000000008000a4d2:  0005069b          sext.w          a3,a0
0x000000008000a4d6:  4781              mv              a5,zero
0x000000008000a4d8:  874e              mv              a4,s3
0x000000008000a4da:  864a              mv              a2,s2
0x000000008000a4dc:  85d2              mv              a1,s4
0x000000008000a4de:  8526              mv              a0,s1
0x000000008000a4e0:  a17ff0ef          jal             ra,-1514        # 0x80009ef6

----------------
IN: 
Priv: 3; Virt: 0
0x000000008000a4e4:  70a2              ld              ra,40(sp)
0x000000008000a4e6:  7402              ld              s0,32(sp)
0x000000008000a4e8:  64e2              ld              s1,24(sp)
0x000000008000a4ea:  6942              ld              s2,16(sp)
0x000000008000a4ec:  69a2              ld              s3,8(sp)
0x000000008000a4ee:  6a02              ld              s4,0(sp)
0x000000008000a4f0:  6145              addi            sp,sp,48
0x000000008000a4f2:  8082              ret             

----------------
IN: 
Priv: 3; Virt: 0
0x000000008000f056:  faa43423          sd              a0,-88(s0)
0x000000008000f05a:  892a              mv              s2,a0
0x000000008000f05c:  cd21              beqz            a0,88           # 0x8000f0b4

----------------
IN: 
Priv: 3; Virt: 0
0x000000008000f0b4:  fa442503          lw              a0,-92(s0)
0x000000008000f0b8:  57fd              addi            a5,zero,-1
0x000000008000f0ba:  00f51a63          bne             a0,a5,20        # 0x8000f0ce

----------------
IN: 
Priv: 3; Virt: 0
0x000000008000f0be:  fa840713          addi            a4,s0,-88
0x000000008000f0c2:  86d2              mv              a3,s4
0x000000008000f0c4:  865a              mv              a2,s6
0x000000008000f0c6:  85d6              mv              a1,s5
0x000000008000f0c8:  854e              mv              a0,s3
0x000000008000f0ca:  a65ff0ef          jal             ra,-1436        # 0x8000eb2e

----------------
IN: 
Priv: 3; Virt: 0
0x000000008000eb2e:  7119              addi            sp,sp,-128
0x000000008000eb30:  f8a2              sd              s0,112(sp)
0x000000008000eb32:  f4a6              sd              s1,104(sp)
0x000000008000eb34:  ecce              sd              s3,88(sp)
0x000000008000eb36:  e8d2              sd              s4,80(sp)
0x000000008000eb38:  e4d6              sd              s5,72(sp)
0x000000008000eb3a:  e0da              sd              s6,64(sp)
0x000000008000eb3c:  fc86              sd              ra,120(sp)
0x000000008000eb3e:  f0ca              sd              s2,96(sp)
0x000000008000eb40:  fc5e              sd              s7,56(sp)
0x000000008000eb42:  f862              sd              s8,48(sp)
0x000000008000eb44:  f466              sd              s9,40(sp)
0x000000008000eb46:  f06a              sd              s10,32(sp)
0x000000008000eb48:  ec6e              sd              s11,24(sp)
0x000000008000eb4a:  0100              addi            s0,sp,128
0x000000008000eb4c:  84aa              mv              s1,a0
0x000000008000eb4e:  8a32              mv              s4,a2
0x000000008000eb50:  89b6              mv              s3,a3
0x000000008000eb52:  8aba              mv              s5,a4
0x000000008000eb54:  e97fa0ef          jal             ra,-20842       # 0x800099ea

----------------
IN: 
Priv: 3; Virt: 0
0x000000008000eb58:  8b2a              mv              s6,a0
0x000000008000eb5a:  12054263          bltz            a0,292          # 0x8000ec7e

----------------
IN: 
Priv: 3; Virt: 0
0x000000008000eb5e:  00c4c903          lbu             s2,12(s1)
0x000000008000eb62:  00d4c703          lbu             a4,13(s1)
0x000000008000eb66:  00f4c683          lbu             a3,15(s1)
0x000000008000eb6a:  00e4c783          lbu             a5,14(s1)
0x000000008000eb6e:  0107171b          slliw           a4,a4,16
0x000000008000eb72:  0189191b          slliw           s2,s2,24
0x000000008000eb76:  00e96933          or              s2,s2,a4
0x000000008000eb7a:  00d96933          or              s2,s2,a3
0x000000008000eb7e:  0087979b          slliw           a5,a5,8
0x000000008000eb82:  8552              mv              a0,s4
0x000000008000eb84:  00f96933          or              s2,s2,a5
0x000000008000eb88:  9a9f20ef          jal             ra,-54872       # 0x80001530

----------------
IN: 
Priv: 3; Virt: 0
0x000000008000eb8c:  0204c583          lbu             a1,32(s1)
0x000000008000eb90:  0214c703          lbu             a4,33(s1)
0x000000008000eb94:  0234c683          lbu             a3,35(s1)
0x000000008000eb98:  0224c783          lbu             a5,34(s1)
0x000000008000eb9c:  0185959b          slliw           a1,a1,24
0x000000008000eba0:  0107171b          slliw           a4,a4,16
0x000000008000eba4:  1902              slli            s2,s2,32
0x000000008000eba6:  8dd9              or              a1,a1,a4
0x000000008000eba8:  02095913          srli            s2,s2,32
0x000000008000ebac:  8dd5              or              a1,a1,a3
0x000000008000ebae:  0087979b          slliw           a5,a5,8
0x000000008000ebb2:  9926              add             s2,s2,s1
0x000000008000ebb4:  8ddd              or              a1,a1,a5
0x000000008000ebb6:  8baa              mv              s7,a0
0x000000008000ebb8:  8652              mv              a2,s4
0x000000008000ebba:  2581              sext.w          a1,a1
0x000000008000ebbc:  854a              mv              a0,s2
0x000000008000ebbe:  fe1fa0ef          jal             ra,-20512       # 0x80009b9e

----------------
IN: 
Priv: 3; Virt: 0
0x0000000080009b9e:  7179              addi            sp,sp,-48
0x0000000080009ba0:  f022              sd              s0,32(sp)
0x0000000080009ba2:  ec26              sd              s1,24(sp)
0x0000000080009ba4:  e84a              sd              s2,16(sp)
0x0000000080009ba6:  e44e              sd              s3,8(sp)
0x0000000080009ba8:  e052              sd              s4,0(sp)
0x0000000080009baa:  f406              sd              ra,40(sp)
0x0000000080009bac:  1800              addi            s0,sp,48
0x0000000080009bae:  84aa              mv              s1,a0
0x0000000080009bb0:  8532              mv              a0,a2
0x0000000080009bb2:  892e              mv              s2,a1
0x0000000080009bb4:  8a32              mv              s4,a2
0x0000000080009bb6:  97bf70ef          jal             ra,-34438       # 0x80001530

----------------
IN: 
Priv: 3; Virt: 0
0x0000000080009bba:  0015099b          addiw           s3,a0,1
0x0000000080009bbe:  41390933          sub             s2,s2,s3
0x0000000080009bc2:  9926              add             s2,s2,s1
0x0000000080009bc4:  00997663          bleu            s1,s2,12        # 0x80009bd0

----------------
IN: 
Priv: 3; Virt: 0
0x0000000080009bd0:  8526              mv              a0,s1
0x0000000080009bd2:  864e              mv              a2,s3
0x0000000080009bd4:  85d2              mv              a1,s4
0x0000000080009bd6:  b13f70ef          jal             ra,-34030       # 0x800016e8

----------------
IN: 
Priv: 3; Virt: 0
0x0000000080009bda:  f965              bnez            a0,-16          # 0x80009bca

----------------
IN: 
Priv: 3; Virt: 0
0x0000000080009bca:  0485              addi            s1,s1,1
0x0000000080009bcc:  02996163          bgtu            s1,s2,34        # 0x80009bee

----------------
IN: 
Priv: 3; Virt: 0
0x0000000080009bdc:  70a2              ld              ra,40(sp)
0x0000000080009bde:  7402              ld              s0,32(sp)
0x0000000080009be0:  6942              ld              s2,16(sp)
0x0000000080009be2:  69a2              ld              s3,8(sp)
0x0000000080009be4:  6a02              ld              s4,0(sp)
0x0000000080009be6:  8526              mv              a0,s1
0x0000000080009be8:  64e2              ld              s1,24(sp)
0x0000000080009bea:  6145              addi            sp,sp,48
0x0000000080009bec:  8082              ret             

----------------
IN: 
Priv: 3; Virt: 0
0x000000008000ebc2:  c165              beqz            a0,224          # 0x8000eca2

----------------
IN: 
Priv: 3; Virt: 0
0x000000008000ebc4:  41250bbb          subw            s7,a0,s2
0x000000008000ebc8:  4d01              mv              s10,zero
0x000000008000ebca:  0c0bca63          bltz            s7,212          # 0x8000ec9e

----------------
IN: 
Priv: 3; Virt: 0
0x000000008000ebce:  0084c583          lbu             a1,8(s1)
0x000000008000ebd2:  0094c703          lbu             a4,9(s1)
0x000000008000ebd6:  00b4c683          lbu             a3,11(s1)
0x000000008000ebda:  00a4c783          lbu             a5,10(s1)
0x000000008000ebde:  0107171b          slliw           a4,a4,16
0x000000008000ebe2:  0185959b          slliw           a1,a1,24
0x000000008000ebe6:  8dd9              or              a1,a1,a4
0x000000008000ebe8:  8dd5              or              a1,a1,a3
0x000000008000ebea:  0087979b          slliw           a5,a5,8
0x000000008000ebee:  8ddd              or              a1,a1,a5
0x000000008000ebf0:  1582              slli            a1,a1,32
0x000000008000ebf2:  9181              srli            a1,a1,32
0x000000008000ebf4:  95da              add             a1,a1,s6
0x000000008000ebf6:  0039869b          addiw           a3,s3,3
0x000000008000ebfa:  95a6              add             a1,a1,s1
0x000000008000ebfc:  9af1              andi            a3,a3,-4
0x000000008000ebfe:  00bab023          sd              a1,0(s5)
0x000000008000ec02:  26b1              addiw           a3,a3,12
0x000000008000ec04:  4601              mv              a2,zero
0x000000008000ec06:  8526              mv              a0,s1
0x000000008000ec08:  e53ff0ef          jal             ra,-430         # 0x8000ea5a

----------------
IN: 
Priv: 3; Virt: 0
0x000000008000ec0c:  8b2a              mv              s6,a0
0x000000008000ec0e:  2981              sext.w          s3,s3
0x000000008000ec10:  16051763          bnez            a0,366          # 0x8000ed7e

----------------
IN: 
Priv: 3; Virt: 0
0x000000008000ec14:  000ab683          ld              a3,0(s5)
0x000000008000ec18:  000b879b          sext.w          a5,s7
0x000000008000ec1c:  0087d713          srli            a4,a5,8
0x000000008000ec20:  03000637          lui             a2,50331648
0x000000008000ec24:  0ff77713          andi            a4,a4,255
0x000000008000ec28:  c290              sw              a2,0(a3)
0x000000008000ec2a:  0107171b          slliw           a4,a4,16
0x000000008000ec2e:  0107d693          srli            a3,a5,16
0x000000008000ec32:  018b9b9b          slliw           s7,s7,24
0x000000008000ec36:  000ab603          ld              a2,0(s5)
0x000000008000ec3a:  0187d79b          srliw           a5,a5,24
0x000000008000ec3e:  01776733          or              a4,a4,s7
0x000000008000ec42:  0ff6f693          andi            a3,a3,255
0x000000008000ec46:  8f5d              or              a4,a4,a5
0x000000008000ec48:  0086969b          slliw           a3,a3,8
0x000000008000ec4c:  0089d793          srli            a5,s3,8
0x000000008000ec50:  8f55              or              a4,a4,a3
0x000000008000ec52:  0ff7f793          andi            a5,a5,255
0x000000008000ec56:  c618              sw              a4,8(a2)
0x000000008000ec58:  0107979b          slliw           a5,a5,16
0x000000008000ec5c:  0189961b          slliw           a2,s3,24
0x000000008000ec60:  0109d713          srli            a4,s3,16
0x000000008000ec64:  000ab683          ld              a3,0(s5)
0x000000008000ec68:  8fd1              or              a5,a5,a2
0x000000008000ec6a:  0189d99b          srliw           s3,s3,24
0x000000008000ec6e:  0ff77713          andi            a4,a4,255
0x000000008000ec72:  0137e7b3          or              a5,a5,s3
0x000000008000ec76:  0087171b          slliw           a4,a4,8
0x000000008000ec7a:  8fd9              or              a5,a5,a4
0x000000008000ec7c:  c2dc              sw              a5,4(a3)
0x000000008000ec7e:  70e6              ld              ra,120(sp)
0x000000008000ec80:  7446              ld              s0,112(sp)
0x000000008000ec82:  74a6              ld              s1,104(sp)
0x000000008000ec84:  7906              ld              s2,96(sp)
0x000000008000ec86:  69e6              ld              s3,88(sp)
0x000000008000ec88:  6a46              ld              s4,80(sp)
0x000000008000ec8a:  6aa6              ld              s5,72(sp)
0x000000008000ec8c:  7be2              ld              s7,56(sp)
0x000000008000ec8e:  7c42              ld              s8,48(sp)
0x000000008000ec90:  7ca2              ld              s9,40(sp)
0x000000008000ec92:  7d02              ld              s10,32(sp)
0x000000008000ec94:  6de2              ld              s11,24(sp)
0x000000008000ec96:  855a              mv              a0,s6
0x000000008000ec98:  6b06              ld              s6,64(sp)
0x000000008000ec9a:  6109              addi            sp,sp,128
0x000000008000ec9c:  8082              ret             

----------------
IN: 
Priv: 3; Virt: 0
0x000000008000f0ce:  e911              bnez            a0,20           # 0x8000f0e2

----------------
IN: 
Priv: 3; Virt: 0
0x000000008000f0d0:  fa843c03          ld              s8,-88(s0)
0x000000008000f0d4:  0c31              addi            s8,s8,12
0x000000008000f0d6:  018bb023          sd              s8,0(s7)
0x000000008000f0da:  bf91              j               -172            # 0x8000f02e

----------------
IN: 
Priv: 3; Virt: 0
0x000000008000f02e:  60e6              ld              ra,88(sp)
0x000000008000f030:  6446              ld              s0,80(sp)
0x000000008000f032:  6906              ld              s2,64(sp)
0x000000008000f034:  79e2              ld              s3,56(sp)
0x000000008000f036:  7a42              ld              s4,48(sp)
0x000000008000f038:  7aa2              ld              s5,40(sp)
0x000000008000f03a:  7b02              ld              s6,32(sp)
0x000000008000f03c:  6be2              ld              s7,24(sp)
0x000000008000f03e:  6c42              ld              s8,16(sp)
0x000000008000f040:  8526              mv              a0,s1
0x000000008000f042:  64a6              ld              s1,72(sp)
0x000000008000f044:  6125              addi            sp,sp,96
0x000000008000f046:  8082              ret             

----------------
IN: 
Priv: 3; Virt: 0
0x000000008000f102:  84aa              mv              s1,a0
0x000000008000f104:  e119              bnez            a0,6            # 0x8000f10a

----------------
IN: 
Priv: 3; Virt: 0
0x000000008000f106:  00091a63          bnez            s2,20           # 0x8000f11a

----------------
IN: 
Priv: 3; Virt: 0
0x000000008000f10a:  70e2              ld              ra,56(sp)
0x000000008000f10c:  7442              ld              s0,48(sp)
0x000000008000f10e:  7902              ld              s2,32(sp)
0x000000008000f110:  69e2              ld              s3,24(sp)
0x000000008000f112:  8526              mv              a0,s1
0x000000008000f114:  74a2              ld              s1,40(sp)
0x000000008000f116:  6121              addi            sp,sp,64
0x000000008000f118:  8082              ret             

----------------
IN: 
Priv: 3; Virt: 0
0x000000008000d11c:  08054a63          bltz            a0,148          # 0x8000d1b0

----------------
IN: 
Priv: 3; Virt: 0
0x000000008000d120:  0009869b          sext.w          a3,s3
0x000000008000d124:  0086d613          srli            a2,a3,8
0x000000008000d128:  0ff67613          andi            a2,a2,255
0x000000008000d12c:  0106161b          slliw           a2,a2,16
0x000000008000d130:  0106d713          srli            a4,a3,16
0x000000008000d134:  0189979b          slliw           a5,s3,24
0x000000008000d138:  8fd1              or              a5,a5,a2
0x000000008000d13a:  0186d69b          srliw           a3,a3,24
0x000000008000d13e:  0ff77713          andi            a4,a4,255
0x000000008000d142:  8fd5              or              a5,a5,a3
0x000000008000d144:  0087171b          slliw           a4,a4,8
0x000000008000d148:  8fd9              or              a5,a5,a4
0x000000008000d14a:  f7040693          addi            a3,s0,-144
0x000000008000d14e:  4711              addi            a4,zero,4
0x000000008000d150:  00005617          auipc           a2,20480        # 0x80012150
0x000000008000d154:  8c860613          addi            a2,a2,-1848
0x000000008000d158:  85ee              mv              a1,s11
0x000000008000d15a:  8556              mv              a0,s5
0x000000008000d15c:  f6f42823          sw              a5,-144(s0)
0x000000008000d160:  787010ef          jal             ra,8070         # 0x8000f0e6

----------------
IN: 
Priv: 3; Virt: 0
0x000000008000f11a:  fc843503          ld              a0,-56(s0)
0x000000008000f11e:  864a              mv              a2,s2
0x000000008000f120:  85ce              mv              a1,s3
0x000000008000f122:  d54f20ef          jal             ra,-55980       # 0x80001676

----------------
IN: 
Priv: 3; Virt: 0
0x000000008000f126:  70e2              ld              ra,56(sp)
0x000000008000f128:  7442              ld              s0,48(sp)
0x000000008000f12a:  7902              ld              s2,32(sp)
0x000000008000f12c:  69e2              ld              s3,24(sp)
0x000000008000f12e:  8526              mv              a0,s1
0x000000008000f130:  74a2              ld              s1,40(sp)
0x000000008000f132:  6121              addi            sp,sp,64
0x000000008000f134:  8082              ret             

----------------
IN: 
Priv: 3; Virt: 0
0x000000008000d164:  04054663          bltz            a0,76           # 0x8000d1b0

----------------
IN: 
Priv: 3; Virt: 0
0x000000008000d168:  0004869b          sext.w          a3,s1
0x000000008000d16c:  0086d613          srli            a2,a3,8
0x000000008000d170:  0ff67613          andi            a2,a2,255
0x000000008000d174:  0106161b          slliw           a2,a2,16
0x000000008000d178:  0106d713          srli            a4,a3,16
0x000000008000d17c:  0184979b          slliw           a5,s1,24
0x000000008000d180:  8fd1              or              a5,a5,a2
0x000000008000d182:  0186d69b          srliw           a3,a3,24
0x000000008000d186:  0ff77713          andi            a4,a4,255
0x000000008000d18a:  8fd5              or              a5,a5,a3
0x000000008000d18c:  0087171b          slliw           a4,a4,8
0x000000008000d190:  8fd9              or              a5,a5,a4
0x000000008000d192:  f7040693          addi            a3,s0,-144
0x000000008000d196:  4711              addi            a4,zero,4
0x000000008000d198:  00005617          auipc           a2,20480        # 0x80012198
0x000000008000d19c:  89060613          addi            a2,a2,-1904
0x000000008000d1a0:  85ee              mv              a1,s11
0x000000008000d1a2:  8556              mv              a0,s5
0x000000008000d1a4:  f6f42823          sw              a5,-144(s0)
0x000000008000d1a8:  73f010ef          jal             ra,7998         # 0x8000f0e6

----------------
IN: 
Priv: 3; Virt: 0
0x000000008000d1ac:  d6055fe3          bgez            a0,-642         # 0x8000cf2a

----------------
IN: 
Priv: 3; Virt: 0
0x000000008000cf2a:  06093983          ld              s3,96(s2)
0x000000008000cf2e:  4b01              mv              s6,zero
0x000000008000cf30:  0009bd03          ld              s10,0(s3)
0x000000008000cf34:  180d0e63          beqz            s10,412         # 0x8000d0d0

----------------
IN: 
Priv: 3; Virt: 0
0x000000008000cf38:  4a05              addi            s4,zero,1
0x000000008000cf3a:  01fa1493          slli            s1,s4,31
0x000000008000cf3e:  049d              addi            s1,s1,7
0x000000008000cf40:  a031              j               12              # 0x8000cf4c

----------------
IN: 
Priv: 3; Virt: 0
0x000000008000cf4c:  0109b783          ld              a5,16(s3)
0x000000008000cf50:  8fe5              and             a5,a5,s1
0x000000008000cf52:  fbe5              bnez            a5,-16          # 0x8000cf42

----------------
IN: 
Priv: 3; Virt: 0
0x000000008000cf54:  0089b783          ld              a5,8(s3)
0x000000008000cf58:  8566              mv              a0,s9
0x000000008000cf5a:  f4f43823          sd              a5,-176(s0)
0x000000008000cf5e:  817f80ef          jal             ra,-30698       # 0x80005774

----------------
IN: 
Priv: 3; Virt: 0
0x0000000080005774:  1141              addi            sp,sp,-16
0x0000000080005776:  e422              sd              s0,8(sp)
0x0000000080005778:  0800              addi            s0,sp,16
0x000000008000577a:  6422              ld              s0,8(sp)
0x000000008000577c:  0000e797          auipc           a5,57344        # 0x8001377c
0x0000000080005780:  90c7b783          ld              a5,-1780(a5)
0x0000000080005784:  953e              add             a0,a0,a5
0x0000000080005786:  4508              lw              a0,8(a0)
0x0000000080005788:  0141              addi            sp,sp,16
0x000000008000578a:  8082              ret             

----------------
IN: 
Priv: 3; Virt: 0
0x000000008000cf62:  8baa              mv              s7,a0
0x000000008000cf64:  000b879b          sext.w          a5,s7
0x000000008000cf68:  4581              mv              a1,zero
0x000000008000cf6a:  8556              mv              a0,s5
0x000000008000cf6c:  f4f43423          sd              a5,-184(s0)
0x000000008000cf70:  314010ef          jal             ra,4884         # 0x8000e284

----------------
IN: 
Priv: 3; Virt: 0
0x000000008000cf74:  892a              mv              s2,a0
0x000000008000cf76:  4581              mv              a1,zero
0x000000008000cf78:  8556              mv              a0,s5
0x000000008000cf7a:  384010ef          jal             ra,4996         # 0x8000e2fe

----------------
IN: 
Priv: 3; Virt: 0
0x000000008000cf7e:  f5043783          ld              a5,-176(s0)
0x000000008000cf82:  f4a43c23          sd              a0,-168(s0)
0x000000008000cf86:  0207d713          srli            a4,a5,32
0x000000008000cf8a:  f4e43823          sd              a4,-176(s0)
0x000000008000cf8e:  4207dc13          srai            s8,a5,32
0x000000008000cf92:  00078b9b          sext.w          s7,a5
0x000000008000cf96:  012a5463          ble             s2,s4,8         # 0x8000cf9e

----------------
IN: 
Priv: 3; Virt: 0
0x000000008000cf9a:  20071d63          bnez            a4,538          # 0x8000d1b4

----------------
IN: 
Priv: 3; Virt: 0
0x000000008000cf9e:  875e              mv              a4,s7
0x000000008000cfa0:  86da              mv              a3,s6
0x000000008000cfa2:  00005617          auipc           a2,20480        # 0x80011fa2
0x000000008000cfa6:  aae60613          addi            a2,a2,-1362
0x000000008000cfaa:  02000593          addi            a1,zero,32
0x000000008000cfae:  f7040513          addi            a0,s0,-144
0x000000008000cfb2:  f79f60ef          jal             ra,-37000       # 0x80003f2a

----------------
IN: 
Priv: 3; Virt: 0
0x0000000080003cc6:  0009e603          lwu             a2,0(s3)
0x0000000080003cca:  06100893          addi            a7,zero,97
0x0000000080003cce:  4701              mv              a4,zero
0x0000000080003cd0:  46c1              addi            a3,zero,16
0x0000000080003cd2:  b741              j               -128            # 0x80003c52

----------------
IN: 
Priv: 3; Virt: 0
0x000000008000cfb6:  85ee              mv              a1,s11
0x000000008000cfb8:  f7040613          addi            a2,s0,-144
0x000000008000cfbc:  8556              mv              a0,s5
0x000000008000cfbe:  3b2020ef          jal             ra,9138         # 0x8000f370

----------------
IN: 
Priv: 3; Virt: 0
0x000000008000cfc2:  85aa              mv              a1,a0
0x000000008000cfc4:  10054063          bltz            a0,256          # 0x8000d0c4

----------------
IN: 
Priv: 3; Virt: 0
0x000000008000cfc8:  f4843783          ld              a5,-184(s0)
0x000000008000cfcc:  20078263          beqz            a5,516          # 0x8000d1d0

----------------
IN: 
Priv: 3; Virt: 0
0x000000008000cfd0:  f6040693          addi            a3,s0,-160
0x000000008000cfd4:  032a5c63          ble             s2,s4,56        # 0x8000d00c

----------------
IN: 
Priv: 3; Virt: 0
0x000000008000cfd8:  f5043783          ld              a5,-176(s0)
0x000000008000cfdc:  008c5613          srli            a2,s8,8
0x000000008000cfe0:  0ff67613          andi            a2,a2,255
0x000000008000cfe4:  010c5693          srli            a3,s8,16
0x000000008000cfe8:  0187971b          slliw           a4,a5,24
0x000000008000cfec:  0106161b          slliw           a2,a2,16
0x000000008000cff0:  8f51              or              a4,a4,a2
0x000000008000cff2:  018c5c1b          srliw           s8,s8,24
0x000000008000cff6:  0ff6f693          andi            a3,a3,255
0x000000008000cffa:  0086969b          slliw           a3,a3,8
0x000000008000cffe:  01876733          or              a4,a4,s8

----------------
IN: 
Priv: 3; Virt: 0
0x000000008000d002:  8f55              or              a4,a4,a3
0x000000008000d004:  f6e42023          sw              a4,-160(s0)
0x000000008000d008:  f6440693          addi            a3,s0,-156
0x000000008000d00c:  008bd513          srli            a0,s7,8
0x000000008000d010:  0ff57513          andi            a0,a0,255
0x000000008000d014:  018b971b          slliw           a4,s7,24
0x000000008000d018:  0105151b          slliw           a0,a0,16
0x000000008000d01c:  010bd613          srli            a2,s7,16
0x000000008000d020:  018bd79b          srliw           a5,s7,24
0x000000008000d024:  8f49              or              a4,a4,a0
0x000000008000d026:  0ff67613          andi            a2,a2,255
0x000000008000d02a:  8f5d              or              a4,a4,a5
0x000000008000d02c:  0086161b          slliw           a2,a2,8
0x000000008000d030:  f5843783          ld              a5,-168(s0)
0x000000008000d034:  8f51              or              a4,a4,a2
0x000000008000d036:  c298              sw              a4,0(a3)
0x000000008000d038:  01aa18b3          sll             a7,s4,s10
0x000000008000d03c:  00468e93          addi            t4,a3,4
0x000000008000d040:  02fa5c63          ble             a5,s4,56        # 0x8000d078

----------------
IN: 
Priv: 3; Virt: 0
0x000000008000d044:  4208d613          srai            a2,a7,32
0x000000008000d048:  00865513          srli            a0,a2,8
0x000000008000d04c:  0208d793          srli            a5,a7,32
0x000000008000d050:  0ff57513          andi            a0,a0,255
0x000000008000d054:  01065713          srli            a4,a2,16
0x000000008000d058:  0187979b          slliw           a5,a5,24
0x000000008000d05c:  0105151b          slliw           a0,a0,16
0x000000008000d060:  8fc9              or              a5,a5,a0
0x000000008000d062:  0186561b          srliw           a2,a2,24
0x000000008000d066:  0ff77713          andi            a4,a4,255
0x000000008000d06a:  8fd1              or              a5,a5,a2
0x000000008000d06c:  0087171b          slliw           a4,a4,8
0x000000008000d070:  8fd9              or              a5,a5,a4
0x000000008000d072:  00868e93          addi            t4,a3,8
0x000000008000d076:  c2dc              sw              a5,4(a3)
0x000000008000d078:  0008871b          sext.w          a4,a7
0x000000008000d07c:  00875613          srli            a2,a4,8
0x000000008000d080:  0ff67613          andi            a2,a2,255
0x000000008000d084:  0106161b          slliw           a2,a2,16
0x000000008000d088:  0188979b          slliw           a5,a7,24
0x000000008000d08c:  01075693          srli            a3,a4,16
0x000000008000d090:  8fd1              or              a5,a5,a2
0x000000008000d092:  0187571b          srliw           a4,a4,24
0x000000008000d096:  8fd9              or              a5,a5,a4
0x000000008000d098:  f5843703          ld              a4,-168(s0)
0x000000008000d09c:  0ff6f693          andi            a3,a3,255
0x000000008000d0a0:  0086969b          slliw           a3,a3,8
0x000000008000d0a4:  8fd5              or              a5,a5,a3
0x000000008000d0a6:  00e9073b          addw            a4,s2,a4
0x000000008000d0aa:  0027171b          slliw           a4,a4,2
0x000000008000d0ae:  f6040693          addi            a3,s0,-160
0x000000008000d0b2:  00005617          auipc           a2,20480        # 0x800120b2
0x000000008000d0b6:  89660613          addi            a2,a2,-1898
0x000000008000d0ba:  8556              mv              a0,s5
0x000000008000d0bc:  00fea023          sw              a5,0(t4)
0x000000008000d0c0:  026020ef          jal             ra,8230         # 0x8000f0e6

----------------
IN: 
Priv: 3; Virt: 0
0x000000008000d0c4:  2b05              addiw           s6,s6,1
0x000000008000d0c6:  0189bd03          ld              s10,24(s3)
0x000000008000d0ca:  09e1              addi            s3,s3,24
0x000000008000d0cc:  e80d10e3          bnez            s10,-384        # 0x8000cf4c

----------------
IN: 
Priv: 3; Virt: 0
0x000000008000cf42:  0189bd03          ld              s10,24(s3)
0x000000008000cf46:  09e1              addi            s3,s3,24
0x000000008000cf48:  180d0463          beqz            s10,392         # 0x8000d0d0

----------------
IN: 
Priv: 3; Virt: 0
0x000000008000d0d0:  4d81              mv              s11,zero
0x000000008000d0d2:  70ea              ld              ra,184(sp)
0x000000008000d0d4:  744a              ld              s0,176(sp)
0x000000008000d0d6:  74aa              ld              s1,168(sp)
0x000000008000d0d8:  790a              ld              s2,160(sp)
0x000000008000d0da:  69ea              ld              s3,152(sp)
0x000000008000d0dc:  6a4a              ld              s4,144(sp)
0x000000008000d0de:  6aaa              ld              s5,136(sp)
0x000000008000d0e0:  6b0a              ld              s6,128(sp)
0x000000008000d0e2:  7be6              ld              s7,120(sp)
0x000000008000d0e4:  7c46              ld              s8,112(sp)
0x000000008000d0e6:  7ca6              ld              s9,104(sp)
0x000000008000d0e8:  7d06              ld              s10,96(sp)
0x000000008000d0ea:  856e              mv              a0,s11
0x000000008000d0ec:  6de6              ld              s11,88(sp)
0x000000008000d0ee:  6129              addi            sp,sp,192
0x000000008000d0f0:  8082              ret             

----------------
IN: 
Priv: 3; Virt: 0
0x000000008000d28e:  60e2              ld              ra,24(sp)
0x000000008000d290:  6442              ld              s0,16(sp)
0x000000008000d292:  64a2              ld              s1,8(sp)
0x000000008000d294:  6105              addi            sp,sp,32
0x000000008000d296:  8082              ret             

----------------
IN: 
Priv: 3; Virt: 0
0x00000000800027ea:  8526              mv              a0,s1
0x00000000800027ec:  77c090ef          jal             ra,38780        # 0x8000bf68

----------------
IN: 
Priv: 3; Virt: 0
0x000000008000bf68:  715d              addi            sp,sp,-80
0x000000008000bf6a:  e0a2              sd              s0,64(sp)
0x000000008000bf6c:  fc26              sd              s1,56(sp)
0x000000008000bf6e:  e486              sd              ra,72(sp)
0x000000008000bf70:  f84a              sd              s2,48(sp)
0x000000008000bf72:  f44e              sd              s3,40(sp)
0x000000008000bf74:  0880              addi            s0,sp,80
0x000000008000bf76:  84aa              mv              s1,a0
0x000000008000bf78:  f1402773          csrrs           a4,mhartid,zero

----------------
IN: 
Priv: 3; Virt: 0
0x000000008000bf7c:  02071793          slli            a5,a4,32
0x000000008000bf80:  01d7d713          srli            a4,a5,29
0x000000008000bf84:  00008797          auipc           a5,32768        # 0x80013f84
0x000000008000bf88:  ad478793          addi            a5,a5,-1324
0x000000008000bf8c:  97ba              add             a5,a5,a4
0x000000008000bf8e:  00005597          auipc           a1,20480        # 0x80010f8e
0x000000008000bf92:  92a58593          addi            a1,a1,-1750
0x000000008000bf96:  0007b983          ld              s3,0(a5)
0x000000008000bf9a:  efcfe0ef          jal             ra,-6404        # 0x8000a696

----------------
IN: 
Priv: 3; Virt: 0
0x000000008000bf9e:  08054063          bltz            a0,128          # 0x8000c01e

----------------
IN: 
Priv: 3; Virt: 0
0x000000008000bfa2:  85aa              mv              a1,a0
0x000000008000bfa4:  8526              mv              a0,s1
0x000000008000bfa6:  b89fd0ef          jal             ra,-9336        # 0x80009b2e

----------------
IN: 
Priv: 3; Virt: 0
0x000000008000bfaa:  faa42e23          sw              a0,-68(s0)
0x000000008000bfae:  85aa              mv              a1,a0
0x000000008000bfb0:  02054d63          bltz            a0,58           # 0x8000bfea

----------------
IN: 
Priv: 3; Virt: 0
0x000000008000bfb4:  00006917          auipc           s2,24576        # 0x80011fb4
0x000000008000bfb8:  98490913          addi            s2,s2,-1660
0x000000008000bfbc:  fb440613          addi            a2,s0,-76
0x000000008000bfc0:  8526              mv              a0,s1
0x000000008000bfc2:  51a000ef          jal             ra,1306         # 0x8000c4dc

----------------
IN: 
Priv: 3; Virt: 0
0x000000008000bfc6:  87aa              mv              a5,a0
0x000000008000bfc8:  864a              mv              a2,s2
0x000000008000bfca:  8526              mv              a0,s1
0x000000008000bfcc:  e789              bnez            a5,10           # 0x8000bfd6

----------------
IN: 
Priv: 3; Virt: 0
0x000000008000bfce:  fbc42583          lw              a1,-68(s0)
0x000000008000bfd2:  08d030ef          jal             ra,14476        # 0x8000f85e

----------------
IN: 
Priv: 3; Virt: 0
0x000000008000f85e:  1101              addi            sp,sp,-32
0x000000008000f860:  e822              sd              s0,16(sp)
0x000000008000f862:  ec06              sd              ra,24(sp)
0x000000008000f864:  1000              addi            s0,sp,32
0x000000008000f866:  fec40693          addi            a3,s0,-20
0x000000008000f86a:  c21fa0ef          jal             ra,-21472       # 0x8000a48a

----------------
IN: 
Priv: 3; Virt: 0
0x000000008000f86e:  c115              beqz            a0,36           # 0x8000f892

----------------
IN: 
Priv: 3; Virt: 0
0x000000008000f892:  fec42503          lw              a0,-20(s0)
0x000000008000f896:  60e2              ld              ra,24(sp)
0x000000008000f898:  6442              ld              s0,16(sp)
0x000000008000f89a:  6105              addi            sp,sp,32
0x000000008000f89c:  8082              ret             

----------------
IN: 
Priv: 3; Virt: 0
0x000000008000bfd6:  fbc42583          lw              a1,-68(s0)
0x000000008000bfda:  8526              mv              a0,s1
0x000000008000bfdc:  b81fd0ef          jal             ra,-9344        # 0x80009b5c

----------------
IN: 
Priv: 3; Virt: 0
0x000000008000bfe0:  faa42e23          sw              a0,-68(s0)
0x000000008000bfe4:  85aa              mv              a1,a0
0x000000008000bfe6:  fc055be3          bgez            a0,-42          # 0x8000bfbc

----------------
IN: 
Priv: 3; Virt: 0
0x000000008000bfbc:  fb440613          addi            a2,s0,-76
0x000000008000bfc0:  8526              mv              a0,s1
0x000000008000bfc2:  51a000ef          jal             ra,1306         # 0x8000c4dc

----------------
IN: 
Priv: 3; Virt: 0
0x000000008000bfea:  0009a783          lw              a5,0(s3)
0x000000008000bfee:  ef9d              bnez            a5,62           # 0x8000c02c

----------------
IN: 
Priv: 3; Virt: 0
0x000000008000bff0:  00005597          auipc           a1,20480        # 0x80010ff0
0x000000008000bff4:  5d858593          addi            a1,a1,1496
0x000000008000bff8:  8526              mv              a0,s1
0x000000008000bffa:  e9cfe0ef          jal             ra,-6500        # 0x8000a696

----------------
IN: 
Priv: 3; Virt: 0
0x000000008000bffe:  85aa              mv              a1,a0

----------------
IN: 
Priv: 3; Virt: 0
0x000000008000c000:  00054f63          bltz            a0,30           # 0x8000c01e

----------------
IN: 
Priv: 3; Virt: 0
0x000000008000c004:  00006617          auipc           a2,24576        # 0x80012004
0x000000008000c008:  87460613          addi            a2,a2,-1932
0x000000008000c00c:  8526              mv              a0,s1
0x000000008000c00e:  ffbfe0ef          jal             ra,-4102        # 0x8000b008

----------------
IN: 
Priv: 3; Virt: 0
0x000000008000c012:  85aa              mv              a1,a0
0x000000008000c014:  00054563          bltz            a0,10           # 0x8000c01e

----------------
IN: 
Priv: 3; Virt: 0
0x000000008000c01e:  60a6              ld              ra,72(sp)
0x000000008000c020:  6406              ld              s0,64(sp)
0x000000008000c022:  74e2              ld              s1,56(sp)
0x000000008000c024:  7942              ld              s2,48(sp)
0x000000008000c026:  79a2              ld              s3,40(sp)
0x000000008000c028:  6161              addi            sp,sp,80
0x000000008000c02a:  8082              ret             

----------------
IN: 
Priv: 3; Virt: 0
0x00000000800027f0:  00093783          ld              a5,0(s2)
0x00000000800027f4:  dbf9              beqz            a5,-42          # 0x800027ca

----------------
IN: 
Priv: 3; Virt: 0
0x00000000800027ca:  4501              mv              a0,zero
0x00000000800027cc:  60e2              ld              ra,24(sp)
0x00000000800027ce:  6442              ld              s0,16(sp)
0x00000000800027d0:  64a2              ld              s1,8(sp)
0x00000000800027d2:  6902              ld              s2,0(sp)
0x00000000800027d4:  6105              addi            sp,sp,32
0x00000000800027d6:  8082              ret             

----------------
IN: 
Priv: 3; Virt: 0
0x0000000080000bea:  862a              mv              a2,a0
0x0000000080000bec:  cd09              beqz            a0,26           # 0x80000c06

----------------
IN: 
Priv: 3; Virt: 0
0x0000000080000c06:  f1402773          csrrs           a4,mhartid,zero

----------------
IN: 
Priv: 3; Virt: 0
0x0000000080000c0a:  68bc              ld              a5,80(s1)
0x0000000080000c0c:  8b85              andi            a5,a5,1
0x0000000080000c0e:  10079063          bnez            a5,256          # 0x80000d0e

----------------
IN: 
Priv: 3; Virt: 0
0x0000000080000c12:  02071793          slli            a5,a4,32
0x0000000080000c16:  01d7d713          srli            a4,a5,29
0x0000000080000c1a:  00013797          auipc           a5,77824        # 0x80013c1a
0x0000000080000c1e:  e3e78793          addi            a5,a5,-450
0x0000000080000c22:  97ba              add             a5,a5,a4
0x0000000080000c24:  0007bb83          ld              s7,0(a5)
0x0000000080000c28:  5a5010ef          jal             ra,7588         # 0x800029cc

----------------
IN: 
Priv: 3; Virt: 0
0x00000000800029cc:  301027f3          csrrs           a5,misa,zero

----------------
IN: 
Priv: 3; Virt: 0
0x00000000800029d0:  cf91              beqz            a5,28           # 0x800029ec

----------------
IN: 
Priv: 3; Virt: 0
0x00000000800029d2:  301022f3          csrrs           t0,misa,zero

----------------
IN: 
Priv: 3; Virt: 0
0x00000000800029d6:  0002a313          slti            t1,t0,0
0x00000000800029da:  0306              slli            t1,t1,1
0x00000000800029dc:  0286              slli            t0,t0,1
0x00000000800029de:  0002a293          slti            t0,t0,0
0x00000000800029e2:  00628533          add             a0,t0,t1
0x00000000800029e6:  c11d              beqz            a0,38           # 0x80002a0c

----------------
IN: 
Priv: 3; Virt: 0
0x00000000800029e8:  2501              sext.w          a0,a0
0x00000000800029ea:  8082              ret             

----------------
IN: 
Priv: 3; Virt: 0
0x0000000080000c2c:  8aaa              mv              s5,a0
0x0000000080000c2e:  14a05663          blez            a0,332          # 0x80000d7a

----------------
IN: 
Priv: 3; Virt: 0
0x0000000080000c32:  85ca              mv              a1,s2
0x0000000080000c34:  0000f517          auipc           a0,61440        # 0x8000fc34
0x0000000080000c38:  75c50513          addi            a0,a0,1884
0x0000000080000c3c:  32c030ef          jal             ra,13100        # 0x80003f68

----------------
IN: 
Priv: 3; Virt: 0
0x0000000080000c40:  018b8593          addi            a1,s7,24
0x0000000080000c44:  0000f517          auipc           a0,61440        # 0x8000fc44
0x0000000080000c48:  76c50513          addi            a0,a0,1900
0x0000000080000c4c:  31c030ef          jal             ra,13084        # 0x80003f68

----------------
IN: 
Priv: 3; Virt: 0
0x0000000080000c50:  08000613          addi            a2,zero,128
0x0000000080000c54:  8556              mv              a0,s5
0x0000000080000c56:  f2040593          addi            a1,s0,-224
0x0000000080000c5a:  5b7010ef          jal             ra,7606         # 0x80002a10

----------------
IN: 
Priv: 3; Virt: 0
0x0000000080002a10:  7159              addi            sp,sp,-112
0x0000000080002a12:  f0a2              sd              s0,96(sp)
0x0000000080002a14:  f486              sd              ra,104(sp)
0x0000000080002a16:  1880              addi            s0,sp,112
0x0000000080002a18:  eca6              sd              s1,88(sp)
0x0000000080002a1a:  e8ca              sd              s2,80(sp)
0x0000000080002a1c:  e4ce              sd              s3,72(sp)
0x0000000080002a1e:  e0d2              sd              s4,64(sp)
0x0000000080002a20:  fc56              sd              s5,56(sp)
0x0000000080002a22:  f85a              sd              s6,48(sp)
0x0000000080002a24:  f45e              sd              s7,40(sp)
0x0000000080002a26:  f062              sd              s8,32(sp)
0x0000000080002a28:  0000e797          auipc           a5,57344        # 0x80010a28
0x0000000080002a2c:  07878793          addi            a5,a5,120
0x0000000080002a30:  0007b883          ld              a7,0(a5)
0x0000000080002a34:  0087b803          ld              a6,8(a5)
0x0000000080002a38:  6b94              ld              a3,16(a5)
0x0000000080002a3a:  0187d703          lhu             a4,24(a5)
0x0000000080002a3e:  01a7c783          lbu             a5,26(a5)
0x0000000080002a42:  f9143823          sd              a7,-112(s0)
0x0000000080002a46:  f9043c23          sd              a6,-104(s0)
0x0000000080002a4a:  fad43023          sd              a3,-96(s0)
0x0000000080002a4e:  fae41423          sh              a4,-88(s0)
0x0000000080002a52:  faf40523          sb              a5,-86(s0)
0x0000000080002a56:  c59d              beqz            a1,46           # 0x80002a84

----------------
IN: 
Priv: 3; Virt: 0
0x0000000080002a58:  4791              addi            a5,zero,4
0x0000000080002a5a:  8aae              mv              s5,a1
0x0000000080002a5c:  8a32              mv              s4,a2
0x0000000080002a5e:  02c7ff63          bleu            a2,a5,62        # 0x80002a9c

----------------
IN: 
Priv: 3; Virt: 0
0x0000000080002a62:  07200793          addi            a5,zero,114
0x0000000080002a66:  00f58023          sb              a5,0(a1)
0x0000000080002a6a:  07600793          addi            a5,zero,118
0x0000000080002a6e:  00f580a3          sb              a5,1(a1)
0x0000000080002a72:  4789              addi            a5,zero,2
0x0000000080002a74:  0cf50963          beq             a0,a5,210       # 0x80002b46

----------------
IN: 
Priv: 3; Virt: 0
0x0000000080002b46:  03600793          addi            a5,zero,54
0x0000000080002b4a:  00f58123          sb              a5,2(a1)
0x0000000080002b4e:  03400793          addi            a5,zero,52
0x0000000080002b52:  00f581a3          sb              a5,3(a1)
0x0000000080002b56:  4911              addi            s2,zero,4
0x0000000080002b58:  b799              j               -186            # 0x80002a9e

----------------
IN: 
Priv: 3; Virt: 0
0x0000000080002a9e:  f9040493          addi            s1,s0,-112
0x0000000080002aa2:  fab40b93          addi            s7,s0,-85
0x0000000080002aa6:  4b65              addi            s6,zero,25
0x0000000080002aa8:  4c05              addi            s8,zero,1
0x0000000080002aaa:  fd497de3          bleu            s4,s2,-38       # 0x80002a84

----------------
IN: 
Priv: 3; Virt: 0
0x0000000080002aae:  0004c983          lbu             s3,0(s1)
0x0000000080002ab2:  301027f3          csrrs           a5,misa,zero

----------------
IN: 
Priv: 3; Virt: 0
0x0000000080002ab6:  c7b1              beqz            a5,76           # 0x80002b02

----------------
IN: 
Priv: 3; Virt: 0
0x0000000080002ab8:  fbf9871b          addiw           a4,s3,-65
0x0000000080002abc:  0ff77693          andi            a3,a4,255
0x0000000080002ac0:  00db7863          bleu            a3,s6,16        # 0x80002ad0

----------------
IN: 
Priv: 3; Virt: 0
0x0000000080002ac4:  f9f9871b          addiw           a4,s3,-97
0x0000000080002ac8:  0ff77693          andi            a3,a4,255
0x0000000080002acc:  00db6f63          bgtu            a3,s6,30        # 0x80002aea

----------------
IN: 
Priv: 3; Virt: 0
0x0000000080002ad0:  00ec173b          sllw            a4,s8,a4
0x0000000080002ad4:  8ff9              and             a5,a5,a4
0x0000000080002ad6:  0007851b          sext.w          a0,a5
0x0000000080002ada:  c901              beqz            a0,16           # 0x80002aea

----------------
IN: 
Priv: 3; Virt: 0
0x0000000080002adc:  02091793          slli            a5,s2,32
0x0000000080002ae0:  9381              srli            a5,a5,32
0x0000000080002ae2:  97d6              add             a5,a5,s5
0x0000000080002ae4:  01378023          sb              s3,0(a5)
0x0000000080002ae8:  2905              addiw           s2,s2,1
0x0000000080002aea:  0485              addi            s1,s1,1
0x0000000080002aec:  fb749fe3          bne             s1,s7,-66       # 0x80002aaa

----------------
IN: 
Priv: 3; Virt: 0
0x0000000080002aaa:  fd497de3          bleu            s4,s2,-38       # 0x80002a84

----------------
IN: 
Priv: 3; Virt: 0
0x0000000080002aea:  0485              addi            s1,s1,1
0x0000000080002aec:  fb749fe3          bne             s1,s7,-66       # 0x80002aaa

----------------
IN: 
Priv: 3; Virt: 0
0x0000000080002af0:  f9497ae3          bleu            s4,s2,-108      # 0x80002a84

----------------
IN: 
Priv: 3; Virt: 0
0x0000000080002af4:  1902              slli            s2,s2,32
0x0000000080002af6:  02095913          srli            s2,s2,32
0x0000000080002afa:  9aca              add             s5,s5,s2
0x0000000080002afc:  000a8023          sb              zero,0(s5)
0x0000000080002b00:  b751              j               -124            # 0x80002a84

----------------
IN: 
Priv: 3; Virt: 0
0x0000000080002a84:  70a6              ld              ra,104(sp)
0x0000000080002a86:  7406              ld              s0,96(sp)
0x0000000080002a88:  64e6              ld              s1,88(sp)
0x0000000080002a8a:  6946              ld              s2,80(sp)
0x0000000080002a8c:  69a6              ld              s3,72(sp)
0x0000000080002a8e:  6a06              ld              s4,64(sp)
0x0000000080002a90:  7ae2              ld              s5,56(sp)
0x0000000080002a92:  7b42              ld              s6,48(sp)
0x0000000080002a94:  7ba2              ld              s7,40(sp)
0x0000000080002a96:  7c02              ld              s8,32(sp)
0x0000000080002a98:  6165              addi            sp,sp,112
0x0000000080002a9a:  8082              ret             

----------------
IN: 
Priv: 3; Virt: 0
0x0000000080000c5e:  f2040593          addi            a1,s0,-224
0x0000000080000c62:  0000f517          auipc           a0,61440        # 0x8000fc62
0x0000000080000c66:  76e50513          addi            a0,a0,1902
0x0000000080000c6a:  2fe030ef          jal             ra,13054        # 0x80003f68

----------------
IN: 
Priv: 3; Virt: 0
0x0000000080000c6e:  08000613          addi            a2,zero,128
0x0000000080000c72:  8526              mv              a0,s1
0x0000000080000c74:  f2040593          addi            a1,s0,-224
0x0000000080000c78:  467040ef          jal             ra,19558        # 0x800058de

----------------
IN: 
Priv: 3; Virt: 0
0x00000000800058de:  c5f9              beqz            a1,206          # 0x800059ac

----------------
IN: 
Priv: 3; Virt: 0
0x00000000800058e0:  711d              addi            sp,sp,-96
0x00000000800058e2:  e8a2              sd              s0,80(sp)
0x00000000800058e4:  e0ca              sd              s2,64(sp)
0x00000000800058e6:  ec86              sd              ra,88(sp)
0x00000000800058e8:  e4a6              sd              s1,72(sp)
0x00000000800058ea:  fc4e              sd              s3,56(sp)
0x00000000800058ec:  f852              sd              s4,48(sp)
0x00000000800058ee:  f456              sd              s5,40(sp)
0x00000000800058f0:  f05a              sd              s6,32(sp)
0x00000000800058f2:  ec5e              sd              s7,24(sp)
0x00000000800058f4:  e862              sd              s8,16(sp)
0x00000000800058f6:  e466              sd              s9,8(sp)
0x00000000800058f8:  e06a              sd              s10,0(sp)
0x00000000800058fa:  1080              addi            s0,sp,96
0x00000000800058fc:  8932              mv              s2,a2
0x00000000800058fe:  08c05063          blez            a2,128          # 0x8000597e

----------------
IN: 
Priv: 3; Virt: 0
0x0000000080005902:  84ae              mv              s1,a1
0x0000000080005904:  89aa              mv              s3,a0
0x0000000080005906:  4581              mv              a1,zero
0x0000000080005908:  8526              mv              a0,s1
0x000000008000590a:  d4bfb0ef          jal             ra,-17078       # 0x80001654

----------------
IN: 
Priv: 3; Virt: 0
0x000000008000590e:  0000d797          auipc           a5,53248        # 0x8001290e
0x0000000080005912:  77a7b783          ld              a5,1914(a5)
0x0000000080005916:  00f98533          add             a0,s3,a5
0x000000008000591a:  00053b03          ld              s6,0(a0)
0x000000008000591e:  060b0e63          beqz            s6,124          # 0x8000599a

----------------
IN: 
Priv: 3; Virt: 0
0x0000000080005922:  4a0d              addi            s4,zero,3
0x0000000080005924:  4a81              mv              s5,zero
0x0000000080005926:  4985              addi            s3,zero,1
0x0000000080005928:  0000cc17          auipc           s8,49152        # 0x80011928
0x000000008000592c:  aa8c0c13          addi            s8,s8,-1368
0x0000000080005930:  00090d1b          sext.w          s10,s2
0x0000000080005934:  0000bc97          auipc           s9,45056        # 0x80010934
0x0000000080005938:  bacc8c93          addi            s9,s9,-1108
0x000000008000593c:  fff98793          addi            a5,s3,-1
0x0000000080005940:  078e              slli            a5,a5,3
0x0000000080005942:  0169f733          and             a4,s3,s6
0x0000000080005946:  97e2              add             a5,a5,s8
0x0000000080005948:  3a7d              addiw           s4,s4,-1
0x000000008000594a:  c315              beqz            a4,36           # 0x8000596e

----------------
IN: 
Priv: 3; Virt: 0
0x000000008000594c:  0007bb83          ld              s7,0(a5)
0x0000000080005950:  8666              mv              a2,s9
0x0000000080005952:  85ea              mv              a1,s10
0x0000000080005954:  86de              mv              a3,s7
0x0000000080005956:  01548533          add             a0,s1,s5
0x000000008000595a:  000b8a63          beqz            s7,20           # 0x8000596e

----------------
IN: 
Priv: 3; Virt: 0
0x000000008000595e:  dccfe0ef          jal             ra,-6708        # 0x80003f2a

----------------
IN: 
Priv: 3; Virt: 0
0x0000000080005962:  855e              mv              a0,s7
0x0000000080005964:  bcdfb0ef          jal             ra,-17460       # 0x80001530

----------------
IN: 
Priv: 3; Virt: 0
0x0000000080005968:  2a85              addiw           s5,s5,1
0x000000008000596a:  00aa8abb          addw            s5,s5,a0
0x000000008000596e:  0986              slli            s3,s3,1
0x0000000080005970:  fc0a16e3          bnez            s4,-52          # 0x8000593c

----------------
IN: 
Priv: 3; Virt: 0
0x000000008000593c:  fff98793          addi            a5,s3,-1
0x0000000080005940:  078e              slli            a5,a5,3
0x0000000080005942:  0169f733          and             a4,s3,s6
0x0000000080005946:  97e2              add             a5,a5,s8
0x0000000080005948:  3a7d              addiw           s4,s4,-1
0x000000008000594a:  c315              beqz            a4,36           # 0x8000596e

----------------
IN: 
Priv: 3; Virt: 0
0x0000000080005974:  020a8363          beqz            s5,38           # 0x8000599a

----------------
IN: 
Priv: 3; Virt: 0
0x0000000080005978:  94d6              add             s1,s1,s5
0x000000008000597a:  fe048fa3          sb              zero,-1(s1)
0x000000008000597e:  60e6              ld              ra,88(sp)
0x0000000080005980:  6446              ld              s0,80(sp)
0x0000000080005982:  64a6              ld              s1,72(sp)
0x0000000080005984:  6906              ld              s2,64(sp)
0x0000000080005986:  79e2              ld              s3,56(sp)
0x0000000080005988:  7a42              ld              s4,48(sp)
0x000000008000598a:  7aa2              ld              s5,40(sp)
0x000000008000598c:  7b02              ld              s6,32(sp)
0x000000008000598e:  6be2              ld              s7,24(sp)
0x0000000080005990:  6c42              ld              s8,16(sp)
0x0000000080005992:  6ca2              ld              s9,8(sp)
0x0000000080005994:  6d02              ld              s10,0(sp)
0x0000000080005996:  6125              addi            sp,sp,96
0x0000000080005998:  8082              ret             

----------------
IN: 
Priv: 3; Virt: 0
0x0000000080000c7c:  f2040593          addi            a1,s0,-224
0x0000000080000c80:  0000f517          auipc           a0,61440        # 0x8000fc80
0x0000000080000c84:  77050513          addi            a0,a0,1904
0x0000000080000c88:  2e0030ef          jal             ra,13024        # 0x80003f68

----------------
IN: 
Priv: 3; Virt: 0
0x0000000080000c8c:  8526              mv              a0,s1
0x0000000080000c8e:  2e7040ef          jal             ra,19174        # 0x80005774

----------------
IN: 
Priv: 3; Virt: 0
0x0000000080000c92:  0005059b          sext.w          a1,a0
0x0000000080000c96:  0000f517          auipc           a0,61440        # 0x8000fc96
0x0000000080000c9a:  77a50513          addi            a0,a0,1914
0x0000000080000c9e:  2ca030ef          jal             ra,13002        # 0x80003f68

----------------
IN: 
Priv: 3; Virt: 0
0x0000000080000ca2:  8526              mv              a0,s1
0x0000000080000ca4:  2e9040ef          jal             ra,19176        # 0x8000578c

----------------
IN: 
Priv: 3; Virt: 0
0x000000008000578c:  1141              addi            sp,sp,-16
0x000000008000578e:  e422              sd              s0,8(sp)
0x0000000080005790:  0800              addi            s0,sp,16
0x0000000080005792:  6422              ld              s0,8(sp)
0x0000000080005794:  0000e797          auipc           a5,57344        # 0x80013794
0x0000000080005798:  8f47b783          ld              a5,-1804(a5)
0x000000008000579c:  953e              add             a0,a0,a5
0x000000008000579e:  6908              ld              a0,16(a0)
0x00000000800057a0:  0141              addi            sp,sp,16
0x00000000800057a2:  8082              ret             

----------------
IN: 
Priv: 3; Virt: 0
0x0000000080000ca8:  85aa              mv              a1,a0
0x0000000080000caa:  0000f517          auipc           a0,61440        # 0x8000fcaa
0x0000000080000cae:  78650513          addi            a0,a0,1926
0x0000000080000cb2:  2b6030ef          jal             ra,12982        # 0x80003f68

----------------
IN: 
Priv: 3; Virt: 0
0x0000000080003d3e:  f7c43423          sd              t3,-152(s0)
0x0000000080003d42:  06100893          addi            a7,zero,97
0x0000000080003d46:  f7043823          sd              a6,-144(s0)
0x0000000080003d4a:  f6f43c23          sd              a5,-136(s0)
0x0000000080003d4e:  4701              mv              a4,zero
0x0000000080003d50:  46a9              addi            a3,zero,10
0x0000000080003d52:  85ea              mv              a1,s10
0x0000000080003d54:  8552              mv              a0,s4
0x0000000080003d56:  c3fff0ef          jal             ra,-962         # 0x80003994

----------------
IN: 
Priv: 3; Virt: 0
0x0000000080000cb6:  8526              mv              a0,s1
0x0000000080000cb8:  2ed040ef          jal             ra,19180        # 0x800057a4

----------------
IN: 
Priv: 3; Virt: 0
0x00000000800057a4:  1141              addi            sp,sp,-16
0x00000000800057a6:  e422              sd              s0,8(sp)
0x00000000800057a8:  0800              addi            s0,sp,16
0x00000000800057aa:  6422              ld              s0,8(sp)
0x00000000800057ac:  0000e797          auipc           a5,57344        # 0x800137ac
0x00000000800057b0:  8dc7b783          ld              a5,-1828(a5)
0x00000000800057b4:  953e              add             a0,a0,a5
0x00000000800057b6:  4548              lw              a0,12(a0)
0x00000000800057b8:  0141              addi            sp,sp,16
0x00000000800057ba:  8082              ret             

----------------
IN: 
Priv: 3; Virt: 0
0x0000000080000cbc:  0005059b          sext.w          a1,a0
0x0000000080000cc0:  0000f517          auipc           a0,61440        # 0x8000fcc0
0x0000000080000cc4:  79850513          addi            a0,a0,1944
0x0000000080000cc8:  2a0030ef          jal             ra,12960        # 0x80003f68

----------------
IN: 
Priv: 3; Virt: 0
0x0000000080000ccc:  8526              mv              a0,s1
0x0000000080000cce:  28f040ef          jal             ra,19086        # 0x8000575c

----------------
IN: 
Priv: 3; Virt: 0
0x000000008000575c:  1141              addi            sp,sp,-16
0x000000008000575e:  e422              sd              s0,8(sp)
0x0000000080005760:  0800              addi            s0,sp,16
0x0000000080005762:  6422              ld              s0,8(sp)
0x0000000080005764:  0000e797          auipc           a5,57344        # 0x80013764
0x0000000080005768:  9247b783          ld              a5,-1756(a5)
0x000000008000576c:  953e              add             a0,a0,a5
0x000000008000576e:  4d08              lw              a0,24(a0)
0x0000000080005770:  0141              addi            sp,sp,16
0x0000000080005772:  8082              ret             

----------------
IN: 
Priv: 3; Virt: 0
0x0000000080000cd2:  0005059b          sext.w          a1,a0
0x0000000080000cd6:  0000f517          auipc           a0,61440        # 0x8000fcd6
0x0000000080000cda:  7a250513          addi            a0,a0,1954
0x0000000080000cde:  28a030ef          jal             ra,12938        # 0x80003f68

----------------
IN: 
Priv: 3; Virt: 0
0x0000000080000ce2:  8526              mv              a0,s1
0x0000000080000ce4:  279040ef          jal             ra,19064        # 0x8000575c

----------------
IN: 
Priv: 3; Virt: 0
0x0000000080000ce8:  0005059b          sext.w          a1,a0
0x0000000080000cec:  0000f517          auipc           a0,61440        # 0x8000fcec
0x0000000080000cf0:  78c50513          addi            a0,a0,1932
0x0000000080000cf4:  274030ef          jal             ra,12916        # 0x80003f68

----------------
IN: 
Priv: 3; Virt: 0
0x0000000080000cf8:  0000f617          auipc           a2,61440        # 0x8000fcf8
0x0000000080000cfc:  7a060613          addi            a2,a2,1952
0x0000000080000d00:  0000f597          auipc           a1,61440        # 0x8000fd00
0x0000000080000d04:  7a858593          addi            a1,a1,1960
0x0000000080000d08:  8526              mv              a0,s1
0x0000000080000d0a:  205040ef          jal             ra,18948        # 0x8000570e

----------------
IN: 
Priv: 3; Virt: 0
0x000000008000570e:  1101              addi            sp,sp,-32
0x0000000080005710:  e822              sd              s0,16(sp)
0x0000000080005712:  e426              sd              s1,8(sp)
0x0000000080005714:  e04a              sd              s2,0(sp)
0x0000000080005716:  ec06              sd              ra,24(sp)
0x0000000080005718:  1000              addi            s0,sp,32
0x000000008000571a:  05300513          addi            a0,zero,83
0x000000008000571e:  84ae              mv              s1,a1
0x0000000080005720:  8932              mv              s2,a2
0x0000000080005722:  a4afd0ef          jal             ra,-11702       # 0x8000296c

----------------
IN: 
Priv: 3; Virt: 0
0x0000000080005726:  c50d              beqz            a0,42           # 0x80005750

----------------
IN: 
Priv: 3; Virt: 0
0x0000000080005728:  303026f3          csrrs           a3,mideleg,zero

----------------
IN: 
Priv: 3; Virt: 0
0x000000008000572c:  0000c517          auipc           a0,49152        # 0x8001172c
0x0000000080005730:  bd450513          addi            a0,a0,-1068
0x0000000080005734:  864a              mv              a2,s2
0x0000000080005736:  85a6              mv              a1,s1
0x0000000080005738:  831fe0ef          jal             ra,-6096        # 0x80003f68

----------------
IN: 
Priv: 3; Virt: 0
0x000000008000573c:  302026f3          csrrs           a3,medeleg,zero

----------------
IN: 
Priv: 3; Virt: 0
0x0000000080005740:  0000c517          auipc           a0,49152        # 0x80011740
0x0000000080005744:  bd850513          addi            a0,a0,-1064
0x0000000080005748:  864a              mv              a2,s2
0x000000008000574a:  85a6              mv              a1,s1
0x000000008000574c:  81dfe0ef          jal             ra,-6116        # 0x80003f68

----------------
IN: 
Priv: 3; Virt: 0
0x0000000080005750:  60e2              ld              ra,24(sp)
0x0000000080005752:  6442              ld              s0,16(sp)
0x0000000080005754:  64a2              ld              s1,8(sp)
0x0000000080005756:  6902              ld              s2,0(sp)
0x0000000080005758:  6105              addi            sp,sp,32
0x000000008000575a:  8082              ret             

----------------
IN: 
Priv: 3; Virt: 0
0x0000000080000d0e:  0304bb83          ld              s7,48(s1)
0x0000000080000d12:  0310000f          fence           rw,w
0x0000000080000d16:  4785              addi            a5,zero,1
0x0000000080000d18:  00012517          auipc           a0,73728        # 0x80012d18
0x0000000080000d1c:  30050513          addi            a0,a0,768
0x0000000080000d20:  00012717          auipc           a4,73728        # 0x80012d20
0x0000000080000d24:  2ef73823          sd              a5,752(a4)
0x0000000080000d28:  00011a97          auipc           s5,69632        # 0x80011d28
0x0000000080000d2c:  2e8a8a93          addi            s5,s5,744
0x0000000080000d30:  5d8020ef          jal             ra,9688         # 0x80003308

----------------
IN: 
Priv: 3; Virt: 0
0x0000000080000d34:  07f00c93          addi            s9,zero,127
0x0000000080000d38:  00012c17          auipc           s8,73728        # 0x80012d38
0x0000000080000d3c:  3c8c0c13          addi            s8,s8,968
0x0000000080000d40:  a031              j               12              # 0x80000d4c

----------------
IN: 
Priv: 3; Virt: 0
0x0000000080000d4c:  000b051b          sext.w          a0,s6
0x0000000080000d50:  fea909e3          beq             s2,a0,-14       # 0x80000d42

----------------
IN: 
Priv: 3; Virt: 0
0x0000000080000d42:  000aa783          lw              a5,0(s5)
0x0000000080000d46:  2b05              addiw           s6,s6,1
0x0000000080000d48:  0567e263          bgtu            s6,a5,68        # 0x80000d8c

----------------
IN: 
Priv: 3; Virt: 0
0x0000000080000d8c:  00012517          auipc           a0,73728        # 0x80012d8c
0x0000000080000d90:  28c50513          addi            a0,a0,652
0x0000000080000d94:  592020ef          jal             ra,9618         # 0x80003326

----------------
IN: 
Priv: 3; Virt: 0
0x0000000080000d98:  b649              j               -1150           # 0x8000091a

----------------
IN: 
Priv: 3; Virt: 0
0x000000008000091a:  000a3783          ld              a5,0(s4)
0x000000008000091e:  85ca              mv              a1,s2
0x0000000080000920:  8526              mv              a0,s1
0x0000000080000922:  97a6              add             a5,a5,s1
0x0000000080000924:  6398              ld              a4,0(a5)
0x0000000080000926:  0705              addi            a4,a4,1
0x0000000080000928:  e398              sd              a4,0(a5)
0x000000008000092a:  1ba070ef          jal             ra,29114        # 0x80007ae4

----------------
IN: 
Priv: 3; Virt: 0
0x0000000080007ae4:  1141              addi            sp,sp,-16
0x0000000080007ae6:  e022              sd              s0,0(sp)
0x0000000080007ae8:  e406              sd              ra,8(sp)
0x0000000080007aea:  0800              addi            s0,sp,16
0x0000000080007aec:  0000b797          auipc           a5,45056        # 0x80012aec
0x0000000080007af0:  5a47b783          ld              a5,1444(a5)
0x0000000080007af4:  953e              add             a0,a0,a5
0x0000000080007af6:  460d              addi            a2,zero,3
0x0000000080007af8:  4589              addi            a1,zero,2
0x0000000080007afa:  e92fb0ef          jal             ra,-18798       # 0x8000318c

----------------
IN: 
Priv: 3; Virt: 0
0x000000008000318c:  1141              addi            sp,sp,-16
0x000000008000318e:  e422              sd              s0,8(sp)
0x0000000080003190:  0800              addi            s0,sp,16
0x0000000080003192:  87aa              mv              a5,a0
0x0000000080003194:  0f50000f          fence           iorw,ow
0x0000000080003198:  1407b52f          lr.d.aq         a0,(a5)
0x000000008000319c:  00b51563          bne             a0,a1,10        # 0x800031a6

----------------
IN: 
Priv: 3; Virt: 0
0x00000000800031a0:  1cc7b72f          sc.d.aq         a4,a2,(a5)
0x00000000800031a4:  fb75              bnez            a4,-12          # 0x80003198

----------------
IN: 
Priv: 3; Virt: 0
0x00000000800031a6:  6422              ld              s0,8(sp)
0x00000000800031a8:  0141              addi            sp,sp,16
0x00000000800031aa:  8082              ret             

----------------
IN: 
Priv: 3; Virt: 0
0x0000000080007afe:  2501              sext.w          a0,a0
0x0000000080007b00:  4789              addi            a5,zero,2
0x0000000080007b02:  00f51663          bne             a0,a5,12        # 0x80007b0e

----------------
IN: 
Priv: 3; Virt: 0
0x0000000080007b06:  60a2              ld              ra,8(sp)
0x0000000080007b08:  6402              ld              s0,0(sp)
0x0000000080007b0a:  0141              addi            sp,sp,16
0x0000000080007b0c:  8082              ret             

----------------
IN: 
Priv: 3; Virt: 0
0x000000008000092e:  7094              ld              a3,32(s1)
0x0000000080000930:  6c90              ld              a2,24(s1)
0x0000000080000932:  688c              ld              a1,16(s1)
0x0000000080000934:  02099513          slli            a0,s3,32
0x0000000080000938:  4701              mv              a4,zero
0x000000008000093a:  9101              srli            a0,a0,32
0x000000008000093c:  715060ef          jal             ra,28436        # 0x80007850

----------------
IN: 
Priv: 3; Virt: 0
0x0000000080007850:  7139              addi            sp,sp,-64
0x0000000080007852:  f822              sd              s0,48(sp)
0x0000000080007854:  f426              sd              s1,40(sp)
0x0000000080007856:  f04a              sd              s2,32(sp)
0x0000000080007858:  ec4e              sd              s3,24(sp)
0x000000008000785a:  e852              sd              s4,16(sp)
0x000000008000785c:  e456              sd              s5,8(sp)
0x000000008000785e:  fc06              sd              ra,56(sp)
0x0000000080007860:  e05a              sd              s6,0(sp)
0x0000000080007862:  0080              addi            s0,sp,64
0x0000000080007864:  4785              addi            a5,zero,1
0x0000000080007866:  84b6              mv              s1,a3
0x0000000080007868:  8a2a              mv              s4,a0
0x000000008000786a:  89ae              mv              s3,a1
0x000000008000786c:  8932              mv              s2,a2
0x000000008000786e:  8aba              mv              s5,a4
0x0000000080007870:  02f68563          beq             a3,a5,42        # 0x8000789a

----------------
IN: 
Priv: 3; Virt: 0
0x000000008000789a:  05300513          addi            a0,zero,83
0x000000008000789e:  8cefb0ef          jal             ra,-20274       # 0x8000296c

----------------
IN: 
Priv: 3; Virt: 0
0x00000000800078a2:  e511              bnez            a0,12           # 0x800078ae

----------------
IN: 
Priv: 3; Virt: 0
0x00000000800078ae:  30002b73          csrrs           s6,mstatus,zero

----------------
IN: 
Priv: 3; Virt: 0
0x00000000800078b2:  77f9              lui             a5,-8192
0x00000000800078b4:  7ff78793          addi            a5,a5,2047
0x00000000800078b8:  00fb7b33          and             s6,s6,a5
0x00000000800078bc:  04800513          addi            a0,zero,72
0x00000000800078c0:  00b49793          slli            a5,s1,11
0x00000000800078c4:  00fb6b33          or              s6,s6,a5
0x00000000800078c8:  8a4fb0ef          jal             ra,-20316       # 0x8000296c

----------------
IN: 
Priv: 3; Virt: 0
0x00000000800078cc:  f7fb7793          andi            a5,s6,-129
0x00000000800078d0:  c511              beqz            a0,12           # 0x800078dc

----------------
IN: 
Priv: 3; Virt: 0
0x00000000800078dc:  30079073          csrrw           zero,mstatus,a5

----------------
IN: 
Priv: 3; Virt: 0
0x00000000800078e0:  34191073          csrrw           zero,mepc,s2

----------------
IN: 
Priv: 3; Virt: 0
0x00000000800078e4:  4785              addi            a5,zero,1
0x00000000800078e6:  02f48a63          beq             s1,a5,52        # 0x8000791a

----------------
IN: 
Priv: 3; Virt: 0
0x000000008000791a:  10591073          csrrw           zero,stvec,s2

----------------
IN: 
Priv: 3; Virt: 0
0x000000008000791e:  14005073          csrrwi          zero,sscratch,0

----------------
IN: 
Priv: 3; Virt: 0
0x0000000080007922:  10405073          csrrwi          zero,sie,0

----------------
IN: 
Priv: 3; Virt: 0
0x0000000080007926:  18005073          csrrwi          zero,satp,0

----------------
IN: 
Priv: 3; Virt: 0
0x000000008000792a:  b7c9              j               -62             # 0x800078ec

----------------
IN: 
Priv: 3; Virt: 0
0x00000000800078ec:  8552              mv              a0,s4
0x00000000800078ee:  85ce              mv              a1,s3
0x00000000800078f0:  30200073          mret            

----------------
IN: 
Priv: 1; Virt: 0
0x0000000080200000:  00014117          auipc           sp,81920        # 0x80214000
0x0000000080200004:  00010113          mv              sp,sp
0x0000000080200008:  00000097          auipc           ra,0            # 0x80200008
0x000000008020000c:  44a080e7          jalr            ra,ra,1098

----------------
IN: 
Priv: 1; Virt: 0
0x0000000080200452:  715d              addi            sp,sp,-80
0x0000000080200454:  e486              sd              ra,72(sp)
0x0000000080200456:  e0a2              sd              s0,64(sp)
0x0000000080200458:  0880              addi            s0,sp,80
0x000000008020045a:  00002517          auipc           a0,8192         # 0x8020245a
0x000000008020045e:  da650593          addi            a1,a0,-602
0x0000000080200462:  fb840513          addi            a0,s0,-72
0x0000000080200466:  faa43823          sd              a0,-80(s0)
0x000000008020046a:  4605              addi            a2,zero,1
0x000000008020046c:  00000097          auipc           ra,0            # 0x8020046c
0x0000000080200470:  cb0080e7          jalr            ra,ra,-848

----------------
IN: 
Priv: 1; Virt: 0
0x000000008020011c:  7159              addi            sp,sp,-112
0x000000008020011e:  f486              sd              ra,104(sp)
0x0000000080200120:  f0a2              sd              s0,96(sp)
0x0000000080200122:  1880              addi            s0,sp,112
0x0000000080200124:  f8c43c23          sd              a2,-104(s0)
0x0000000080200128:  fab43023          sd              a1,-96(s0)
0x000000008020012c:  faa43423          sd              a0,-88(s0)
0x0000000080200130:  feb43023          sd              a1,-32(s0)
0x0000000080200134:  fec43423          sd              a2,-24(s0)
0x0000000080200138:  4505              addi            a0,zero,1
0x000000008020013a:  02c56e63          bgtu            a2,a0,60        # 0x80200176

----------------
IN: 
Priv: 1; Virt: 0
0x000000008020013e:  a009              j               2               # 0x80200140

----------------
IN: 
Priv: 1; Virt: 0
0x0000000080200140:  fa843583          ld              a1,-88(s0)
0x0000000080200144:  f9843503          ld              a0,-104(s0)
0x0000000080200148:  fa043603          ld              a2,-96(s0)
0x000000008020014c:  e190              sd              a2,0(a1)
0x000000008020014e:  e588              sd              a0,8(a1)
0x0000000080200150:  00002517          auipc           a0,8192         # 0x80202150
0x0000000080200154:  ec050513          addi            a0,a0,-320
0x0000000080200158:  6110              ld              a2,0(a0)
0x000000008020015a:  6508              ld              a0,8(a0)
0x000000008020015c:  f190              sd              a2,32(a1)
0x000000008020015e:  f588              sd              a0,40(a1)
0x0000000080200160:  00002517          auipc           a0,8192         # 0x80202160
0x0000000080200164:  ee050513          addi            a0,a0,-288
0x0000000080200168:  e988              sd              a0,16(a1)
0x000000008020016a:  4501              mv              a0,zero
0x000000008020016c:  ed88              sd              a0,24(a1)
0x000000008020016e:  70a6              ld              ra,104(sp)
0x0000000080200170:  7406              ld              s0,96(sp)
0x0000000080200172:  6165              addi            sp,sp,112
0x0000000080200174:  8082              ret             

----------------
IN: 
Priv: 1; Virt: 0
0x0000000080200474:  fb043503          ld              a0,-80(s0)
0x0000000080200478:  00000097          auipc           ra,0            # 0x80200478
0x000000008020047c:  3c0080e7          jalr            ra,ra,960

----------------
IN: 
Priv: 1; Virt: 0
0x0000000080200838:  715d              addi            sp,sp,-80
0x000000008020083a:  e486              sd              ra,72(sp)
0x000000008020083c:  e0a2              sd              s0,64(sp)
0x000000008020083e:  0880              addi            s0,sp,80
0x0000000080200840:  750c              ld              a1,40(a0)
0x0000000080200842:  feb43023          sd              a1,-32(s0)
0x0000000080200846:  710c              ld              a1,32(a0)
0x0000000080200848:  fcb43c23          sd              a1,-40(s0)
0x000000008020084c:  6d0c              ld              a1,24(a0)
0x000000008020084e:  fcb43823          sd              a1,-48(s0)
0x0000000080200852:  690c              ld              a1,16(a0)
0x0000000080200854:  fcb43423          sd              a1,-56(s0)
0x0000000080200858:  650c              ld              a1,8(a0)
0x000000008020085a:  fcb43023          sd              a1,-64(s0)
0x000000008020085e:  6108              ld              a0,0(a0)
0x0000000080200860:  faa43c23          sd              a0,-72(s0)
0x0000000080200864:  fb740513          addi            a0,s0,-73
0x0000000080200868:  fb840593          addi            a1,s0,-72
0x000000008020086c:  00000097          auipc           ra,0            # 0x8020086c
0x0000000080200870:  0f8080e7          jalr            ra,ra,248

----------------
IN: 
Priv: 1; Virt: 0
0x0000000080200964:  1101              addi            sp,sp,-32
0x0000000080200966:  ec06              sd              ra,24(sp)
0x0000000080200968:  e822              sd              s0,16(sp)
0x000000008020096a:  1000              addi            s0,sp,32
0x000000008020096c:  fea43423          sd              a0,-24(s0)
0x0000000080200970:  00000097          auipc           ra,0            # 0x80200970
0x0000000080200974:  010080e7          jalr            ra,ra,16

----------------
IN: 
Priv: 1; Virt: 0
0x0000000080200980:  1101              addi            sp,sp,-32
0x0000000080200982:  ec06              sd              ra,24(sp)
0x0000000080200984:  e822              sd              s0,16(sp)
0x0000000080200986:  1000              addi            s0,sp,32
0x0000000080200988:  862e              mv              a2,a1
0x000000008020098a:  fea43423          sd              a0,-24(s0)
0x000000008020098e:  00002597          auipc           a1,8192         # 0x8020298e
0x0000000080200992:  9aa58593          addi            a1,a1,-1622
0x0000000080200996:  00001097          auipc           ra,4096         # 0x80201996
0x000000008020099a:  9f8080e7          jalr            ra,ra,-1544

----------------
IN: 
Priv: 1; Virt: 0
0x000000008020138e:  7175              addi            sp,sp,-144
0x0000000080201390:  e506              sd              ra,136(sp)
0x0000000080201392:  e122              sd              s0,128(sp)
0x0000000080201394:  fca6              sd              s1,120(sp)
0x0000000080201396:  f8ca              sd              s2,112(sp)
0x0000000080201398:  f4ce              sd              s3,104(sp)
0x000000008020139a:  f0d2              sd              s4,96(sp)
0x000000008020139c:  ecd6              sd              s5,88(sp)
0x000000008020139e:  e8da              sd              s6,80(sp)
0x00000000802013a0:  e4de              sd              s7,72(sp)
0x00000000802013a2:  e0e2              sd              s8,64(sp)
0x00000000802013a4:  89b2              mv              s3,a2
0x00000000802013a6:  02000613          addi            a2,zero,32
0x00000000802013aa:  f832              sd              a2,48(sp)
0x00000000802013ac:  460d              addi            a2,zero,3
0x00000000802013ae:  02c10c23          sb              a2,56(sp)
0x00000000802013b2:  0209b483          ld              s1,32(s3)
0x00000000802013b6:  e002              sd              zero,0(sp)
0x00000000802013b8:  e802              sd              zero,16(sp)
0x00000000802013ba:  f02a              sd              a0,32(sp)
0x00000000802013bc:  f42e              sd              a1,40(sp)
0x00000000802013be:  c0f9              beqz            s1,198          # 0x80201484

----------------
IN: 
Priv: 1; Virt: 0
0x0000000080201484:  0189b503          ld              a0,24(s3)
0x0000000080201488:  c539              beqz            a0,78           # 0x802014d6

----------------
IN: 
Priv: 1; Virt: 0
0x00000000802014d6:  4901              mv              s2,zero
0x00000000802014d8:  0089b503          ld              a0,8(s3)
0x00000000802014dc:  02a07163          bleu            a0,zero,34      # 0x802014fe

----------------
IN: 
Priv: 1; Virt: 0
0x00000000802014e0:  0009b503          ld              a0,0(s3)
0x00000000802014e4:  0912              slli            s2,s2,4
0x00000000802014e6:  992a              add             s2,s2,a0
0x00000000802014e8:  76a2              ld              a3,40(sp)
0x00000000802014ea:  7502              ld              a0,32(sp)
0x00000000802014ec:  00093583          ld              a1,0(s2)
0x00000000802014f0:  00893603          ld              a2,8(s2)
0x00000000802014f4:  6e94              ld              a3,24(a3)
0x00000000802014f6:  9682              jalr            ra,a3,0

----------------
IN: 
Priv: 1; Virt: 0
0x00000000802007a0:  7159              addi            sp,sp,-112
0x00000000802007a2:  f486              sd              ra,104(sp)
0x00000000802007a4:  f0a2              sd              s0,96(sp)
0x00000000802007a6:  1880              addi            s0,sp,112
0x00000000802007a8:  fac43023          sd              a2,-96(s0)
0x00000000802007ac:  862e              mv              a2,a1
0x00000000802007ae:  fa043583          ld              a1,-96(s0)
0x00000000802007b2:  fac43423          sd              a2,-88(s0)
0x00000000802007b6:  862a              mv              a2,a0
0x00000000802007b8:  fa843503          ld              a0,-88(s0)
0x00000000802007bc:  fcc43823          sd              a2,-48(s0)
0x00000000802007c0:  fca43c23          sd              a0,-40(s0)
0x00000000802007c4:  feb43023          sd              a1,-32(s0)
0x00000000802007c8:  00000097          auipc           ra,0            # 0x802007c8
0x00000000802007cc:  4b6080e7          jalr            ra,ra,1206

----------------
IN: 
Priv: 1; Virt: 0
0x0000000080200c7e:  7119              addi            sp,sp,-128
0x0000000080200c80:  fc86              sd              ra,120(sp)
0x0000000080200c82:  f8a2              sd              s0,112(sp)
0x0000000080200c84:  0100              addi            s0,sp,128
0x0000000080200c86:  f8b43023          sd              a1,-128(s0)
0x0000000080200c8a:  85aa              mv              a1,a0
0x0000000080200c8c:  f8043503          ld              a0,-128(s0)
0x0000000080200c90:  fab43823          sd              a1,-80(s0)
0x0000000080200c94:  faa43c23          sd              a0,-72(s0)
0x0000000080200c98:  fcb43023          sd              a1,-64(s0)
0x0000000080200c9c:  fca43423          sd              a0,-56(s0)
0x0000000080200ca0:  fcb43823          sd              a1,-48(s0)
0x0000000080200ca4:  fca43c23          sd              a0,-40(s0)
0x0000000080200ca8:  952e              add             a0,a0,a1
0x0000000080200caa:  fea43023          sd              a0,-32(s0)
0x0000000080200cae:  feb43423          sd              a1,-24(s0)
0x0000000080200cb2:  fab43423          sd              a1,-88(s0)
0x0000000080200cb6:  fa843583          ld              a1,-88(s0)
0x0000000080200cba:  f8b43c23          sd              a1,-104(s0)
0x0000000080200cbe:  faa43023          sd              a0,-96(s0)
0x0000000080200cc2:  f9843583          ld              a1,-104(s0)
0x0000000080200cc6:  fa043503          ld              a0,-96(s0)
0x0000000080200cca:  f8b43423          sd              a1,-120(s0)
0x0000000080200cce:  f8a43823          sd              a0,-112(s0)
0x0000000080200cd2:  f8843503          ld              a0,-120(s0)
0x0000000080200cd6:  f9043583          ld              a1,-112(s0)
0x0000000080200cda:  70e6              ld              ra,120(sp)
0x0000000080200cdc:  7446              ld              s0,112(sp)
0x0000000080200cde:  6109              addi            sp,sp,128
0x0000000080200ce0:  8082              ret             

----------------
IN: 
Priv: 1; Virt: 0
0x00000000802007d0:  00001097          auipc           ra,4096         # 0x802017d0
0x00000000802007d4:  87e080e7          jalr            ra,ra,-1922

----------------
IN: 
Priv: 1; Virt: 0
0x000000008020104e:  1101              addi            sp,sp,-32
0x0000000080201050:  ec06              sd              ra,24(sp)
0x0000000080201052:  e822              sd              s0,16(sp)
0x0000000080201054:  1000              addi            s0,sp,32
0x0000000080201056:  fea43023          sd              a0,-32(s0)
0x000000008020105a:  feb43423          sd              a1,-24(s0)
0x000000008020105e:  60e2              ld              ra,24(sp)
0x0000000080201060:  6442              ld              s0,16(sp)
0x0000000080201062:  6105              addi            sp,sp,32
0x0000000080201064:  8082              ret             

----------------
IN: 
Priv: 1; Virt: 0
0x00000000802007d8:  faa43c23          sd              a0,-72(s0)
0x00000000802007dc:  fcb43023          sd              a1,-64(s0)
0x00000000802007e0:  a009              j               2               # 0x802007e2

----------------
IN: 
Priv: 1; Virt: 0
0x00000000802007e2:  fb840513          addi            a0,s0,-72
0x00000000802007e6:  00000097          auipc           ra,0            # 0x802007e6
0x00000000802007ea:  0cc080e7          jalr            ra,ra,204

----------------
IN: 
Priv: 1; Virt: 0
0x00000000802008b2:  7139              addi            sp,sp,-64
0x00000000802008b4:  fc06              sd              ra,56(sp)
0x00000000802008b6:  f822              sd              s0,48(sp)
0x00000000802008b8:  0080              addi            s0,sp,64
0x00000000802008ba:  4585              addi            a1,zero,1
0x00000000802008bc:  05ae              slli            a1,a1,11
0x00000000802008be:  fcb42823          sw              a1,-48(s0)
0x00000000802008c2:  fea43023          sd              a0,-32(s0)
0x00000000802008c6:  00000097          auipc           ra,0            # 0x802008c6
0x00000000802008ca:  4e0080e7          jalr            ra,ra,1248

----------------
IN: 
Priv: 1; Virt: 0
0x0000000080200da6:  7155              addi            sp,sp,-208
0x0000000080200da8:  e586              sd              ra,200(sp)
0x0000000080200daa:  e1a2              sd              s0,192(sp)
0x0000000080200dac:  0980              addi            s0,sp,208
0x0000000080200dae:  f4a43c23          sd              a0,-168(s0)
0x0000000080200db2:  4589              addi            a1,zero,2
0x0000000080200db4:  f6b42223          sw              a1,-156(s0)
0x0000000080200db8:  faa43023          sd              a0,-96(s0)
0x0000000080200dbc:  00000097          auipc           ra,0            # 0x80200dbc
0x0000000080200dc0:  196080e7          jalr            ra,ra,406

----------------
IN: 
Priv: 1; Virt: 0
0x0000000080200f52:  7115              addi            sp,sp,-224
0x0000000080200f54:  ed86              sd              ra,216(sp)
0x0000000080200f56:  e9a2              sd              s0,208(sp)
0x0000000080200f58:  1180              addi            s0,sp,224
0x0000000080200f5a:  f2a43023          sd              a0,-224(s0)
0x0000000080200f5e:  4585              addi            a1,zero,1
0x0000000080200f60:  f2b43423          sd              a1,-216(s0)
0x0000000080200f64:  f2b43823          sd              a1,-208(s0)
0x0000000080200f68:  f2b43c23          sd              a1,-200(s0)
0x0000000080200f6c:  f6a43423          sd              a0,-152(s0)
0x0000000080200f70:  4501              mv              a0,zero
0x0000000080200f72:  ed15              bnez            a0,60           # 0x80200fae

----------------
IN: 
Priv: 1; Virt: 0
0x0000000080200f74:  a009              j               2               # 0x80200f76

----------------
IN: 
Priv: 1; Virt: 0
0x0000000080200f76:  f2043503          ld              a0,-224(s0)
0x0000000080200f7a:  00850593          addi            a1,a0,8
0x0000000080200f7e:  f6b43823          sd              a1,-144(s0)
0x0000000080200f82:  650c              ld              a1,8(a0)
0x0000000080200f84:  f4b43823          sd              a1,-176(s0)
0x0000000080200f88:  f6a43c23          sd              a0,-136(s0)
0x0000000080200f8c:  f5040593          addi            a1,s0,-176
0x0000000080200f90:  f8b43023          sd              a1,-128(s0)
0x0000000080200f94:  6108              ld              a0,0(a0)
0x0000000080200f96:  f8a43423          sd              a0,-120(s0)
0x0000000080200f9a:  f5043583          ld              a1,-176(s0)
0x0000000080200f9e:  f8b43823          sd              a1,-112(s0)
0x0000000080200fa2:  8d2d              xor             a0,a0,a1
0x0000000080200fa4:  00153513          seqz            a0,a0
0x0000000080200fa8:  f4a407a3          sb              a0,-177(s0)
0x0000000080200fac:  a829              j               26              # 0x80200fc6

----------------
IN: 
Priv: 1; Virt: 0
0x0000000080200fc6:  f4f44503          lbu             a0,-177(s0)
0x0000000080200fca:  8905              andi            a0,a0,1
0x0000000080200fcc:  e911              bnez            a0,20           # 0x80200fe0

----------------
IN: 
Priv: 1; Virt: 0
0x0000000080200fce:  a009              j               2               # 0x80200fd0

----------------
IN: 
Priv: 1; Virt: 0
0x0000000080200fd0:  f2043503          ld              a0,-224(s0)
0x0000000080200fd4:  6108              ld              a0,0(a0)
0x0000000080200fd6:  f4a43c23          sd              a0,-168(s0)
0x0000000080200fda:  4501              mv              a0,zero
0x0000000080200fdc:  e905              bnez            a0,48           # 0x8020100c

----------------
IN: 
Priv: 1; Virt: 0
0x0000000080200fde:  a029              j               10              # 0x80200fe8

----------------
IN: 
Priv: 1; Virt: 0
0x0000000080200fe8:  f2043583          ld              a1,-224(s0)
0x0000000080200fec:  00858513          addi            a0,a1,8
0x0000000080200ff0:  faa43423          sd              a0,-88(s0)
0x0000000080200ff4:  faa43823          sd              a0,-80(s0)
0x0000000080200ff8:  6188              ld              a0,0(a1)
0x0000000080200ffa:  faa43c23          sd              a0,-72(s0)
0x0000000080200ffe:  0505              addi            a0,a0,1

----------------
IN: 
Priv: 1; Virt: 0
0x0000000080201000:  f6a43023          sd              a0,-160(s0)
0x0000000080201004:  f6043503          ld              a0,-160(s0)
0x0000000080201008:  e188              sd              a0,0(a1)
0x000000008020100a:  a839              j               30              # 0x80201028

----------------
IN: 
Priv: 1; Virt: 0
0x0000000080201028:  f5840513          addi            a0,s0,-168
0x000000008020102c:  fca43c23          sd              a0,-40(s0)
0x0000000080201030:  f5843503          ld              a0,-168(s0)
0x0000000080201034:  fea43023          sd              a0,-32(s0)
0x0000000080201038:  fea43423          sd              a0,-24(s0)
0x000000008020103c:  f4a43023          sd              a0,-192(s0)
0x0000000080201040:  a009              j               2               # 0x80201042

----------------
IN: 
Priv: 1; Virt: 0
0x0000000080201042:  f4043503          ld              a0,-192(s0)
0x0000000080201046:  60ee              ld              ra,216(sp)
0x0000000080201048:  644e              ld              s0,208(sp)
0x000000008020104a:  612d              addi            sp,sp,224
0x000000008020104c:  8082              ret             

----------------
IN: 
Priv: 1; Virt: 0
0x0000000080200dc4:  f6a43c23          sd              a0,-136(s0)
0x0000000080200dc8:  f7843503          ld              a0,-136(s0)
0x0000000080200dcc:  e511              bnez            a0,12           # 0x80200dd8

----------------
IN: 
Priv: 1; Virt: 0
0x0000000080200dd8:  f7843503          ld              a0,-136(s0)
0x0000000080200ddc:  faa43423          sd              a0,-88(s0)
0x0000000080200de0:  f6a43823          sd              a0,-144(s0)
0x0000000080200de4:  a009              j               2               # 0x80200de6

----------------
IN: 
Priv: 1; Virt: 0
0x0000000080200de6:  f7043503          ld              a0,-144(s0)
0x0000000080200dea:  c10d              beqz            a0,34           # 0x80200e0c

----------------
IN: 
Priv: 1; Virt: 0
0x0000000080200dec:  a009              j               2               # 0x80200dee

----------------
IN: 
Priv: 1; Virt: 0
0x0000000080200dee:  f7043503          ld              a0,-144(s0)
0x0000000080200df2:  faa43823          sd              a0,-80(s0)
0x0000000080200df6:  00050503          lb              a0,0(a0)
0x0000000080200dfa:  0ff57593          andi            a1,a0,255
0x0000000080200dfe:  f4b43823          sd              a1,-176(s0)
0x0000000080200e02:  faa40da3          sb              a0,-69(s0)
0x0000000080200e06:  06055e63          bgez            a0,124          # 0x80200e82

----------------
IN: 
Priv: 1; Virt: 0
0x0000000080200e82:  f5043503          ld              a0,-176(s0)
0x0000000080200e86:  0ff57513          andi            a0,a0,255
0x0000000080200e8a:  f6a42623          sw              a0,-148(s0)
0x0000000080200e8e:  4505              addi            a0,zero,1
0x0000000080200e90:  f6a42423          sw              a0,-152(s0)
0x0000000080200e94:  a07d              j               174             # 0x80200f42

----------------
IN: 
Priv: 1; Virt: 0
0x0000000080200f42:  f6842503          lw              a0,-152(s0)
0x0000000080200f46:  f6c42583          lw              a1,-148(s0)
0x0000000080200f4a:  60ae              ld              ra,200(sp)
0x0000000080200f4c:  640e              ld              s0,192(sp)
0x0000000080200f4e:  6169              addi            sp,sp,208
0x0000000080200f50:  8082              ret             

----------------
IN: 
Priv: 1; Virt: 0
0x00000000802008ce:  fca42c23          sw              a0,-40(s0)
0x00000000802008d2:  fcb42e23          sw              a1,-36(s0)
0x00000000802008d6:  fd842503          lw              a0,-40(s0)
0x00000000802008da:  e519              bnez            a0,14           # 0x802008e8

----------------
IN: 
Priv: 1; Virt: 0
0x00000000802008e8:  fdc42503          lw              a0,-36(s0)
0x00000000802008ec:  fea42623          sw              a0,-20(s0)
0x00000000802008f0:  fca42a23          sw              a0,-44(s0)
0x00000000802008f4:  a009              j               2               # 0x802008f6

----------------
IN: 
Priv: 1; Virt: 0
0x00000000802008f6:  fd442503          lw              a0,-44(s0)
0x00000000802008fa:  70e2              ld              ra,56(sp)
0x00000000802008fc:  7442              ld              s0,48(sp)
0x00000000802008fe:  6121              addi            sp,sp,64
0x0000000080200900:  8082              ret             

----------------
IN: 
Priv: 1; Virt: 0
0x00000000802007ee:  fca42423          sw              a0,-56(s0)
0x00000000802007f2:  fc842503          lw              a0,-56(s0)
0x00000000802007f6:  001105b7          lui             a1,1114112
0x00000000802007fa:  00b51c63          bne             a0,a1,24        # 0x80200812

----------------
IN: 
Priv: 1; Virt: 0
0x0000000080200812:  fc842503          lw              a0,-56(s0)
0x0000000080200816:  f8a43c23          sd              a0,-104(s0)
0x000000008020081a:  fea42623          sw              a0,-20(s0)
0x000000008020081e:  00001097          auipc           ra,4096         # 0x8020181e
0x0000000080200822:  8d8080e7          jalr            ra,ra,-1832

----------------
IN: 
Priv: 1; Virt: 0
0x00000000802010f6:  1141              addi            sp,sp,-16
0x00000000802010f8:  e406              sd              ra,8(sp)
0x00000000802010fa:  e022              sd              s0,0(sp)
0x00000000802010fc:  0800              addi            s0,sp,16
0x00000000802010fe:  453d              addi            a0,zero,15
0x0000000080201100:  00000097          auipc           ra,0            # 0x80201100
0x0000000080201104:  018080e7          jalr            ra,ra,24

----------------
IN: 
Priv: 1; Virt: 0
0x0000000080201118:  1101              addi            sp,sp,-32
0x000000008020111a:  ec06              sd              ra,24(sp)
0x000000008020111c:  e822              sd              s0,16(sp)
0x000000008020111e:  1000              addi            s0,sp,32
0x0000000080201120:  fea43423          sd              a0,-24(s0)
0x0000000080201124:  fea43023          sd              a0,-32(s0)
0x0000000080201128:  fe043503          ld              a0,-32(s0)
0x000000008020112c:  60e2              ld              ra,24(sp)
0x000000008020112e:  6442              ld              s0,16(sp)
0x0000000080201130:  6105              addi            sp,sp,32
0x0000000080201132:  8082              ret             

----------------
IN: 
Priv: 1; Virt: 0
0x0000000080201108:  00000097          auipc           ra,0            # 0x80201108
0x000000008020110c:  076080e7          jalr            ra,ra,118

----------------
IN: 
Priv: 1; Virt: 0
0x000000008020117e:  1101              addi            sp,sp,-32
0x0000000080201180:  ec06              sd              ra,24(sp)
0x0000000080201182:  e822              sd              s0,16(sp)
0x0000000080201184:  1000              addi            s0,sp,32
0x0000000080201186:  fea43423          sd              a0,-24(s0)
0x000000008020118a:  60e2              ld              ra,24(sp)
0x000000008020118c:  6442              ld              s0,16(sp)
0x000000008020118e:  6105              addi            sp,sp,32
0x0000000080201190:  8082              ret             

----------------
IN: 
Priv: 1; Virt: 0
0x0000000080201110:  60a2              ld              ra,8(sp)
0x0000000080201112:  6402              ld              s0,0(sp)
0x0000000080201114:  0141              addi            sp,sp,16
0x0000000080201116:  8082              ret             

----------------
IN: 
Priv: 1; Virt: 0
0x0000000080200826:  f9843583          ld              a1,-104(s0)
0x000000008020082a:  fcf40513          addi            a0,s0,-49
0x000000008020082e:  00001097          auipc           ra,4096         # 0x8020182e
0x0000000080200832:  964080e7          jalr            ra,ra,-1692

----------------
IN: 
Priv: 1; Virt: 0
0x0000000080201192:  1101              addi            sp,sp,-32
0x0000000080201194:  ec06              sd              ra,24(sp)
0x0000000080201196:  e822              sd              s0,16(sp)
0x0000000080201198:  1000              addi            s0,sp,32
0x000000008020119a:  fea43023          sd              a0,-32(s0)
0x000000008020119e:  feb407a3          sb              a1,-17(s0)
0x00000000802011a2:  0ff5f593          andi            a1,a1,255
0x00000000802011a6:  4505              addi            a0,zero,1
0x00000000802011a8:  4681              mv              a3,zero
0x00000000802011aa:  8636              mv              a2,a3
0x00000000802011ac:  00000097          auipc           ra,0            # 0x802011ac
0x00000000802011b0:  f88080e7          jalr            ra,ra,-120

----------------
IN: 
Priv: 1; Virt: 0
0x0000000080201134:  715d              addi            sp,sp,-80
0x0000000080201136:  e486              sd              ra,72(sp)
0x0000000080201138:  e0a2              sd              s0,64(sp)
0x000000008020113a:  0880              addi            s0,sp,80
0x000000008020113c:  fad43823          sd              a3,-80(s0)
0x0000000080201140:  86b2              mv              a3,a2
0x0000000080201142:  fb043603          ld              a2,-80(s0)
0x0000000080201146:  fad43c23          sd              a3,-72(s0)
0x000000008020114a:  86ae              mv              a3,a1
0x000000008020114c:  fb843583          ld              a1,-72(s0)
0x0000000080201150:  fcd43023          sd              a3,-64(s0)
0x0000000080201154:  88aa              mv              a7,a0
0x0000000080201156:  fc043503          ld              a0,-64(s0)
0x000000008020115a:  fd143823          sd              a7,-48(s0)
0x000000008020115e:  fca43c23          sd              a0,-40(s0)
0x0000000080201162:  feb43023          sd              a1,-32(s0)
0x0000000080201166:  fec43423          sd              a2,-24(s0)
0x000000008020116a:  00000073          ecall           

riscv_cpu_do_interrupt: hart:0, async:0, cause:0000000000000009, epc:0x000000008020116a, tval:0x0000000000000000, desc=supervisor_ecall
----------------
IN: 
Priv: 3; Virt: 0
0x0000000080000520:  34021273          csrrw           tp,mscratch,tp

----------------
IN: 
Priv: 3; Virt: 0
0x0000000080000524:  04523423          sd              t0,72(tp)
0x0000000080000528:  300022f3          csrrs           t0,mstatus,zero

----------------
IN: 
Priv: 3; Virt: 0
0x000000008000052c:  00b2d293          srli            t0,t0,11
0x0000000080000530:  0032f293          andi            t0,t0,3
0x0000000080000534:  0032a293          slti            t0,t0,3
0x0000000080000538:  12fd              addi            t0,t0,-1
0x000000008000053a:  00414133          xor             sp,sp,tp
0x000000008000053e:  0022f2b3          and             t0,t0,sp
0x0000000080000542:  00414133          xor             sp,sp,tp
0x0000000080000546:  005242b3          xor             t0,tp,t0
0x000000008000054a:  ee22bc23          sd              sp,-264(t0)
0x000000008000054e:  ee828113          addi            sp,t0,-280
0x0000000080000552:  04823283          ld              t0,72(tp)
0x0000000080000556:  f416              sd              t0,40(sp)
0x0000000080000558:  34021273          csrrw           tp,mscratch,tp

----------------
IN: 
Priv: 3; Virt: 0
0x000000008000055c:  341022f3          csrrs           t0,mepc,zero

----------------
IN: 
Priv: 3; Virt: 0
0x0000000080000560:  e216              sd              t0,256(sp)
0x0000000080000562:  300022f3          csrrs           t0,mstatus,zero

----------------
IN: 
Priv: 3; Virt: 0
0x0000000080000566:  e616              sd              t0,264(sp)
0x0000000080000568:  ea02              sd              zero,272(sp)
0x000000008000056a:  e002              sd              zero,0(sp)
0x000000008000056c:  e406              sd              ra,8(sp)
0x000000008000056e:  ec0e              sd              gp,24(sp)
0x0000000080000570:  f012              sd              tp,32(sp)
0x0000000080000572:  f81a              sd              t1,48(sp)
0x0000000080000574:  fc1e              sd              t2,56(sp)
0x0000000080000576:  e0a2              sd              s0,64(sp)
0x0000000080000578:  e4a6              sd              s1,72(sp)
0x000000008000057a:  e8aa              sd              a0,80(sp)
0x000000008000057c:  ecae              sd              a1,88(sp)
0x000000008000057e:  f0b2              sd              a2,96(sp)
0x0000000080000580:  f4b6              sd              a3,104(sp)
0x0000000080000582:  f8ba              sd              a4,112(sp)
0x0000000080000584:  fcbe              sd              a5,120(sp)
0x0000000080000586:  e142              sd              a6,128(sp)
0x0000000080000588:  e546              sd              a7,136(sp)
0x000000008000058a:  e94a              sd              s2,144(sp)
0x000000008000058c:  ed4e              sd              s3,152(sp)
0x000000008000058e:  f152              sd              s4,160(sp)
0x0000000080000590:  f556              sd              s5,168(sp)
0x0000000080000592:  f95a              sd              s6,176(sp)
0x0000000080000594:  fd5e              sd              s7,184(sp)
0x0000000080000596:  e1e2              sd              s8,192(sp)
0x0000000080000598:  e5e6              sd              s9,200(sp)
0x000000008000059a:  e9ea              sd              s10,208(sp)
0x000000008000059c:  edee              sd              s11,216(sp)
0x000000008000059e:  f1f2              sd              t3,224(sp)
0x00000000800005a0:  f5f6              sd              t4,232(sp)
0x00000000800005a2:  f9fa              sd              t5,240(sp)
0x00000000800005a4:  fdfe              sd              t6,248(sp)
0x00000000800005a6:  00010533          add             a0,sp,zero
0x00000000800005aa:  415010ef          jal             ra,7188         # 0x800021be

----------------
IN: 
Priv: 3; Virt: 0
0x00000000800021be:  7159              addi            sp,sp,-112
0x00000000800021c0:  f0a2              sd              s0,96(sp)
0x00000000800021c2:  e8ca              sd              s2,80(sp)
0x00000000800021c4:  f486              sd              ra,104(sp)
0x00000000800021c6:  eca6              sd              s1,88(sp)
0x00000000800021c8:  e4ce              sd              s3,72(sp)
0x00000000800021ca:  e0d2              sd              s4,64(sp)
0x00000000800021cc:  fc56              sd              s5,56(sp)
0x00000000800021ce:  f85a              sd              s6,48(sp)
0x00000000800021d0:  1880              addi            s0,sp,112
0x00000000800021d2:  892a              mv              s2,a0
0x00000000800021d4:  342024f3          csrrs           s1,mcause,zero

----------------
IN: 
Priv: 3; Virt: 0
0x00000000800021d8:  8aa6              mv              s5,s1
0x00000000800021da:  34302a73          csrrs           s4,mtval,zero

----------------
IN: 
Priv: 3; Virt: 0
0x00000000800021de:  04800513          addi            a0,zero,72
0x00000000800021e2:  78a000ef          jal             ra,1930         # 0x8000296c

----------------
IN: 
Priv: 3; Virt: 0
0x00000000800021e6:  c505              beqz            a0,40           # 0x8000220e

----------------
IN: 
Priv: 3; Virt: 0
0x000000008000220e:  4b01              mv              s6,zero
0x0000000080002210:  4981              mv              s3,zero
0x0000000080002212:  fe04d1e3          bgez            s1,-30          # 0x800021f4

----------------
IN: 
Priv: 3; Virt: 0
0x00000000800021f4:  47ad              addi            a5,zero,11
0x00000000800021f6:  3897e763          bgtu            s1,a5,910       # 0x80002584

----------------
IN: 
Priv: 3; Virt: 0
0x00000000800021fa:  0000e717          auipc           a4,57344        # 0x800101fa
0x00000000800021fe:  66e70713          addi            a4,a4,1646
0x0000000080002202:  00249793          slli            a5,s1,2
0x0000000080002206:  97ba              add             a5,a5,a4
0x0000000080002208:  439c              lw              a5,0(a5)
0x000000008000220a:  97ba              add             a5,a5,a4
0x000000008000220c:  8782              jr              a5

----------------
IN: 
Priv: 3; Virt: 0
0x00000000800025b4:  854a              mv              a0,s2
0x00000000800025b6:  68a020ef          jal             ra,9866         # 0x80004c40

----------------
IN: 
Priv: 3; Virt: 0
0x0000000080004c40:  711d              addi            sp,sp,-96
0x0000000080004c42:  e8a2              sd              s0,80(sp)
0x0000000080004c44:  e0ca              sd              s2,64(sp)
0x0000000080004c46:  1080              addi            s0,sp,96
0x0000000080004c48:  ec86              sd              ra,88(sp)
0x0000000080004c4a:  e4a6              sd              s1,72(sp)
0x0000000080004c4c:  fc4e              sd              s3,56(sp)
0x0000000080004c4e:  0000d697          auipc           a3,53248        # 0x80011c4e
0x0000000080004c52:  59a68693          addi            a3,a3,1434
0x0000000080004c56:  629c              ld              a5,0(a3)
0x0000000080004c58:  fa043423          sd              zero,-88(s0)
0x0000000080004c5c:  fa043823          sd              zero,-80(s0)
0x0000000080004c60:  fa043c23          sd              zero,-72(s0)
0x0000000080004c64:  fc043023          sd              zero,-64(s0)
0x0000000080004c68:  fc043423          sd              zero,-56(s0)
0x0000000080004c6c:  fa043023          sd              zero,-96(s0)
0x0000000080004c70:  6544              ld              s1,136(a0)
0x0000000080004c72:  08053983          ld              s3,128(a0)
0x0000000080004c76:  892a              mv              s2,a0
0x0000000080004c78:  00d78b63          beq             a5,a3,22        # 0x80004c8e

----------------
IN: 
Priv: 3; Virt: 0
0x0000000080004c7c:  6b98              ld              a4,16(a5)
0x0000000080004c7e:  00e4e563          bgtu            a4,s1,10        # 0x80004c88

----------------
IN: 
Priv: 3; Virt: 0
0x0000000080004c88:  639c              ld              a5,0(a5)
0x0000000080004c8a:  fed799e3          bne             a5,a3,-14       # 0x80004c7c

----------------
IN: 
Priv: 3; Virt: 0
0x0000000080004c82:  6f98              ld              a4,24(a5)
0x0000000080004c84:  02977863          bleu            s1,a4,48        # 0x80004cb4

----------------
IN: 
Priv: 3; Virt: 0
0x0000000080004cb4:  779c              ld              a5,40(a5)
0x0000000080004cb6:  dfe1              beqz            a5,-40          # 0x80004c8e

----------------
IN: 
Priv: 3; Virt: 0
0x0000000080004cb8:  864a              mv              a2,s2
0x0000000080004cba:  fa840713          addi            a4,s0,-88
0x0000000080004cbe:  fa040693          addi            a3,s0,-96
0x0000000080004cc2:  85ce              mv              a1,s3
0x0000000080004cc4:  8526              mv              a0,s1
0x0000000080004cc6:  9782              jalr            ra,a5,0

----------------
IN: 
Priv: 3; Virt: 0
0x0000000080004f10:  7119              addi            sp,sp,-128
0x0000000080004f12:  f8a2              sd              s0,112(sp)
0x0000000080004f14:  fc86              sd              ra,120(sp)
0x0000000080004f16:  f4a6              sd              s1,104(sp)
0x0000000080004f18:  f0ca              sd              s2,96(sp)
0x0000000080004f1a:  ecce              sd              s3,88(sp)
0x0000000080004f1c:  0100              addi            s0,sp,128
0x0000000080004f1e:  f14029f3          csrrs           s3,mhartid,zero

----------------
IN: 
Priv: 3; Virt: 0
0x0000000080004f22:  47a1              addi            a5,zero,8
0x0000000080004f24:  24a7e963          bgtu            a0,a5,594       # 0x80005176

----------------
IN: 
Priv: 3; Virt: 0
0x0000000080004f28:  893a              mv              s2,a4
0x0000000080004f2a:  050a              slli            a0,a0,2
0x0000000080004f2c:  0000c717          auipc           a4,49152        # 0x80010f2c
0x0000000080004f30:  39470713          addi            a4,a4,916
0x0000000080004f34:  953a              add             a0,a0,a4
0x0000000080004f36:  411c              lw              a5,0(a0)
0x0000000080004f38:  84b2              mv              s1,a2
0x0000000080004f3a:  97ba              add             a5,a5,a4
0x0000000080004f3c:  8782              jr              a5

----------------
IN: 
Priv: 3; Virt: 0
0x0000000080004fdc:  05064503          lbu             a0,80(a2)
0x0000000080004fe0:  fcafe0ef          jal             ra,-6198        # 0x800037aa

----------------
IN: 
Priv: 3; Virt: 0
0x0000000080004fe4:  70e6              ld              ra,120(sp)
0x0000000080004fe6:  7446              ld              s0,112(sp)
0x0000000080004fe8:  74a6              ld              s1,104(sp)
0x0000000080004fea:  7906              ld              s2,96(sp)
0x0000000080004fec:  69e6              ld              s3,88(sp)
0x0000000080004fee:  4501              mv              a0,zero
0x0000000080004ff0:  6109              addi            sp,sp,128
0x0000000080004ff2:  8082              ret             

----------------
IN: 
Priv: 3; Virt: 0
0x0000000080004cc8:  c1100793          addi            a5,zero,-1007
0x0000000080004ccc:  862a              mv              a2,a0
0x0000000080004cce:  04f50463          beq             a0,a5,72        # 0x80004d16

----------------
IN: 
Priv: 3; Virt: 0
0x0000000080004cd2:  57e9              addi            a5,zero,-6
0x0000000080004cd4:  00f55f63          ble             a5,a0,30        # 0x80004cf2

----------------
IN: 
Priv: 3; Virt: 0
0x0000000080004cf2:  10093783          ld              a5,256(s2)
0x0000000080004cf6:  04c93823          sd              a2,80(s2)
0x0000000080004cfa:  4721              addi            a4,zero,8
0x0000000080004cfc:  0791              addi            a5,a5,4
0x0000000080004cfe:  10f93023          sd              a5,256(s2)
0x0000000080004d02:  02976463          bgtu            s1,a4,40        # 0x80004d2a

----------------
IN: 
Priv: 3; Virt: 0
0x0000000080004d06:  60e6              ld              ra,88(sp)
0x0000000080004d08:  6446              ld              s0,80(sp)
0x0000000080004d0a:  64a6              ld              s1,72(sp)
0x0000000080004d0c:  6906              ld              s2,64(sp)
0x0000000080004d0e:  79e2              ld              s3,56(sp)
0x0000000080004d10:  4501              mv              a0,zero
0x0000000080004d12:  6125              addi            sp,sp,96
0x0000000080004d14:  8082              ret             

----------------
IN: 
Priv: 3; Virt: 0
0x00000000800025ba:  0000e697          auipc           a3,57344        # 0x800105ba
0x00000000800025be:  08668693          addi            a3,a3,134
0x00000000800025c2:  c60505e3          beqz            a0,-918         # 0x8000222c

----------------
IN: 
Priv: 3; Virt: 0
0x000000008000222c:  70a6              ld              ra,104(sp)
0x000000008000222e:  7406              ld              s0,96(sp)
0x0000000080002230:  64e6              ld              s1,88(sp)
0x0000000080002232:  6946              ld              s2,80(sp)
0x0000000080002234:  69a6              ld              s3,72(sp)
0x0000000080002236:  6a06              ld              s4,64(sp)
0x0000000080002238:  7ae2              ld              s5,56(sp)
0x000000008000223a:  7b42              ld              s6,48(sp)
0x000000008000223c:  6165              addi            sp,sp,112
0x000000008000223e:  8082              ret             

----------------
IN: 
Priv: 3; Virt: 0
0x00000000800005ae:  60a2              ld              ra,8(sp)
0x00000000800005b0:  61e2              ld              gp,24(sp)
0x00000000800005b2:  7202              ld              tp,32(sp)
0x00000000800005b4:  7342              ld              t1,48(sp)
0x00000000800005b6:  73e2              ld              t2,56(sp)
0x00000000800005b8:  6406              ld              s0,64(sp)
0x00000000800005ba:  64a6              ld              s1,72(sp)
0x00000000800005bc:  6546              ld              a0,80(sp)
0x00000000800005be:  65e6              ld              a1,88(sp)
0x00000000800005c0:  7606              ld              a2,96(sp)
0x00000000800005c2:  76a6              ld              a3,104(sp)
0x00000000800005c4:  7746              ld              a4,112(sp)
0x00000000800005c6:  77e6              ld              a5,120(sp)
0x00000000800005c8:  680a              ld              a6,128(sp)
0x00000000800005ca:  68aa              ld              a7,136(sp)
0x00000000800005cc:  694a              ld              s2,144(sp)
0x00000000800005ce:  69ea              ld              s3,152(sp)
0x00000000800005d0:  7a0a              ld              s4,160(sp)
0x00000000800005d2:  7aaa              ld              s5,168(sp)
0x00000000800005d4:  7b4a              ld              s6,176(sp)
0x00000000800005d6:  7bea              ld              s7,184(sp)
0x00000000800005d8:  6c0e              ld              s8,192(sp)
0x00000000800005da:  6cae              ld              s9,200(sp)
0x00000000800005dc:  6d4e              ld              s10,208(sp)
0x00000000800005de:  6dee              ld              s11,216(sp)
0x00000000800005e0:  7e0e              ld              t3,224(sp)
0x00000000800005e2:  7eae              ld              t4,232(sp)
0x00000000800005e4:  7f4e              ld              t5,240(sp)
0x00000000800005e6:  7fee              ld              t6,248(sp)
0x00000000800005e8:  6292              ld              t0,256(sp)
0x00000000800005ea:  34129073          csrrw           zero,mepc,t0

----------------
IN: 
Priv: 3; Virt: 0
0x00000000800005ee:  62b2              ld              t0,264(sp)
0x00000000800005f0:  30029073          csrrw           zero,mstatus,t0

----------------
IN: 
Priv: 3; Virt: 0
0x00000000800005f4:  72a2              ld              t0,40(sp)
0x00000000800005f6:  6142              ld              sp,16(sp)
0x00000000800005f8:  30200073          mret            

----------------
IN: 
Priv: 1; Virt: 0
0x000000008020116e:  fca43423          sd              a0,-56(s0)
0x0000000080201172:  fc843503          ld              a0,-56(s0)
0x0000000080201176:  60a6              ld              ra,72(sp)
0x0000000080201178:  6406              ld              s0,64(sp)
0x000000008020117a:  6161              addi            sp,sp,80
0x000000008020117c:  8082              ret             

----------------
IN: 
Priv: 1; Virt: 0
0x00000000802011b4:  60e2              ld              ra,24(sp)
0x00000000802011b6:  6442              ld              s0,16(sp)
0x00000000802011b8:  6105              addi            sp,sp,32
0x00000000802011ba:  8082              ret             

----------------
IN: 
Priv: 1; Virt: 0
0x0000000080200836:  b775              j               -84             # 0x802007e2

riscv_cpu_do_interrupt: hart:0, async:0, cause:0000000000000009, epc:0x000000008020116a, tval:0x0000000000000000, desc=supervisor_ecall
riscv_cpu_do_interrupt: hart:0, async:0, cause:0000000000000009, epc:0x000000008020116a, tval:0x0000000000000000, desc=supervisor_ecall
riscv_cpu_do_interrupt: hart:0, async:0, cause:0000000000000009, epc:0x000000008020116a, tval:0x0000000000000000, desc=supervisor_ecall
riscv_cpu_do_interrupt: hart:0, async:0, cause:0000000000000009, epc:0x000000008020116a, tval:0x0000000000000000, desc=supervisor_ecall
riscv_cpu_do_interrupt: hart:0, async:0, cause:0000000000000009, epc:0x000000008020116a, tval:0x0000000000000000, desc=supervisor_ecall
riscv_cpu_do_interrupt: hart:0, async:0, cause:0000000000000009, epc:0x000000008020116a, tval:0x0000000000000000, desc=supervisor_ecall
riscv_cpu_do_interrupt: hart:0, async:0, cause:0000000000000009, epc:0x000000008020116a, tval:0x0000000000000000, desc=supervisor_ecall
riscv_cpu_do_interrupt: hart:0, async:0, cause:0000000000000009, epc:0x000000008020116a, tval:0x0000000000000000, desc=supervisor_ecall
riscv_cpu_do_interrupt: hart:0, async:0, cause:0000000000000009, epc:0x000000008020116a, tval:0x0000000000000000, desc=supervisor_ecall
riscv_cpu_do_interrupt: hart:0, async:0, cause:0000000000000009, epc:0x000000008020116a, tval:0x0000000000000000, desc=supervisor_ecall
riscv_cpu_do_interrupt: hart:0, async:0, cause:0000000000000009, epc:0x000000008020116a, tval:0x0000000000000000, desc=supervisor_ecall
riscv_cpu_do_interrupt: hart:0, async:0, cause:0000000000000009, epc:0x000000008020116a, tval:0x0000000000000000, desc=supervisor_ecall
----------------
IN: 
Priv: 1; Virt: 0
0x0000000080200fe0:  4501              mv              a0,zero
0x0000000080200fe2:  f4a43023          sd              a0,-192(s0)
0x0000000080200fe6:  a8b1              j               92              # 0x80201042

----------------
IN: 
Priv: 1; Virt: 0
0x0000000080200dce:  a009              j               2               # 0x80200dd0

----------------
IN: 
Priv: 1; Virt: 0
0x0000000080200dd0:  4501              mv              a0,zero
0x0000000080200dd2:  f6a43823          sd              a0,-144(s0)
0x0000000080200dd6:  a801              j               16              # 0x80200de6

----------------
IN: 
Priv: 1; Virt: 0
0x0000000080200e0c:  00001517          auipc           a0,4096         # 0x80201e0c
0x0000000080200e10:  34c50513          addi            a0,a0,844
0x0000000080200e14:  410c              lw              a1,0(a0)
0x0000000080200e16:  4148              lw              a0,4(a0)
0x0000000080200e18:  f6b42423          sw              a1,-152(s0)
0x0000000080200e1c:  f6a42623          sw              a0,-148(s0)
0x0000000080200e20:  a20d              j               290             # 0x80200f42

----------------
IN: 
Priv: 1; Virt: 0
0x00000000802008dc:  a009              j               2               # 0x802008de

----------------
IN: 
Priv: 1; Virt: 0
0x00000000802008de:  00110537          lui             a0,1114112
0x00000000802008e2:  fca42a23          sw              a0,-44(s0)
0x00000000802008e6:  a801              j               16              # 0x802008f6

----------------
IN: 
Priv: 1; Virt: 0
0x00000000802007fe:  a009              j               2               # 0x80200800

----------------
IN: 
Priv: 1; Virt: 0
0x0000000080200800:  4501              mv              a0,zero
0x0000000080200802:  faa40ba3          sb              a0,-73(s0)
0x0000000080200806:  fb744503          lbu             a0,-73(s0)
0x000000008020080a:  70a6              ld              ra,104(sp)
0x000000008020080c:  7406              ld              s0,96(sp)
0x000000008020080e:  6165              addi            sp,sp,112
0x0000000080200810:  8082              ret             

----------------
IN: 
Priv: 1; Virt: 0
0x00000000802014f8:  c119              beqz            a0,6            # 0x802014fe

----------------
IN: 
Priv: 1; Virt: 0
0x00000000802014fe:  4501              mv              a0,zero
0x0000000080201500:  60aa              ld              ra,136(sp)
0x0000000080201502:  640a              ld              s0,128(sp)
0x0000000080201504:  74e6              ld              s1,120(sp)
0x0000000080201506:  7946              ld              s2,112(sp)
0x0000000080201508:  79a6              ld              s3,104(sp)
0x000000008020150a:  7a06              ld              s4,96(sp)
0x000000008020150c:  6ae6              ld              s5,88(sp)
0x000000008020150e:  6b46              ld              s6,80(sp)
0x0000000080201510:  6ba6              ld              s7,72(sp)
0x0000000080201512:  6c06              ld              s8,64(sp)
0x0000000080201514:  6149              addi            sp,sp,144
0x0000000080201516:  8082              ret             

----------------
IN: 
Priv: 1; Virt: 0
0x000000008020099e:  60e2              ld              ra,24(sp)
0x00000000802009a0:  6442              ld              s0,16(sp)
0x00000000802009a2:  6105              addi            sp,sp,32
0x00000000802009a4:  8082              ret             

----------------
IN: 
Priv: 1; Virt: 0
0x0000000080200978:  60e2              ld              ra,24(sp)
0x000000008020097a:  6442              ld              s0,16(sp)
0x000000008020097c:  6105              addi            sp,sp,32
0x000000008020097e:  8082              ret             

----------------
IN: 
Priv: 1; Virt: 0
0x0000000080200874:  fea40723          sb              a0,-18(s0)
0x0000000080200878:  fee44503          lbu             a0,-18(s0)
0x000000008020087c:  8905              andi            a0,a0,1
0x000000008020087e:  c515              beqz            a0,44           # 0x802008aa

----------------
IN: 
Priv: 1; Virt: 0
0x00000000802008aa:  60a6              ld              ra,72(sp)
0x00000000802008ac:  6406              ld              s0,64(sp)
0x00000000802008ae:  6161              addi            sp,sp,80
0x00000000802008b0:  8082              ret             

----------------
IN: 
Priv: 1; Virt: 0
0x0000000080200480:  4501              mv              a0,zero
0x0000000080200482:  fea407a3          sb              a0,-17(s0)
0x0000000080200486:  fef44583          lbu             a1,-17(s0)
0x000000008020048a:  00000517          auipc           a0,0            # 0x8020048a
0x000000008020048e:  b8650513          addi            a0,a0,-1146
0x0000000080200492:  00000097          auipc           ra,0            # 0x80200492
0x0000000080200496:  d12080e7          jalr            ra,ra,-750

----------------
IN: 
Priv: 1; Virt: 0
0x00000000802001a4:  7179              addi            sp,sp,-48
0x00000000802001a6:  f406              sd              ra,40(sp)
0x00000000802001a8:  f022              sd              s0,32(sp)
0x00000000802001aa:  1800              addi            s0,sp,48
0x00000000802001ac:  fcb43823          sd              a1,-48(s0)
0x00000000802001b0:  85aa              mv              a1,a0
0x00000000802001b2:  fd043503          ld              a0,-48(s0)
0x00000000802001b6:  fea403a3          sb              a0,-25(s0)
0x00000000802001ba:  feb43423          sd              a1,-24(s0)
0x00000000802001be:  fe744503          lbu             a0,-25(s0)
0x00000000802001c2:  952e              add             a0,a0,a1
0x00000000802001c4:  fca43c23          sd              a0,-40(s0)
0x00000000802001c8:  00b56d63          bgtu            a1,a0,26        # 0x802001e2

----------------
IN: 
Priv: 1; Virt: 0
0x00000000802001cc:  a009              j               2               # 0x802001ce

----------------
IN: 
Priv: 1; Virt: 0
0x00000000802001ce:  fd843503          ld              a0,-40(s0)
0x00000000802001d2:  00000097          auipc           ra,0            # 0x802001d2
0x00000000802001d6:  02a080e7          jalr            ra,ra,42

----------------
IN: 
Priv: 1; Virt: 0
0x00000000802001fc:  1101              addi            sp,sp,-32
0x00000000802001fe:  ec06              sd              ra,24(sp)
0x0000000080200200:  e822              sd              s0,16(sp)
0x0000000080200202:  1000              addi            s0,sp,32
0x0000000080200204:  fea43423          sd              a0,-24(s0)
0x0000000080200208:  10551073          csrrw           zero,stvec,a0

----------------
IN: 
Priv: 1; Virt: 0
0x000000008020020c:  60e2              ld              ra,24(sp)
0x000000008020020e:  6442              ld              s0,16(sp)
0x0000000080200210:  6105              addi            sp,sp,32
0x0000000080200212:  8082              ret             

----------------
IN: 
Priv: 1; Virt: 0
0x00000000802001da:  70a2              ld              ra,40(sp)
0x00000000802001dc:  7402              ld              s0,32(sp)
0x00000000802001de:  6145              addi            sp,sp,48
0x00000000802001e0:  8082              ret             

----------------
IN: 
Priv: 1; Virt: 0
0x000000008020049a:  00000097          auipc           ra,0            # 0x8020049a
0x000000008020049e:  d7a080e7          jalr            ra,ra,-646

----------------
IN: 
Priv: 1; Virt: 0
0x0000000080200214:  1141              addi            sp,sp,-16
0x0000000080200216:  e406              sd              ra,8(sp)
0x0000000080200218:  e022              sd              s0,0(sp)
0x000000008020021a:  0800              addi            s0,sp,16
0x000000008020021c:  00002517          auipc           a0,8192         # 0x8020221c
0x0000000080200220:  f3450513          addi            a0,a0,-204
0x0000000080200224:  4581              mv              a1,zero
0x0000000080200226:  00000097          auipc           ra,0            # 0x80200226
0x000000008020022a:  0a0080e7          jalr            ra,ra,160

----------------
IN: 
Priv: 1; Virt: 0
0x00000000802002c6:  7169              addi            sp,sp,-304
0x00000000802002c8:  f606              sd              ra,296(sp)
0x00000000802002ca:  f222              sd              s0,288(sp)
0x00000000802002cc:  1a00              addi            s0,sp,304
0x00000000802002ce:  eeb43423          sd              a1,-280(s0)
0x00000000802002d2:  eea43023          sd              a0,-288(s0)
0x00000000802002d6:  f8a43c23          sd              a0,-104(s0)
0x00000000802002da:  fab43023          sd              a1,-96(s0)
0x00000000802002de:  f2b43823          sd              a1,-208(s0)
0x00000000802002e2:  f3040593          addi            a1,s0,-208
0x00000000802002e6:  feb43023          sd              a1,-32(s0)
0x00000000802002ea:  00002517          auipc           a0,8192         # 0x802022ea
0x00000000802002ee:  aec50513          addi            a0,a0,-1300
0x00000000802002f2:  fea43423          sd              a0,-24(s0)
0x00000000802002f6:  fcb43823          sd              a1,-48(s0)
0x00000000802002fa:  fca43c23          sd              a0,-40(s0)
0x00000000802002fe:  fd043583          ld              a1,-48(s0)
0x0000000080200302:  fd843503          ld              a0,-40(s0)
0x0000000080200306:  f2b43023          sd              a1,-224(s0)
0x000000008020030a:  f2a43423          sd              a0,-216(s0)
0x000000008020030e:  00002517          auipc           a0,8192         # 0x8020230e
0x0000000080200312:  e5a50593          addi            a1,a0,-422
0x0000000080200316:  ef040513          addi            a0,s0,-272
0x000000008020031a:  eca43c23          sd              a0,-296(s0)
0x000000008020031e:  4609              addi            a2,zero,2
0x0000000080200320:  f2040693          addi            a3,s0,-224
0x0000000080200324:  4705              addi            a4,zero,1
0x0000000080200326:  00000097          auipc           ra,0            # 0x80200326
0x000000008020032a:  cee080e7          jalr            ra,ra,-786

----------------
IN: 
Priv: 1; Virt: 0
0x0000000080200014:  7155              addi            sp,sp,-208
0x0000000080200016:  e586              sd              ra,200(sp)
0x0000000080200018:  e1a2              sd              s0,192(sp)
0x000000008020001a:  0980              addi            s0,sp,208
0x000000008020001c:  f2e43c23          sd              a4,-200(s0)
0x0000000080200020:  f4d43023          sd              a3,-192(s0)
0x0000000080200024:  f4c43423          sd              a2,-184(s0)
0x0000000080200028:  f4b43823          sd              a1,-176(s0)
0x000000008020002c:  f4a43c23          sd              a0,-168(s0)
0x0000000080200030:  fcb43023          sd              a1,-64(s0)
0x0000000080200034:  fcc43423          sd              a2,-56(s0)
0x0000000080200038:  fcd43823          sd              a3,-48(s0)
0x000000008020003c:  fce43c23          sd              a4,-40(s0)
0x0000000080200040:  00e66b63          bgtu            a4,a2,22        # 0x80200056

----------------
IN: 
Priv: 1; Virt: 0
0x0000000080200044:  a009              j               2               # 0x80200046

----------------
IN: 
Priv: 1; Virt: 0
0x0000000080200046:  f4843583          ld              a1,-184(s0)
0x000000008020004a:  f3843503          ld              a0,-200(s0)
0x000000008020004e:  0505              addi            a0,a0,1
0x0000000080200050:  00b57f63          bleu            a1,a0,30        # 0x8020006e

----------------
IN: 
Priv: 1; Virt: 0
0x000000008020006e:  f3843503          ld              a0,-200(s0)
0x0000000080200072:  f5843583          ld              a1,-168(s0)
0x0000000080200076:  f4043603          ld              a2,-192(s0)
0x000000008020007a:  f4843683          ld              a3,-184(s0)
0x000000008020007e:  f5043703          ld              a4,-176(s0)
0x0000000080200082:  e198              sd              a4,0(a1)
0x0000000080200084:  e594              sd              a3,8(a1)
0x0000000080200086:  00002697          auipc           a3,8192         # 0x80202086
0x000000008020008a:  f8a68693          addi            a3,a3,-118
0x000000008020008e:  6298              ld              a4,0(a3)
0x0000000080200090:  6694              ld              a3,8(a3)
0x0000000080200092:  f198              sd              a4,32(a1)
0x0000000080200094:  f594              sd              a3,40(a1)
0x0000000080200096:  e990              sd              a2,16(a1)
0x0000000080200098:  ed88              sd              a0,24(a1)
0x000000008020009a:  60ae              ld              ra,200(sp)
0x000000008020009c:  640e              ld              s0,192(sp)
0x000000008020009e:  6169              addi            sp,sp,208
0x00000000802000a0:  8082              ret             

----------------
IN: 
Priv: 1; Virt: 0
0x000000008020032e:  ed843503          ld              a0,-296(s0)
0x0000000080200332:  00000097          auipc           ra,0            # 0x80200332
0x0000000080200336:  506080e7          jalr            ra,ra,1286

----------------
IN: 
Priv: 1; Virt: 0
0x000000008020148a:  0109b403          ld              s0,16(s3)
0x000000008020148e:  4a81              mv              s5,zero
0x0000000080201490:  00451a13          slli            s4,a0,4
0x0000000080201494:  9a22              add             s4,s4,s0
0x0000000080201496:  0009b483          ld              s1,0(s3)
0x000000008020149a:  157d              addi            a0,a0,-1
0x000000008020149c:  0512              slli            a0,a0,4
0x000000008020149e:  8111              srli            a0,a0,4
0x00000000802014a0:  00150913          addi            s2,a0,1
0x00000000802014a4:  04a1              addi            s1,s1,8
0x00000000802014a6:  6090              ld              a2,0(s1)
0x00000000802014a8:  ca01              beqz            a2,16           # 0x802014b8

----------------
IN: 
Priv: 1; Virt: 0
0x00000000802014aa:  76a2              ld              a3,40(sp)
0x00000000802014ac:  7502              ld              a0,32(sp)
0x00000000802014ae:  ff84b583          ld              a1,-8(s1)
0x00000000802014b2:  6e94              ld              a3,24(a3)
0x00000000802014b4:  9682              jalr            ra,a3,0

riscv_cpu_do_interrupt: hart:0, async:0, cause:0000000000000009, epc:0x000000008020116a, tval:0x0000000000000000, desc=supervisor_ecall
riscv_cpu_do_interrupt: hart:0, async:0, cause:0000000000000009, epc:0x000000008020116a, tval:0x0000000000000000, desc=supervisor_ecall
riscv_cpu_do_interrupt: hart:0, async:0, cause:0000000000000009, epc:0x000000008020116a, tval:0x0000000000000000, desc=supervisor_ecall
riscv_cpu_do_interrupt: hart:0, async:0, cause:0000000000000009, epc:0x000000008020116a, tval:0x0000000000000000, desc=supervisor_ecall
riscv_cpu_do_interrupt: hart:0, async:0, cause:0000000000000009, epc:0x000000008020116a, tval:0x0000000000000000, desc=supervisor_ecall
riscv_cpu_do_interrupt: hart:0, async:0, cause:0000000000000009, epc:0x000000008020116a, tval:0x0000000000000000, desc=supervisor_ecall
riscv_cpu_do_interrupt: hart:0, async:0, cause:0000000000000009, epc:0x000000008020116a, tval:0x0000000000000000, desc=supervisor_ecall
riscv_cpu_do_interrupt: hart:0, async:0, cause:0000000000000009, epc:0x000000008020116a, tval:0x0000000000000000, desc=supervisor_ecall
----------------
IN: 
Priv: 1; Virt: 0
0x00000000802014b6:  e131              bnez            a0,68           # 0x802014fa

----------------
IN: 
Priv: 1; Virt: 0
0x00000000802014b8:  6008              ld              a0,0(s0)
0x00000000802014ba:  6410              ld              a2,8(s0)
0x00000000802014bc:  858a              mv              a1,sp
0x00000000802014be:  9602              jalr            ra,a2,0

----------------
IN: 
Priv: 1; Virt: 0
0x0000000080201dd6:  6108              ld              a0,0(a0)
0x0000000080201dd8:  862e              mv              a2,a1
0x0000000080201dda:  4585              addi            a1,zero,1
0x0000000080201ddc:  00000317          auipc           t1,0            # 0x80201ddc
0x0000000080201de0:  e8630067          jalr            zero,t1,-378

----------------
IN: 
Priv: 1; Virt: 0
0x0000000080201c62:  7139              addi            sp,sp,-64
0x0000000080201c64:  fc06              sd              ra,56(sp)
0x0000000080201c66:  f822              sd              s0,48(sp)
0x0000000080201c68:  f426              sd              s1,40(sp)
0x0000000080201c6a:  8832              mv              a6,a2
0x0000000080201c6c:  00455693          srli            a3,a0,4
0x0000000080201c70:  02700713          addi            a4,zero,39
0x0000000080201c74:  27100793          addi            a5,zero,625
0x0000000080201c78:  00001617          auipc           a2,4096         # 0x80202c78
0x0000000080201c7c:  91060f13          addi            t5,a2,-1776
0x0000000080201c80:  02f6f363          bleu            a5,a3,38        # 0x80201ca6

----------------
IN: 
Priv: 1; Virt: 0
0x0000000080201c84:  06300693          addi            a3,zero,99
0x0000000080201c88:  0aa6ea63          bgtu            a0,a3,180       # 0x80201d3c

----------------
IN: 
Priv: 1; Virt: 0
0x0000000080201c8c:  4629              addi            a2,zero,10
0x0000000080201c8e:  0ec57863          bleu            a2,a0,240       # 0x80201d7e

----------------
IN: 
Priv: 1; Virt: 0
0x0000000080201c92:  fff70693          addi            a3,a4,-1
0x0000000080201c96:  00110613          addi            a2,sp,1
0x0000000080201c9a:  9636              add             a2,a2,a3
0x0000000080201c9c:  0305051b          addiw           a0,a0,48
0x0000000080201ca0:  00a60023          sb              a0,0(a2)
0x0000000080201ca4:  a8e5              j               248             # 0x80201d9c

----------------
IN: 
Priv: 1; Virt: 0
0x0000000080201d9c:  00110713          addi            a4,sp,1
0x0000000080201da0:  9736              add             a4,a4,a3
0x0000000080201da2:  02700793          addi            a5,zero,39
0x0000000080201da6:  8f95              sub             a5,a5,a3
0x0000000080201da8:  00000517          auipc           a0,0            # 0x80201da8
0x0000000080201dac:  71850613          addi            a2,a0,1816
0x0000000080201db0:  8542              mv              a0,a6
0x0000000080201db2:  4681              mv              a3,zero
0x0000000080201db4:  fffff097          auipc           ra,-4096        # 0x80200db4
0x0000000080201db8:  764080e7          jalr            ra,ra,1892

----------------
IN: 
Priv: 1; Virt: 0
0x0000000080201518:  7159              addi            sp,sp,-112
0x000000008020151a:  f486              sd              ra,104(sp)
0x000000008020151c:  f0a2              sd              s0,96(sp)
0x000000008020151e:  eca6              sd              s1,88(sp)
0x0000000080201520:  e8ca              sd              s2,80(sp)
0x0000000080201522:  e4ce              sd              s3,72(sp)
0x0000000080201524:  e0d2              sd              s4,64(sp)
0x0000000080201526:  fc56              sd              s5,56(sp)
0x0000000080201528:  f85a              sd              s6,48(sp)
0x000000008020152a:  f45e              sd              s7,40(sp)
0x000000008020152c:  f062              sd              s8,32(sp)
0x000000008020152e:  ec66              sd              s9,24(sp)
0x0000000080201530:  e86a              sd              s10,16(sp)
0x0000000080201532:  e46e              sd              s11,8(sp)
0x0000000080201534:  89be              mv              s3,a5
0x0000000080201536:  893a              mv              s2,a4
0x0000000080201538:  8b36              mv              s6,a3
0x000000008020153a:  8a32              mv              s4,a2
0x000000008020153c:  8c2a              mv              s8,a0
0x000000008020153e:  c1b9              beqz            a1,70           # 0x80201584

----------------
IN: 
Priv: 1; Virt: 0
0x0000000080201540:  034c6403          lwu             s0,52(s8)
0x0000000080201544:  00147c93          andi            s9,s0,1
0x0000000080201548:  00110ab7          lui             s5,1114112
0x000000008020154c:  000c8463          beqz            s9,8            # 0x80201554

----------------
IN: 
Priv: 1; Virt: 0
0x0000000080201554:  9cce              add             s9,s9,s3
0x0000000080201556:  00447513          andi            a0,s0,4
0x000000008020155a:  cd15              beqz            a0,60           # 0x80201596

----------------
IN: 
Priv: 1; Virt: 0
0x0000000080201596:  4a01              mv              s4,zero
0x0000000080201598:  000c3503          ld              a0,0(s8)
0x000000008020159c:  ed01              bnez            a0,24           # 0x802015b4

----------------
IN: 
Priv: 1; Virt: 0
0x000000008020159e:  a815              j               52              # 0x802015d2

----------------
IN: 
Priv: 1; Virt: 0
0x00000000802015d2:  020c3403          ld              s0,32(s8)
0x00000000802015d6:  028c3483          ld              s1,40(s8)
0x00000000802015da:  8522              mv              a0,s0
0x00000000802015dc:  85a6              mv              a1,s1
0x00000000802015de:  8656              mv              a2,s5
0x00000000802015e0:  86d2              mv              a3,s4
0x00000000802015e2:  875a              mv              a4,s6
0x00000000802015e4:  00000097          auipc           ra,0            # 0x802015e4
0x00000000802015e8:  140080e7          jalr            ra,ra,320

----------------
IN: 
Priv: 1; Virt: 0
0x0000000080201724:  7179              addi            sp,sp,-48
0x0000000080201726:  f406              sd              ra,40(sp)
0x0000000080201728:  f022              sd              s0,32(sp)
0x000000008020172a:  ec26              sd              s1,24(sp)
0x000000008020172c:  e84a              sd              s2,16(sp)
0x000000008020172e:  e44e              sd              s3,8(sp)
0x0000000080201730:  0006079b          sext.w          a5,a2
0x0000000080201734:  00110837          lui             a6,1114112
0x0000000080201738:  893a              mv              s2,a4
0x000000008020173a:  84b6              mv              s1,a3
0x000000008020173c:  842e              mv              s0,a1
0x000000008020173e:  89aa              mv              s3,a0
0x0000000080201740:  01078963          beq             a5,a6,18        # 0x80201752

----------------
IN: 
Priv: 1; Virt: 0
0x0000000080201752:  cc81              beqz            s1,24           # 0x8020176a

----------------
IN: 
Priv: 1; Virt: 0
0x000000008020176a:  4501              mv              a0,zero
0x000000008020176c:  70a2              ld              ra,40(sp)
0x000000008020176e:  7402              ld              s0,32(sp)
0x0000000080201770:  64e2              ld              s1,24(sp)
0x0000000080201772:  6942              ld              s2,16(sp)
0x0000000080201774:  69a2              ld              s3,8(sp)
0x0000000080201776:  6145              addi            sp,sp,48
0x0000000080201778:  8082              ret             

----------------
IN: 
Priv: 1; Virt: 0
0x00000000802015ec:  4b85              addi            s7,zero,1
0x00000000802015ee:  c10d              beqz            a0,34           # 0x80201610

----------------
IN: 
Priv: 1; Virt: 0
0x0000000080201610:  6c9c              ld              a5,24(s1)
0x0000000080201612:  8522              mv              a0,s0
0x0000000080201614:  85ca              mv              a1,s2
0x0000000080201616:  864e              mv              a2,s3
0x0000000080201618:  70a6              ld              ra,104(sp)
0x000000008020161a:  7406              ld              s0,96(sp)
0x000000008020161c:  64e6              ld              s1,88(sp)
0x000000008020161e:  6946              ld              s2,80(sp)
0x0000000080201620:  69a6              ld              s3,72(sp)
0x0000000080201622:  6a06              ld              s4,64(sp)
0x0000000080201624:  7ae2              ld              s5,56(sp)
0x0000000080201626:  7b42              ld              s6,48(sp)
0x0000000080201628:  7ba2              ld              s7,40(sp)
0x000000008020162a:  7c02              ld              s8,32(sp)
0x000000008020162c:  6ce2              ld              s9,24(sp)
0x000000008020162e:  6d42              ld              s10,16(sp)
0x0000000080201630:  6da2              ld              s11,8(sp)
0x0000000080201632:  6165              addi            sp,sp,112
0x0000000080201634:  8782              jr              a5

riscv_cpu_do_interrupt: hart:0, async:0, cause:0000000000000009, epc:0x000000008020116a, tval:0x0000000000000000, desc=supervisor_ecall
----------------
IN: 
Priv: 1; Virt: 0
0x0000000080201dbc:  70e2              ld              ra,56(sp)
0x0000000080201dbe:  7442              ld              s0,48(sp)
0x0000000080201dc0:  74a2              ld              s1,40(sp)
0x0000000080201dc2:  6121              addi            sp,sp,64
0x0000000080201dc4:  8082              ret             

----------------
IN: 
Priv: 1; Virt: 0
0x00000000802014c0:  ed0d              bnez            a0,58           # 0x802014fa

----------------
IN: 
Priv: 1; Virt: 0
0x00000000802014c2:  04c1              addi            s1,s1,16
0x00000000802014c4:  0441              addi            s0,s0,16
0x00000000802014c6:  0a85              addi            s5,s5,1
0x00000000802014c8:  fd441fe3          bne             s0,s4,-34       # 0x802014a6

----------------
IN: 
Priv: 1; Virt: 0
0x00000000802014cc:  0089b503          ld              a0,8(s3)
0x00000000802014d0:  00a96863          bgtu            a0,s2,16        # 0x802014e0

riscv_cpu_do_interrupt: hart:0, async:0, cause:0000000000000009, epc:0x000000008020116a, tval:0x0000000000000000, desc=supervisor_ecall
riscv_cpu_do_interrupt: hart:0, async:0, cause:0000000000000009, epc:0x000000008020116a, tval:0x0000000000000000, desc=supervisor_ecall
riscv_cpu_do_interrupt: hart:0, async:0, cause:0000000000000009, epc:0x000000008020116a, tval:0x0000000000000000, desc=supervisor_ecall
riscv_cpu_do_interrupt: hart:0, async:0, cause:0000000000000009, epc:0x000000008020116a, tval:0x0000000000000000, desc=supervisor_ecall
riscv_cpu_do_interrupt: hart:0, async:0, cause:0000000000000009, epc:0x000000008020116a, tval:0x0000000000000000, desc=supervisor_ecall
riscv_cpu_do_interrupt: hart:0, async:0, cause:0000000000000009, epc:0x000000008020116a, tval:0x0000000000000000, desc=supervisor_ecall
riscv_cpu_do_interrupt: hart:0, async:0, cause:0000000000000009, epc:0x000000008020116a, tval:0x0000000000000000, desc=supervisor_ecall
riscv_cpu_do_interrupt: hart:0, async:0, cause:0000000000000009, epc:0x000000008020116a, tval:0x0000000000000000, desc=supervisor_ecall
----------------
IN: 
Priv: 1; Virt: 0
0x000000008020033a:  ee043503          ld              a0,-288(s0)
0x000000008020033e:  ee843583          ld              a1,-280(s0)
0x0000000080200342:  00000097          auipc           ra,0            # 0x80200342
0x0000000080200346:  f12080e7          jalr            ra,ra,-238

----------------
IN: 
Priv: 1; Virt: 0
0x0000000080200254:  7159              addi            sp,sp,-112
0x0000000080200256:  f486              sd              ra,104(sp)
0x0000000080200258:  f0a2              sd              s0,96(sp)
0x000000008020025a:  1880              addi            s0,sp,112
0x000000008020025c:  f8b43823          sd              a1,-112(s0)
0x0000000080200260:  f8a43c23          sd              a0,-104(s0)
0x0000000080200264:  fca43023          sd              a0,-64(s0)
0x0000000080200268:  fcb43423          sd              a1,-56(s0)
0x000000008020026c:  fca43823          sd              a0,-48(s0)
0x0000000080200270:  4501              mv              a0,zero
0x0000000080200272:  ed09              bnez            a0,26           # 0x8020028c

----------------
IN: 
Priv: 1; Virt: 0
0x0000000080200274:  a009              j               2               # 0x80200276

----------------
IN: 
Priv: 1; Virt: 0
0x0000000080200276:  f9843503          ld              a0,-104(s0)
0x000000008020027a:  f9043583          ld              a1,-112(s0)
0x000000008020027e:  fcb43c23          sd              a1,-40(s0)
0x0000000080200282:  0592              slli            a1,a1,4
0x0000000080200284:  952e              add             a0,a0,a1
0x0000000080200286:  faa43823          sd              a0,-80(s0)
0x000000008020028a:  a801              j               16              # 0x8020029a

----------------
IN: 
Priv: 1; Virt: 0
0x000000008020029a:  f9843503          ld              a0,-104(s0)
0x000000008020029e:  fea43423          sd              a0,-24(s0)
0x00000000802002a2:  faa43c23          sd              a0,-72(s0)
0x00000000802002a6:  fb043503          ld              a0,-80(s0)
0x00000000802002aa:  fb843583          ld              a1,-72(s0)
0x00000000802002ae:  fab43023          sd              a1,-96(s0)
0x00000000802002b2:  faa43423          sd              a0,-88(s0)
0x00000000802002b6:  fa043503          ld              a0,-96(s0)
0x00000000802002ba:  fa843583          ld              a1,-88(s0)
0x00000000802002be:  70a6              ld              ra,104(sp)
0x00000000802002c0:  7406              ld              s0,96(sp)
0x00000000802002c2:  6165              addi            sp,sp,112
0x00000000802002c4:  8082              ret             

----------------
IN: 
Priv: 1; Virt: 0
0x000000008020034a:  f2a43c23          sd              a0,-200(s0)
0x000000008020034e:  f4b43023          sd              a1,-192(s0)
0x0000000080200352:  a009              j               2               # 0x80200354

----------------
IN: 
Priv: 1; Virt: 0
0x0000000080200354:  f3840513          addi            a0,s0,-200
0x0000000080200358:  00000097          auipc           ra,0            # 0x80200358
0x000000008020035c:  188080e7          jalr            ra,ra,392

----------------
IN: 
Priv: 1; Virt: 0
0x00000000802004e0:  7115              addi            sp,sp,-224
0x00000000802004e2:  ed86              sd              ra,216(sp)
0x00000000802004e4:  e9a2              sd              s0,208(sp)
0x00000000802004e6:  1180              addi            s0,sp,224
0x00000000802004e8:  f2a43023          sd              a0,-224(s0)
0x00000000802004ec:  4585              addi            a1,zero,1
0x00000000802004ee:  f2b43423          sd              a1,-216(s0)
0x00000000802004f2:  f2b43823          sd              a1,-208(s0)
0x00000000802004f6:  f2b43c23          sd              a1,-200(s0)
0x00000000802004fa:  f6a43423          sd              a0,-152(s0)
0x00000000802004fe:  4501              mv              a0,zero
0x0000000080200500:  ed15              bnez            a0,60           # 0x8020053c

----------------
IN: 
Priv: 1; Virt: 0
0x0000000080200502:  a009              j               2               # 0x80200504

----------------
IN: 
Priv: 1; Virt: 0
0x0000000080200504:  f2043503          ld              a0,-224(s0)
0x0000000080200508:  00850593          addi            a1,a0,8
0x000000008020050c:  f6b43823          sd              a1,-144(s0)
0x0000000080200510:  650c              ld              a1,8(a0)
0x0000000080200512:  f4b43823          sd              a1,-176(s0)
0x0000000080200516:  f6a43c23          sd              a0,-136(s0)
0x000000008020051a:  f5040593          addi            a1,s0,-176
0x000000008020051e:  f8b43023          sd              a1,-128(s0)
0x0000000080200522:  6108              ld              a0,0(a0)
0x0000000080200524:  f8a43423          sd              a0,-120(s0)
0x0000000080200528:  f5043583          ld              a1,-176(s0)
0x000000008020052c:  f8b43823          sd              a1,-112(s0)
0x0000000080200530:  8d2d              xor             a0,a0,a1
0x0000000080200532:  00153513          seqz            a0,a0
0x0000000080200536:  f4a407a3          sb              a0,-177(s0)
0x000000008020053a:  a829              j               26              # 0x80200554

----------------
IN: 
Priv: 1; Virt: 0
0x0000000080200554:  f4f44503          lbu             a0,-177(s0)
0x0000000080200558:  8905              andi            a0,a0,1
0x000000008020055a:  e911              bnez            a0,20           # 0x8020056e

----------------
IN: 
Priv: 1; Virt: 0
0x000000008020056e:  4501              mv              a0,zero
0x0000000080200570:  f4a43023          sd              a0,-192(s0)
0x0000000080200574:  a8b1              j               92              # 0x802005d0

----------------
IN: 
Priv: 1; Virt: 0
0x00000000802005d0:  f4043503          ld              a0,-192(s0)
0x00000000802005d4:  60ee              ld              ra,216(sp)
0x00000000802005d6:  644e              ld              s0,208(sp)
0x00000000802005d8:  612d              addi            sp,sp,224
0x00000000802005da:  8082              ret             

----------------
IN: 
Priv: 1; Virt: 0
0x0000000080200360:  f4a43423          sd              a0,-184(s0)
0x0000000080200364:  f4843503          ld              a0,-184(s0)
0x0000000080200368:  e535              bnez            a0,108          # 0x802003d4

----------------
IN: 
Priv: 1; Virt: 0
0x000000008020036a:  a009              j               2               # 0x8020036c

----------------
IN: 
Priv: 1; Virt: 0
0x000000008020036c:  ee843503          ld              a0,-280(s0)
0x0000000080200370:  f8a43823          sd              a0,-112(s0)
0x0000000080200374:  f9040593          addi            a1,s0,-112
0x0000000080200378:  fcb43023          sd              a1,-64(s0)
0x000000008020037c:  00002517          auipc           a0,8192         # 0x8020237c
0x0000000080200380:  a5a50513          addi            a0,a0,-1446
0x0000000080200384:  fca43423          sd              a0,-56(s0)
0x0000000080200388:  fab43823          sd              a1,-80(s0)
0x000000008020038c:  faa43c23          sd              a0,-72(s0)
0x0000000080200390:  fb043583          ld              a1,-80(s0)
0x0000000080200394:  fb843503          ld              a0,-72(s0)
0x0000000080200398:  f8b43023          sd              a1,-128(s0)
0x000000008020039c:  f8a43423          sd              a0,-120(s0)
0x00000000802003a0:  00002517          auipc           a0,8192         # 0x802023a0
0x00000000802003a4:  e0850593          addi            a1,a0,-504
0x00000000802003a8:  f5040513          addi            a0,s0,-176
0x00000000802003ac:  eca43823          sd              a0,-304(s0)
0x00000000802003b0:  4609              addi            a2,zero,2
0x00000000802003b2:  f8040693          addi            a3,s0,-128
0x00000000802003b6:  4705              addi            a4,zero,1
0x00000000802003b8:  00000097          auipc           ra,0            # 0x802003b8
0x00000000802003bc:  c5c080e7          jalr            ra,ra,-932

----------------
IN: 
Priv: 1; Virt: 0
0x00000000802003c0:  ed043503          ld              a0,-304(s0)
0x00000000802003c4:  00000097          auipc           ra,0            # 0x802003c4
0x00000000802003c8:  474080e7          jalr            ra,ra,1140

riscv_cpu_do_interrupt: hart:0, async:0, cause:0000000000000009, epc:0x000000008020116a, tval:0x0000000000000000, desc=supervisor_ecall
riscv_cpu_do_interrupt: hart:0, async:0, cause:0000000000000009, epc:0x000000008020116a, tval:0x0000000000000000, desc=supervisor_ecall
riscv_cpu_do_interrupt: hart:0, async:0, cause:0000000000000009, epc:0x000000008020116a, tval:0x0000000000000000, desc=supervisor_ecall
riscv_cpu_do_interrupt: hart:0, async:0, cause:0000000000000009, epc:0x000000008020116a, tval:0x0000000000000000, desc=supervisor_ecall
riscv_cpu_do_interrupt: hart:0, async:0, cause:0000000000000009, epc:0x000000008020116a, tval:0x0000000000000000, desc=supervisor_ecall
riscv_cpu_do_interrupt: hart:0, async:0, cause:0000000000000009, epc:0x000000008020116a, tval:0x0000000000000000, desc=supervisor_ecall
riscv_cpu_do_interrupt: hart:0, async:0, cause:0000000000000009, epc:0x000000008020116a, tval:0x0000000000000000, desc=supervisor_ecall
riscv_cpu_do_interrupt: hart:0, async:0, cause:0000000000000009, epc:0x000000008020116a, tval:0x0000000000000000, desc=supervisor_ecall
riscv_cpu_do_interrupt: hart:0, async:0, cause:0000000000000009, epc:0x000000008020116a, tval:0x0000000000000000, desc=supervisor_ecall
riscv_cpu_do_interrupt: hart:0, async:0, cause:0000000000000009, epc:0x000000008020116a, tval:0x0000000000000000, desc=supervisor_ecall
riscv_cpu_do_interrupt: hart:0, async:0, cause:0000000000000009, epc:0x000000008020116a, tval:0x0000000000000000, desc=supervisor_ecall
riscv_cpu_do_interrupt: hart:0, async:0, cause:0000000000000009, epc:0x000000008020116a, tval:0x0000000000000000, desc=supervisor_ecall
riscv_cpu_do_interrupt: hart:0, async:0, cause:0000000000000009, epc:0x000000008020116a, tval:0x0000000000000000, desc=supervisor_ecall
riscv_cpu_do_interrupt: hart:0, async:0, cause:0000000000000009, epc:0x000000008020116a, tval:0x0000000000000000, desc=supervisor_ecall
riscv_cpu_do_interrupt: hart:0, async:0, cause:0000000000000009, epc:0x000000008020116a, tval:0x0000000000000000, desc=supervisor_ecall
riscv_cpu_do_interrupt: hart:0, async:0, cause:0000000000000009, epc:0x000000008020116a, tval:0x0000000000000000, desc=supervisor_ecall
riscv_cpu_do_interrupt: hart:0, async:0, cause:0000000000000009, epc:0x000000008020116a, tval:0x0000000000000000, desc=supervisor_ecall
riscv_cpu_do_interrupt: hart:0, async:0, cause:0000000000000009, epc:0x000000008020116a, tval:0x0000000000000000, desc=supervisor_ecall
riscv_cpu_do_interrupt: hart:0, async:0, cause:0000000000000009, epc:0x000000008020116a, tval:0x0000000000000000, desc=supervisor_ecall
riscv_cpu_do_interrupt: hart:0, async:0, cause:0000000000000009, epc:0x000000008020116a, tval:0x0000000000000000, desc=supervisor_ecall
riscv_cpu_do_interrupt: hart:0, async:0, cause:0000000000000009, epc:0x000000008020116a, tval:0x0000000000000000, desc=supervisor_ecall
riscv_cpu_do_interrupt: hart:0, async:0, cause:0000000000000009, epc:0x000000008020116a, tval:0x0000000000000000, desc=supervisor_ecall
riscv_cpu_do_interrupt: hart:0, async:0, cause:0000000000000009, epc:0x000000008020116a, tval:0x0000000000000000, desc=supervisor_ecall
riscv_cpu_do_interrupt: hart:0, async:0, cause:0000000000000009, epc:0x000000008020116a, tval:0x0000000000000000, desc=supervisor_ecall
riscv_cpu_do_interrupt: hart:0, async:0, cause:0000000000000009, epc:0x000000008020116a, tval:0x0000000000000000, desc=supervisor_ecall
riscv_cpu_do_interrupt: hart:0, async:0, cause:0000000000000009, epc:0x000000008020116a, tval:0x0000000000000000, desc=supervisor_ecall
riscv_cpu_do_interrupt: hart:0, async:0, cause:0000000000000009, epc:0x000000008020116a, tval:0x0000000000000000, desc=supervisor_ecall
riscv_cpu_do_interrupt: hart:0, async:0, cause:0000000000000009, epc:0x000000008020116a, tval:0x0000000000000000, desc=supervisor_ecall
riscv_cpu_do_interrupt: hart:0, async:0, cause:0000000000000009, epc:0x000000008020116a, tval:0x0000000000000000, desc=supervisor_ecall
riscv_cpu_do_interrupt: hart:0, async:0, cause:0000000000000009, epc:0x000000008020116a, tval:0x0000000000000000, desc=supervisor_ecall
riscv_cpu_do_interrupt: hart:0, async:0, cause:0000000000000009, epc:0x000000008020116a, tval:0x0000000000000000, desc=supervisor_ecall
riscv_cpu_do_interrupt: hart:0, async:0, cause:0000000000000009, epc:0x000000008020116a, tval:0x0000000000000000, desc=supervisor_ecall
riscv_cpu_do_interrupt: hart:0, async:0, cause:0000000000000009, epc:0x000000008020116a, tval:0x0000000000000000, desc=supervisor_ecall
----------------
IN: 
Priv: 1; Virt: 0
0x00000000802003cc:  00001097          auipc           ra,4096         # 0x802013cc
0x00000000802003d0:  ce4080e7          jalr            ra,ra,-796

----------------
IN: 
Priv: 1; Virt: 0
0x00000000802010b0:  715d              addi            sp,sp,-80
0x00000000802010b2:  e486              sd              ra,72(sp)
0x00000000802010b4:  e0a2              sd              s0,64(sp)
0x00000000802010b6:  0880              addi            s0,sp,80
0x00000000802010b8:  4521              addi            a0,zero,8
0x00000000802010ba:  4681              mv              a3,zero
0x00000000802010bc:  85b6              mv              a1,a3
0x00000000802010be:  8636              mv              a2,a3
0x00000000802010c0:  00000097          auipc           ra,0            # 0x802010c0
0x00000000802010c4:  fa6080e7          jalr            ra,ra,-90

----------------
IN: 
Priv: 1; Virt: 0
0x0000000080201066:  715d              addi            sp,sp,-80
0x0000000080201068:  e486              sd              ra,72(sp)
0x000000008020106a:  e0a2              sd              s0,64(sp)
0x000000008020106c:  0880              addi            s0,sp,80
0x000000008020106e:  fad43823          sd              a3,-80(s0)
0x0000000080201072:  86b2              mv              a3,a2
0x0000000080201074:  fb043603          ld              a2,-80(s0)
0x0000000080201078:  fad43c23          sd              a3,-72(s0)
0x000000008020107c:  86ae              mv              a3,a1
0x000000008020107e:  fb843583          ld              a1,-72(s0)
0x0000000080201082:  fcd43023          sd              a3,-64(s0)
0x0000000080201086:  88aa              mv              a7,a0
0x0000000080201088:  fc043503          ld              a0,-64(s0)
0x000000008020108c:  fd143823          sd              a7,-48(s0)
0x0000000080201090:  fca43c23          sd              a0,-40(s0)
0x0000000080201094:  feb43023          sd              a1,-32(s0)
0x0000000080201098:  fec43423          sd              a2,-24(s0)
0x000000008020109c:  00000073          ecall           

riscv_cpu_do_interrupt: hart:0, async:0, cause:0000000000000009, epc:0x000000008020109c, tval:0x0000000000000000, desc=supervisor_ecall
----------------
IN: 
Priv: 3; Virt: 0
0x00000000800050b0:  4581              mv              a1,zero
0x00000000800050b2:  4501              mv              a0,zero
0x00000000800050b4:  378030ef          jal             ra,13176        # 0x8000842c

----------------
IN: 
Priv: 3; Virt: 0
0x000000008000842c:  711d              addi            sp,sp,-96
0x000000008000842e:  e8a2              sd              s0,80(sp)
0x0000000080008430:  ec5e              sd              s7,24(sp)
0x0000000080008432:  e862              sd              s8,16(sp)
0x0000000080008434:  ec86              sd              ra,88(sp)
0x0000000080008436:  e4a6              sd              s1,72(sp)
0x0000000080008438:  e0ca              sd              s2,64(sp)
0x000000008000843a:  fc4e              sd              s3,56(sp)
0x000000008000843c:  f852              sd              s4,48(sp)
0x000000008000843e:  f456              sd              s5,40(sp)
0x0000000080008440:  f05a              sd              s6,32(sp)
0x0000000080008442:  1080              addi            s0,sp,96
0x0000000080008444:  8baa              mv              s7,a0
0x0000000080008446:  8c2e              mv              s8,a1
0x0000000080008448:  f1402973          csrrs           s2,mhartid,zero

----------------
IN: 
Priv: 3; Virt: 0
0x000000008000844c:  00090a9b          sext.w          s5,s2
0x0000000080008450:  f1402773          csrrs           a4,mhartid,zero

----------------
IN: 
Priv: 3; Virt: 0
0x0000000080008454:  02071793          slli            a5,a4,32
0x0000000080008458:  01d7d713          srli            a4,a5,29
0x000000008000845c:  0000b797          auipc           a5,45056        # 0x8001345c
0x0000000080008460:  5fc78793          addi            a5,a5,1532
0x0000000080008464:  97ba              add             a5,a5,a4
0x0000000080008466:  0007b983          ld              s3,0(a5)
0x000000008000846a:  34002b73          csrrs           s6,mscratch,zero

----------------
IN: 
Priv: 3; Virt: 0
0x000000008000846e:  4481              mv              s1,zero
0x0000000080008470:  1902              slli            s2,s2,32
0x0000000080008472:  fa840613          addi            a2,s0,-88
0x0000000080008476:  85a6              mv              a1,s1
0x0000000080008478:  854e              mv              a0,s3
0x000000008000847a:  02095913          srli            s2,s2,32
0x000000008000847e:  4a05              addi            s4,zero,1
0x0000000080008480:  d92ff0ef          jal             ra,-2670        # 0x80007a12

----------------
IN: 
Priv: 3; Virt: 0
0x0000000080007a12:  711d              addi            sp,sp,-96
0x0000000080007a14:  e8a2              sd              s0,80(sp)
0x0000000080007a16:  f852              sd              s4,48(sp)
0x0000000080007a18:  ec86              sd              ra,88(sp)
0x0000000080007a1a:  e4a6              sd              s1,72(sp)
0x0000000080007a1c:  e0ca              sd              s2,64(sp)
0x0000000080007a1e:  fc4e              sd              s3,56(sp)
0x0000000080007a20:  f456              sd              s5,40(sp)
0x0000000080007a22:  f05a              sd              s6,32(sp)
0x0000000080007a24:  ec5e              sd              s7,24(sp)
0x0000000080007a26:  e862              sd              s8,16(sp)
0x0000000080007a28:  e466              sd              s9,8(sp)
0x0000000080007a2a:  e06a              sd              s10,0(sp)
0x0000000080007a2c:  1080              addi            s0,sp,96
0x0000000080007a2e:  0000aa17          auipc           s4,40960        # 0x80011a2e
0x0000000080007a32:  5e2a2a03          lw              s4,1506(s4)
0x0000000080007a36:  2a05              addiw           s4,s4,1
0x0000000080007a38:  1a02              slli            s4,s4,32
0x0000000080007a3a:  020a5a13          srli            s4,s4,32
0x0000000080007a3e:  00063023          sd              zero,0(a2)
0x0000000080007a42:  0945ff63          bleu            s4,a1,158       # 0x80007ae0

----------------
IN: 
Priv: 3; Virt: 0
0x0000000080007a46:  40ba07b3          sub             a5,s4,a1
0x0000000080007a4a:  04000713          addi            a4,zero,64
0x0000000080007a4e:  8ab2              mv              s5,a2
0x0000000080007a50:  84ae              mv              s1,a1
0x0000000080007a52:  08f76463          bgtu            a5,a4,136       # 0x80007ada

----------------
IN: 
Priv: 3; Virt: 0
0x0000000080007a56:  85a6              mv              a1,s1
0x0000000080007a58:  e14fc0ef          jal             ra,-14828       # 0x8000406c

----------------
IN: 
Priv: 3; Virt: 0
0x000000008000406c:  1141              addi            sp,sp,-16
0x000000008000406e:  e422              sd              s0,8(sp)
0x0000000080004070:  0800              addi            s0,sp,16
0x0000000080004072:  c131              beqz            a0,68           # 0x800040b6

----------------
IN: 
Priv: 3; Virt: 0
0x0000000080004074:  0065d693          srli            a3,a1,6
0x0000000080004078:  00369713          slli            a4,a3,3
0x000000008000407c:  972a              add             a4,a4,a0
0x000000008000407e:  87aa              mv              a5,a0
0x0000000080004080:  6708              ld              a0,8(a4)
0x0000000080004082:  03f5f713          andi            a4,a1,63
0x0000000080004086:  00e55533          srl             a0,a0,a4
0x000000008000408a:  c311              beqz            a4,4            # 0x8000408e

----------------
IN: 
Priv: 3; Virt: 0
0x000000008000408e:  6422              ld              s0,8(sp)
0x0000000080004090:  0141              addi            sp,sp,16
0x0000000080004092:  8082              ret             

----------------
IN: 
Priv: 3; Virt: 0
0x0000000080007a5c:  8c2a              mv              s8,a0
0x0000000080007a5e:  4901              mv              s2,zero
0x0000000080007a60:  4c85              addi            s9,zero,1
0x0000000080007a62:  0000cb17          auipc           s6,49152        # 0x80013a62
0x0000000080007a66:  8aeb0b13          addi            s6,s6,-1874
0x0000000080007a6a:  0000bd17          auipc           s10,45056       # 0x80012a6a
0x0000000080007a6e:  626d0d13          addi            s10,s10,1574
0x0000000080007a72:  4b8d              addi            s7,zero,3
0x0000000080007a74:  a021              j               8               # 0x80007a7c

----------------
IN: 
Priv: 3; Virt: 0
0x0000000080007a7c:  012c99b3          sll             s3,s9,s2
0x0000000080007a80:  0189f733          and             a4,s3,s8
0x0000000080007a84:  0004879b          sext.w          a5,s1
0x0000000080007a88:  0485              addi            s1,s1,1
0x0000000080007a8a:  d775              beqz            a4,-20          # 0x80007a76

----------------
IN: 
Priv: 3; Virt: 0
0x0000000080007a8c:  02079713          slli            a4,a5,32
0x0000000080007a90:  01d75793          srli            a5,a4,29
0x0000000080007a94:  97da              add             a5,a5,s6
0x0000000080007a96:  639c              ld              a5,0(a5)
0x0000000080007a98:  dff9              beqz            a5,-34          # 0x80007a76

----------------
IN: 
Priv: 3; Virt: 0
0x0000000080007a9a:  000d3503          ld              a0,0(s10)
0x0000000080007a9e:  953e              add             a0,a0,a5
0x0000000080007aa0:  e9cfb0ef          jal             ra,-18788       # 0x8000313c

----------------
IN: 
Priv: 3; Virt: 0
0x000000008000313c:  1141              addi            sp,sp,-16
0x000000008000313e:  e422              sd              s0,8(sp)
0x0000000080003140:  0800              addi            s0,sp,16
0x0000000080003142:  6108              ld              a0,0(a0)
0x0000000080003144:  0aa0000f          fence           ir,ir
0x0000000080003148:  6422              ld              s0,8(sp)
0x000000008000314a:  0141              addi            sp,sp,16
0x000000008000314c:  8082              ret             

----------------
IN: 
Priv: 3; Virt: 0
0x0000000080007aa4:  2501              sext.w          a0,a0
0x0000000080007aa6:  fd7518e3          bne             a0,s7,-48       # 0x80007a76

----------------
IN: 
Priv: 3; Virt: 0
0x0000000080007aaa:  000ab783          ld              a5,0(s5)
0x0000000080007aae:  2905              addiw           s2,s2,1
0x0000000080007ab0:  0137e7b3          or              a5,a5,s3
0x0000000080007ab4:  00fab023          sd              a5,0(s5)
0x0000000080007ab8:  fd44e2e3          bgtu            s4,s1,-60       # 0x80007a7c

----------------
IN: 
Priv: 3; Virt: 0
0x0000000080007abc:  4501              mv              a0,zero
0x0000000080007abe:  60e6              ld              ra,88(sp)
0x0000000080007ac0:  6446              ld              s0,80(sp)
0x0000000080007ac2:  64a6              ld              s1,72(sp)
0x0000000080007ac4:  6906              ld              s2,64(sp)
0x0000000080007ac6:  79e2              ld              s3,56(sp)
0x0000000080007ac8:  7a42              ld              s4,48(sp)
0x0000000080007aca:  7aa2              ld              s5,40(sp)
0x0000000080007acc:  7b02              ld              s6,32(sp)
0x0000000080007ace:  6be2              ld              s7,24(sp)
0x0000000080007ad0:  6c42              ld              s8,16(sp)
0x0000000080007ad2:  6ca2              ld              s9,8(sp)
0x0000000080007ad4:  6d02              ld              s10,0(sp)
0x0000000080007ad6:  6125              addi            sp,sp,96
0x0000000080007ad8:  8082              ret             

----------------
IN: 
Priv: 3; Virt: 0
0x0000000080008484:  e905              bnez            a0,48           # 0x800084b4

----------------
IN: 
Priv: 3; Virt: 0
0x0000000080008486:  fa843503          ld              a0,-88(s0)
0x000000008000848a:  00996b63          bgtu            s1,s2,22        # 0x800084a0

----------------
IN: 
Priv: 3; Virt: 0
0x000000008000848e:  409a87bb          subw            a5,s5,s1
0x0000000080008492:  00fa17b3          sll             a5,s4,a5
0x0000000080008496:  fff7c793          not             a5,a5
0x000000008000849a:  8d7d              and             a0,a0,a5
0x000000008000849c:  faa43423          sd              a0,-88(s0)
0x00000000800084a0:  e505              bnez            a0,40           # 0x800084c8

----------------
IN: 
Priv: 3; Virt: 0
0x00000000800084a2:  04048493          addi            s1,s1,64
0x00000000800084a6:  fa840613          addi            a2,s0,-88
0x00000000800084aa:  85a6              mv              a1,s1
0x00000000800084ac:  854e              mv              a0,s3
0x00000000800084ae:  d64ff0ef          jal             ra,-2716        # 0x80007a12

----------------
IN: 
Priv: 3; Virt: 0
0x0000000080007ae0:  5575              addi            a0,zero,-3
0x0000000080007ae2:  bff1              j               -36             # 0x80007abe

----------------
IN: 
Priv: 3; Virt: 0
0x0000000080007abe:  60e6              ld              ra,88(sp)
0x0000000080007ac0:  6446              ld              s0,80(sp)
0x0000000080007ac2:  64a6              ld              s1,72(sp)
0x0000000080007ac4:  6906              ld              s2,64(sp)
0x0000000080007ac6:  79e2              ld              s3,56(sp)
0x0000000080007ac8:  7a42              ld              s4,48(sp)
0x0000000080007aca:  7aa2              ld              s5,40(sp)
0x0000000080007acc:  7b02              ld              s6,32(sp)
0x0000000080007ace:  6be2              ld              s7,24(sp)
0x0000000080007ad0:  6c42              ld              s8,16(sp)
0x0000000080007ad2:  6ca2              ld              s9,8(sp)
0x0000000080007ad4:  6d02              ld              s10,0(sp)
0x0000000080007ad6:  6125              addi            sp,sp,96
0x0000000080007ad8:  8082              ret             

----------------
IN: 
Priv: 3; Virt: 0
0x00000000800084b2:  d971              beqz            a0,-44          # 0x80008486

----------------
IN: 
Priv: 3; Virt: 0
0x00000000800084b4:  4581              mv              a1,zero
0x00000000800084b6:  855a              mv              a0,s6
0x00000000800084b8:  861ff0ef          jal             ra,-1952        # 0x80007d18

----------------
IN: 
Priv: 3; Virt: 0
0x0000000080007d18:  7139              addi            sp,sp,-64
0x0000000080007d1a:  f822              sd              s0,48(sp)
0x0000000080007d1c:  f04a              sd              s2,32(sp)
0x0000000080007d1e:  ec4e              sd              s3,24(sp)
0x0000000080007d20:  fc06              sd              ra,56(sp)
0x0000000080007d22:  f426              sd              s1,40(sp)
0x0000000080007d24:  e852              sd              s4,16(sp)
0x0000000080007d26:  e456              sd              s5,8(sp)
0x0000000080007d28:  0080              addi            s0,sp,64
0x0000000080007d2a:  892a              mv              s2,a0
0x0000000080007d2c:  89ae              mv              s3,a1
0x0000000080007d2e:  f14024f3          csrrs           s1,mhartid,zero

----------------
IN: 
Priv: 3; Virt: 0
0x0000000080007d32:  0000ba97          auipc           s5,45056        # 0x80012d32
0x0000000080007d36:  35ea8a93          addi            s5,s5,862
0x0000000080007d3a:  000aba03          ld              s4,0(s5)
0x0000000080007d3e:  2481              sext.w          s1,s1
0x0000000080007d40:  f1402773          csrrs           a4,mhartid,zero

----------------
IN: 
Priv: 3; Virt: 0
0x0000000080007d44:  02071793          slli            a5,a4,32
0x0000000080007d48:  01d7d713          srli            a4,a5,29
0x0000000080007d4c:  0000c797          auipc           a5,49152        # 0x80013d4c
0x0000000080007d50:  d0c78793          addi            a5,a5,-756
0x0000000080007d54:  97ba              add             a5,a5,a4
0x0000000080007d56:  6388              ld              a0,0(a5)
0x0000000080007d58:  85a6              mv              a1,s1
0x0000000080007d5a:  ad8fc0ef          jal             ra,-15656       # 0x80004032

----------------
IN: 
Priv: 3; Virt: 0
0x0000000080007d5e:  c529              beqz            a0,74           # 0x80007da8

----------------
IN: 
Priv: 3; Virt: 0
0x0000000080007d60:  02049793          slli            a5,s1,32
0x0000000080007d64:  01d7d493          srli            s1,a5,29
0x0000000080007d68:  0000b797          auipc           a5,45056        # 0x80012d68
0x0000000080007d6c:  5a878793          addi            a5,a5,1448
0x0000000080007d70:  97a6              add             a5,a5,s1
0x0000000080007d72:  639c              ld              a5,0(a5)
0x0000000080007d74:  cb95              beqz            a5,52           # 0x80007da8

----------------
IN: 
Priv: 3; Virt: 0
0x0000000080007d76:  000ab503          ld              a0,0(s5)
0x0000000080007d7a:  953e              add             a0,a0,a5
0x0000000080007d7c:  bc0fb0ef          jal             ra,-19520       # 0x8000313c

----------------
IN: 
Priv: 3; Virt: 0
0x0000000080007d80:  0005049b          sext.w          s1,a0
0x0000000080007d84:  478d              addi            a5,zero,3
0x0000000080007d86:  02f49163          bne             s1,a5,34        # 0x80007da8

----------------
IN: 
Priv: 3; Virt: 0
0x0000000080007d8a:  4605              addi            a2,zero,1
0x0000000080007d8c:  458d              addi            a1,zero,3
0x0000000080007d8e:  01490533          add             a0,s2,s4
0x0000000080007d92:  bfafb0ef          jal             ra,-19462       # 0x8000318c

----------------
IN: 
Priv: 3; Virt: 0
0x0000000080007d96:  2501              sext.w          a0,a0
0x0000000080007d98:  02951263          bne             a0,s1,36        # 0x80007dbc

----------------
IN: 
Priv: 3; Virt: 0
0x0000000080007d9c:  4501              mv              a0,zero
0x0000000080007d9e:  00098663          beqz            s3,12           # 0x80007daa

----------------
IN: 
Priv: 3; Virt: 0
0x0000000080007daa:  70e2              ld              ra,56(sp)
0x0000000080007dac:  7442              ld              s0,48(sp)
0x0000000080007dae:  74a2              ld              s1,40(sp)
0x0000000080007db0:  7902              ld              s2,32(sp)
0x0000000080007db2:  69e2              ld              s3,24(sp)
0x0000000080007db4:  6a42              ld              s4,16(sp)
0x0000000080007db6:  6aa2              ld              s5,8(sp)
0x0000000080007db8:  6121              addi            sp,sp,64
0x0000000080007dba:  8082              ret             

----------------
IN: 
Priv: 3; Virt: 0
0x00000000800084bc:  0889a783          lw              a5,136(s3)
0x00000000800084c0:  eb91              bnez            a5,20           # 0x800084d4

----------------
IN: 
Priv: 3; Virt: 0
0x00000000800084d4:  030b3783          ld              a5,48(s6)
0x00000000800084d8:  d7ed              beqz            a5,-22          # 0x800084c2

----------------
IN: 
Priv: 3; Virt: 0
0x00000000800084da:  6fbc              ld              a5,88(a5)
0x00000000800084dc:  6bfc              ld              a5,208(a5)
0x00000000800084de:  d3f5              beqz            a5,-28          # 0x800084c2

----------------
IN: 
Priv: 3; Virt: 0
0x00000000800084e0:  85e2              mv              a1,s8
0x00000000800084e2:  855e              mv              a0,s7
0x00000000800084e4:  9782              jalr            ra,a5,0

----------------
IN: 
Priv: 3; Virt: 0
0x00000000800026c8:  1141              addi            sp,sp,-16
0x00000000800026ca:  e022              sd              s0,0(sp)
0x00000000800026cc:  e406              sd              ra,8(sp)
0x00000000800026ce:  0800              addi            s0,sp,16
0x00000000800026d0:  00011697          auipc           a3,69632        # 0x800136d0
0x00000000800026d4:  9986b683          ld              a3,-1640(a3)
0x00000000800026d8:  87aa              mv              a5,a0
0x00000000800026da:  872e              mv              a4,a1
0x00000000800026dc:  ce81              beqz            a3,24           # 0x800026f4

----------------
IN: 
Priv: 3; Virt: 0
0x00000000800026f4:  85ba              mv              a1,a4
0x00000000800026f6:  853e              mv              a0,a5
0x00000000800026f8:  46b060ef          jal             ra,27754        # 0x80009362

----------------
IN: 
Priv: 3; Virt: 0
0x0000000080009362:  0000a797          auipc           a5,40960        # 0x80013362
0x0000000080009366:  d5e7b783          ld              a5,-674(a5)
0x000000008000936a:  cf81              beqz            a5,24           # 0x80009382

----------------
IN: 
Priv: 3; Virt: 0
0x000000008000936c:  6f9c              ld              a5,24(a5)
0x000000008000936e:  cb91              beqz            a5,20           # 0x80009382

----------------
IN: 
Priv: 3; Virt: 0
0x0000000080009370:  1141              addi            sp,sp,-16
0x0000000080009372:  e022              sd              s0,0(sp)
0x0000000080009374:  e406              sd              ra,8(sp)
0x0000000080009376:  0800              addi            s0,sp,16
0x0000000080009378:  9782              jalr            ra,a5,0

----------------
IN: 
Priv: 3; Virt: 0
0x000000008000e1a4:  1141              addi            sp,sp,-16
0x000000008000e1a6:  e422              sd              s0,8(sp)
0x000000008000e1a8:  0800              addi            s0,sp,16
0x000000008000e1aa:  c11d              beqz            a0,38           # 0x8000e1d0

----------------
IN: 
Priv: 3; Virt: 0
0x000000008000e1d0:  ed99              bnez            a1,30           # 0x8000e1ee

----------------
IN: 
Priv: 3; Virt: 0
0x000000008000e1d2:  0140000f          fence           w,o
0x000000008000e1d6:  6795              lui             a5,20480
0x000000008000e1d8:  5557879b          addiw           a5,a5,1365
0x000000008000e1dc:  00005717          auipc           a4,20480        # 0x800131dc
0x000000008000e1e0:  f1c73703          ld              a4,-228(a4)
0x000000008000e1e4:  00f71023          sh              a5,0(a4)
0x000000008000e1e8:  6422              ld              s0,8(sp)
0x000000008000e1ea:  0141              addi            sp,sp,16
0x000000008000e1ec:  8082              ret             

